(dp1
S'and'
p2
F0.020546911482442264
sS'that'
p3
F0.0071111631945369224
sS'this'
p4
F0.006921177061749044
sS'mean_word_length'
p5
F5.8821839080459766
sS'however'
p6
F0.00039240126491701867
sS'but'
p7
F0.0017152019090942987
sS'very'
p8
F0.0012961670741602879
sS'must'
p9
F0.00025923341483205758
sS'more'
p10
F0.0017098751950909003
sS'might'
p11
F0.00048473097430925838
sS'if'
p12
F0.0041921239206745746
s.