(dp1
S'shop'
p2
F0.006269592476489028
sS'all'
p3
F0.012539184952978056
sS'help'
p4
F0.006269592476489028
sS'just'
p5
F0.015673981191222569
sS'reviewers'
p6
F0.003134796238244514
sS'over'
p7
F0.0094043887147335428
sS'able'
p8
F0.006269592476489028
sS'find'
p9
F0.006269592476489028
sS'soon'
p10
F0.003134796238244514
sS'bring'
p11
F0.015673981191222569
sS'large'
p12
F0.003134796238244514
sS'planning'
p13
F0.006269592476489028
sS'through'
p14
F0.006269592476489028
sS'legal'
p15
F0.003134796238244514
sS'ounces'
p16
F0.003134796238244514
sS'go'
p17
F0.006269592476489028
sS'follow'
p18
F0.003134796238244514
sS'yes'
p19
F0.003134796238244514
sS'involved'
p20
F0.003134796238244514
sS'next'
p21
F0.003134796238244514
sS'its'
p22
F0.012539184952978056
sS'crashing'
p23
F0.006269592476489028
sS'one'
p24
F0.021943573667711599
sS'web'
p25
F0.003134796238244514
sS'burns'
p26
F0.006269592476489028
sS'thank'
p27
F0.003134796238244514
sS'also'
p28
F0.0094043887147335428
sS'thinking'
p29
F0.006269592476489028
sS'much'
p30
F0.018808777429467086
sS'weekends'
p31
F0.003134796238244514
sS'firewood'
p32
F0.018808777429467086
sS'vacation'
p33
F0.006269592476489028
sS'should'
p34
F0.012539184952978056
sS'better'
p35
F0.003134796238244514
sS'to'
p36
F0.21316614420062696
sS'only'
p37
F0.006269592476489028
sS'wood'
p38
F0.021943573667711599
sS'choose'
p39
F0.006269592476489028
sS'pretty'
p40
F0.025078369905956112
sS'employee'
p41
F0.003134796238244514
sS'sorry'
p42
F0.0094043887147335428
sS'has'
p43
F0.012539184952978056
sS'might'
p44
F0.003134796238244514
sS'sent'
p45
F0.072100313479623826
sS'split'
p46
F0.006269592476489028
sS'borrowed'
p47
F0.003134796238244514
sS'do'
p48
F0.015673981191222569
sS'them'
p49
F0.006269592476489028
sS'good'
p50
F0.021943573667711599
sS'around'
p51
F0.018808777429467086
sS'get'
p52
F0.065830721003134793
sS'food'
p53
F0.006269592476489028
sS'big'
p54
F0.006269592476489028
sS'showing'
p55
F0.006269592476489028
sS'between'
p56
F0.003134796238244514
sS'hunter'
p57
F0.006269592476489028
sS'dark'
p58
F0.006269592476489028
sS'beam'
p59
F0.006269592476489028
sS'were'
p60
F0.012539184952978056
sS'every'
p61
F0.012539184952978056
sS'know'
p62
F0.003134796238244514
sS'they'
p63
F0.006269592476489028
sS'half'
p64
F0.0094043887147335428
sS'not'
p65
F0.021943573667711599
sS'say'
p66
F0.012539184952978056
sS'bit'
p67
F0.006269592476489028
sS'now'
p68
F0.006269592476489028
sS'bringing'
p69
F0.006269592476489028
sS'day'
p70
F0.003134796238244514
sS'unfortunately'
p71
F0.003134796238244514
sS'drizzle'
p72
F0.003134796238244514
sS'feet'
p73
F0.012539184952978056
sS'cold'
p74
F0.003134796238244514
sS'gets'
p75
F0.006269592476489028
sS'trucks'
p76
F0.006269592476489028
sS'ill'
p77
F0.003134796238244514
sS'did'
p78
F0.018808777429467086
sS'fully'
p79
F0.003134796238244514
sS'pack'
p80
F0.003134796238244514
sS'morning'
p81
F0.006269592476489028
sS'consensus'
p82
F0.006269592476489028
sS'quest'
p83
F0.003134796238244514
sS'stuff'
p84
F0.006269592476489028
sS'either'
p85
F0.003134796238244514
sS'each'
p86
F0.003134796238244514
sS'small'
p87
F0.006269592476489028
sS'tent'
p88
F0.018808777429467086
sS'out'
p89
F0.006269592476489028
sS'page'
p90
F0.003134796238244514
sS'upward'
p91
F0.006269592476489028
sS'work'
p92
F0.006269592476489028
sS'logs'
p93
F0.006269592476489028
sS'ten'
p94
F0.006269592476489028
sS'tents'
p95
F0.006269592476489028
sS'spoken'
p96
F0.003134796238244514
sS'easy'
p97
F0.006269592476489028
sS'some'
p98
F0.028213166144200628
sS'steaks'
p99
F0.015673981191222569
sS'see'
p100
F0.006269592476489028
sS'been'
p101
F0.021943573667711599
sS'are'
p102
F0.034482758620689655
sS'marinade'
p103
F0.006269592476489028
sS'home'
p104
F0.0094043887147335428
sS'spiking'
p105
F0.006269592476489028
sS'click'
p106
F0.003134796238244514
sS'best'
p107
F0.006269592476489028
sS'subject'
p108
F0.090909090909090912
sS'try'
p109
F0.003134796238244514
sS'what'
p110
F0.006269592476489028
sS'throughout'
p111
F0.006269592476489028
sS'alcohol'
p112
F0.003134796238244514
sS'for'
p113
F0.081504702194357362
sS'wow'
p114
F0.006269592476489028
sS'since'
p115
F0.006269592476489028
sS'pep'
p116
F0.003134796238244514
sS'per'
p117
F0.006269592476489028
sS'tend'
p118
F0.006269592476489028
sS'content'
p119
F0.003134796238244514
sS're'
p120
F0.075235109717868343
sS'version'
p121
F0.003134796238244514
sS'hopefully'
p122
F0.003134796238244514
sS'supplier'
p123
F0.006269592476489028
sS'new'
p124
F0.006269592476489028
sS'before'
p125
F0.012539184952978056
sS'decent'
p126
F0.006269592476489028
sS'bought'
p127
F0.006269592476489028
sS'available'
p128
F0.006269592476489028
sS'be'
p129
F0.021943573667711599
sS'we'
p130
F0.05329153605015674
sS'got'
p131
F0.006269592476489028
sS'palmer'
p132
F0.078369905956112859
sS'however'
p133
F0.006269592476489028
sS'here'
p134
F0.006269592476489028
sS'quite'
p135
F0.018808777429467086
sS'kicking'
p136
F0.003134796238244514
sS'please'
p137
F0.003134796238244514
sS'let'
p138
F0.003134796238244514
sS'crap'
p139
F0.006269592476489028
sS'packages'
p140
F0.006269592476489028
sS'by'
p141
F0.0094043887147335428
sS'change'
p142
F0.003134796238244514
sS'log'
p143
F0.003134796238244514
sS'on'
p144
F0.056426332288401257
sS'about'
p145
F0.012539184952978056
sS'balance'
p146
F0.006269592476489028
sS'actual'
p147
F0.006269592476489028
sS'anything'
p148
F0.006269592476489028
sS'package'
p149
F0.006269592476489028
sS'many'
p150
F0.003134796238244514
sS'employees'
p151
F0.003134796238244514
sS'area'
p152
F0.006269592476489028
sS'suggest'
p153
F0.003134796238244514
sS'side'
p154
F0.006269592476489028
sS'where'
p155
F0.006269592476489028
sS'ounce'
p156
F0.006269592476489028
sS'place'
p157
F0.006269592476489028
sS'due'
p158
F0.006269592476489028
sS'pick'
p159
F0.006269592476489028
sS'usually'
p160
F0.018808777429467086
sS'eight'
p161
F0.006269592476489028
sS'theres'
p162
F0.006269592476489028
sS'or'
p163
F0.015673981191222569
sS'first'
p164
F0.006269592476489028
sS'bike'
p165
F0.006269592476489028
sS'outlook'
p166
F0.003134796238244514
sS'extra'
p167
F0.003134796238244514
sS'feel'
p168
F0.003134796238244514
sS'into'
p169
F0.003134796238244514
sS'two'
p170
F0.015673981191222569
sS'down'
p171
F0.006269592476489028
sS'right'
p172
F0.006269592476489028
sS'fast'
p173
F0.006269592476489028
sS'strip'
p174
F0.006269592476489028
sS'sounds'
p175
F0.006269592476489028
sS'writing'
p176
F0.006269592476489028
sS'your'
p177
F0.015673981191222569
sS'hoping'
p178
F0.003134796238244514
sS'everybody'
p179
F0.0094043887147335428
sS'charge'
p180
F0.006269592476489028
sS'from'
p181
F0.097178683385579931
sS'forwarded'
p182
F0.006269592476489028
sS'working'
p183
F0.003134796238244514
sS'privacy'
p184
F0.003134796238244514
sS'always'
p185
F0.006269592476489028
sS'guys'
p186
F0.0094043887147335428
sS'there'
p187
F0.025078369905956112
sS'system'
p188
F0.006269592476489028
sS'long'
p189
F0.012539184952978056
sS'center'
p190
F0.003134796238244514
sS'does'
p191
F0.003134796238244514
sS'clothes'
p192
F0.003134796238244514
sS'going'
p193
F0.021943573667711599
sS'too'
p194
F0.003134796238244514
sS'mean'
p195
F0.006269592476489028
sS'kick'
p196
F0.012539184952978056
sS'unthinkable'
p197
F0.006269592476489028
sS'warmth'
p198
F0.006269592476489028
sS'uncontrollable'
p199
F0.003134796238244514
sS'wants'
p200
F0.003134796238244514
sS'option'
p201
F0.006269592476489028
sS'that'
p202
F0.043887147335423198
sS'fire'
p203
F0.012539184952978056
sS'getting'
p204
F0.012539184952978056
sS'park'
p205
F0.006269592476489028
sS'cant'
p206
F0.006269592476489028
sS'else'
p207
F0.006269592476489028
sS'bulk'
p208
F0.006269592476489028
sS'needed'
p209
F0.003134796238244514
sS'warm'
p210
F0.003134796238244514
sS'hear'
p211
F0.003134796238244514
sS'last'
p212
F0.003134796238244514
sS'sleeping'
p213
F0.006269592476489028
sS'with'
p214
F0.006269592476489028
sS'bout'
p215
F0.006269592476489028
sS'must'
p216
F0.003134796238244514
sS'me'
p217
F0.006269592476489028
sS'kind'
p218
F0.003134796238244514
sS'made'
p219
F0.003134796238244514
sS'join'
p220
F0.003134796238244514
sS'look'
p221
F0.003134796238244514
sS'this'
p222
F0.10031347962382445
sS'meeting'
p223
F0.006269592476489028
sS'ride'
p224
F0.006269592476489028
sS'access'
p225
F0.006269592476489028
sS'up'
p226
F0.031347962382445138
sS'value'
p227
F0.006269592476489028
sS'will'
p228
F0.006269592476489028
sS'while'
p229
F0.003134796238244514
sS'cost'
p230
F0.012539184952978056
sS'can'
p231
F0.062695924764890276
sS'of'
p232
F0.075235109717868343
sS'fun'
p233
F0.006269592476489028
sS'piece'
p234
F0.003134796238244514
sS'minutes'
p235
F0.006269592476489028
sS'could'
p236
F0.006269592476489028
sS'launched'
p237
F0.003134796238244514
sS'browser'
p238
F0.003134796238244514
sS'and'
p239
F0.078369905956112859
sS'claim'
p240
F0.006269592476489028
sS'sometimes'
p241
F0.006269592476489028
sS'have'
p242
F0.037617554858934171
sS'then'
p243
F0.006269592476489028
sS'cover'
p244
F0.006269592476489028
sS'is'
p245
F0.047021943573667714
sS'am'
p246
F0.021943573667711599
sS'it'
p247
F0.034482758620689655
sS'correction'
p248
F0.003134796238244514
sS'an'
p249
F0.025078369905956112
sS'states'
p250
F0.003134796238244514
sS'as'
p251
F0.012539184952978056
sS'someone'
p252
F0.006269592476489028
sS'at'
p253
F0.0094043887147335428
sS'want'
p254
F0.0094043887147335428
sS'in'
p255
F0.065830721003134793
sS'need'
p256
F0.025078369905956112
sS'my'
p257
F0.0094043887147335428
sS'bow'
p258
F0.003134796238244514
sS'id'
p259
F0.021943573667711599
sS'elements'
p260
F0.003134796238244514
sS'fill'
p261
F0.003134796238244514
sS'united'
p262
F0.003134796238244514
sS'us'
p263
F0.003134796238244514
sS'night'
p264
F0.006269592476489028
sS'something'
p265
F0.006269592476489028
sS'trip'
p266
F0.003134796238244514
sS'pain'
p267
F0.003134796238244514
sS'make'
p268
F0.003134796238244514
sS'comfort'
p269
F0.003134796238244514
sS'intrinsic'
p270
F0.006269592476489028
sS'scrape'
p271
F0.006269592476489028
sS'lately'
p272
F0.006269592476489028
sS'note'
p273
F0.006269592476489028
sS'how'
p274
F0.003134796238244514
sS'silent'
p275
F0.0094043887147335428
sS'build'
p276
F0.006269592476489028
sS'nylon'
p277
F0.003134796238244514
sS'announcements'
p278
F0.003134796238244514
sS'you'
p279
F0.047021943573667714
sS'if'
p280
F0.021943573667711599
sS'week'
p281
F0.0094043887147335428
sS'sure'
p282
F0.003134796238244514
sS'unless'
p283
F0.006269592476489028
sS'explorer'
p284
F0.003134796238244514
sS'emerges'
p285
F0.003134796238244514
sS'our'
p286
F0.006269592476489028
sS'who'
p287
F0.006269592476489028
sS'depths'
p288
F0.003134796238244514
sS'informs'
p289
F0.003134796238244514
sS'portal'
p290
F0.018808777429467086
sS'but'
p291
F0.003134796238244514
sS'awful'
p292
F0.006269592476489028
sS'evaluations'
p293
F0.003134796238244514
sS'weekend'
p294
F0.081504702194357362
sS'stack'
p295
F0.006269592476489028
sS'early'
p296
F0.006269592476489028
sS'short'
p297
F0.012539184952978056
sS'physical'
p298
F0.003134796238244514
sS'camping'
p299
F0.0094043887147335428
sS'calls'
p300
F0.006269592476489028
sS'assume'
p301
F0.012539184952978056
sS'light'
p302
F0.003134796238244514
sS'pitch'
p303
F0.006269592476489028
sS'camp'
p304
F0.006269592476489028
sS'well'
p305
F0.003134796238244514
sS'roughly'
p306
F0.006269592476489028
sS'together'
p307
F0.006269592476489028
sS'think'
p308
F0.018808777429467086
sS'rather'
p309
F0.003134796238244514
sS'ones'
p310
F0.006269592476489028
sS'so'
p311
F0.034482758620689655
sS'inebriation'
p312
F0.003134796238244514
sS'time'
p313
F0.012539184952978056
sS'very'
p314
F0.003134796238244514
sS'position'
p315
F0.006269592476489028
sS'the'
p316
F0.17241379310344829
sS'looking'
p317
F0.006269592476489028
sS'corporate'
p318
F0.003134796238244514
sS'noon'
p319
F0.006269592476489028
sS'turns'
p320
F0.006269592476489028
s.