(dp1
S'all'
p2
F0.011235955056179775
sS'reviewers'
p3
F0.0028089887640449437
sS'per'
p4
F0.0056179775280898875
sS'go'
p5
F0.0084269662921348312
sS'follow'
p6
F0.0028089887640449437
sS'content'
p7
F0.0028089887640449437
sS'electricity'
p8
F0.0028089887640449437
sS'to'
p9
F0.21067415730337077
sS'charge'
p10
F0.0056179775280898875
sS'bike'
p11
F0.0056179775280898875
sS'sorry'
p12
F0.011235955056179775
sS'sent'
p13
F0.064606741573033713
sS'very'
p14
F0.0028089887640449437
sS'every'
p15
F0.011235955056179775
sS'awful'
p16
F0.0056179775280898875
sS'bringing'
p17
F0.0056179775280898875
sS'did'
p18
F0.016853932584269662
sS'turns'
p19
F0.0056179775280898875
sS'large'
p20
F0.0028089887640449437
sS'small'
p21
F0.0056179775280898875
sS'clothes'
p22
F0.0028089887640449437
sS'ten'
p23
F0.0056179775280898875
sS'steaks'
p24
F0.014044943820224719
sS'cost'
p25
F0.011235955056179775
sS'marinade'
p26
F0.0056179775280898875
sS'click'
p27
F0.0028089887640449437
sS'what'
p28
F0.0084269662921348312
sS'access'
p29
F0.0056179775280898875
sS'version'
p30
F0.0028089887640449437
sS'supplier'
p31
F0.0056179775280898875
sS'new'
p32
F0.0056179775280898875
sS'told'
p33
F0.0028089887640449437
sS'here'
p34
F0.0056179775280898875
sS'let'
p35
F0.0056179775280898875
sS'address'
p36
F0.0056179775280898875
sS'change'
p37
F0.0028089887640449437
sS'involved'
p38
F0.0028089887640449437
sS'employees'
p39
F0.0028089887640449437
sS'bow'
p40
F0.0028089887640449437
sS'pick'
p41
F0.0056179775280898875
sS'usually'
p42
F0.016853932584269662
sS'pack'
p43
F0.0028089887640449437
sS'love'
p44
F0.0028089887640449437
sS'extra'
p45
F0.0028089887640449437
sS'everybody'
p46
F0.0084269662921348312
sS'crap'
p47
F0.0056179775280898875
sS'spoke'
p48
F0.0056179775280898875
sS'working'
p49
F0.0028089887640449437
sS'two'
p50
F0.014044943820224719
sS'next'
p51
F0.0028089887640449437
sS'going'
p52
F0.019662921348314606
sS'taken'
p53
F0.0028089887640449437
sS'unthinkable'
p54
F0.0056179775280898875
sS'yahoo'
p55
F0.0056179775280898875
sS'warm'
p56
F0.0028089887640449437
sS'known'
p57
F0.0028089887640449437
sS'must'
p58
F0.0028089887640449437
sS'me'
p59
F0.016853932584269662
sS'join'
p60
F0.0028089887640449437
sS'this'
p61
F0.09269662921348315
sS'ride'
p62
F0.0056179775280898875
sS'work'
p63
F0.0084269662921348312
sS'can'
p64
F0.058988764044943819
sS'meet'
p65
F0.0028089887640449437
sS'my'
p66
F0.0084269662921348312
sS'claim'
p67
F0.0056179775280898875
sS'states'
p68
F0.0028089887640449437
sS'something'
p69
F0.011235955056179775
sS'want'
p70
F0.011235955056179775
sS'united'
p71
F0.0028089887640449437
sS'rather'
p72
F0.0028089887640449437
sS'comfort'
p73
F0.0028089887640449437
sS'how'
p74
F0.0028089887640449437
sS'explorer'
p75
F0.0028089887640449437
sS'informs'
p76
F0.0028089887640449437
sS'evaluations'
p77
F0.0028089887640449437
sS'guys'
p78
F0.0084269662921348312
sS'short'
p79
F0.011235955056179775
sS'physical'
p80
F0.0028089887640449437
sS'light'
p81
F0.0028089887640449437
sS'so'
p82
F0.036516853932584269
sS'help'
p83
F0.0056179775280898875
sS'over'
p84
F0.0084269662921348312
sS'soon'
p85
F0.0028089887640449437
sS'years'
p86
F0.0056179775280898875
sS'course'
p87
F0.0028089887640449437
sS'through'
p88
F0.0056179775280898875
sS'pitch'
p89
F0.0056179775280898875
sS'cold'
p90
F0.0028089887640449437
sS'its'
p91
F0.011235955056179775
sS'before'
p92
F0.011235955056179775
sS'thank'
p93
F0.0056179775280898875
sS'writing'
p94
F0.0056179775280898875
sS'better'
p95
F0.0028089887640449437
sS'spoken'
p96
F0.0028089887640449437
sS'choose'
p97
F0.0056179775280898875
sS'bout'
p98
F0.0056179775280898875
sS'might'
p99
F0.0056179775280898875
sS'then'
p100
F0.0056179775280898875
sS'them'
p101
F0.0056179775280898875
sS'good'
p102
F0.025280898876404494
sS'food'
p103
F0.0056179775280898875
sS'hunter'
p104
F0.0056179775280898875
sS'they'
p105
F0.0056179775280898875
sS'half'
p106
F0.0084269662921348312
sS'not'
p107
F0.019662921348314606
sS'now'
p108
F0.0084269662921348312
sS'day'
p109
F0.0056179775280898875
sS'fully'
p110
F0.0028089887640449437
sS'each'
p111
F0.0028089887640449437
sS'side'
p112
F0.0056179775280898875
sS'upward'
p113
F0.0056179775280898875
sS'logs'
p114
F0.0056179775280898875
sS'tents'
p115
F0.0056179775280898875
sS'our'
p116
F0.0084269662921348312
sS'spiking'
p117
F0.0056179775280898875
sS'out'
p118
F0.0056179775280898875
sS'emerges'
p119
F0.0028089887640449437
sS'alcohol'
p120
F0.0028089887640449437
sS'since'
p121
F0.0056179775280898875
sS'looking'
p122
F0.0056179775280898875
sS're'
p123
F0.06741573033707865
sS'got'
p124
F0.0084269662921348312
sS'million'
p125
F0.0028089887640449437
sS'quite'
p126
F0.016853932584269662
sS'wanted'
p127
F0.0028089887640449437
sS'log'
p128
F0.0028089887640449437
sS'could'
p129
F0.0056179775280898875
sS'days'
p130
F0.0028089887640449437
sS'place'
p131
F0.0056179775280898875
sS'think'
p132
F0.02247191011235955
sS'first'
p133
F0.0056179775280898875
sS'feel'
p134
F0.0028089887640449437
sS'one'
p135
F0.019662921348314606
sS'feet'
p136
F0.011235955056179775
sS'long'
p137
F0.014044943820224719
sS'sounds'
p138
F0.0056179775280898875
sS'little'
p139
F0.0028089887640449437
sS'silent'
p140
F0.0084269662921348312
sS'privacy'
p141
F0.0028089887640449437
sS'night'
p142
F0.0056179775280898875
sS'system'
p143
F0.0056179775280898875
sS'needed'
p144
F0.0028089887640449437
sS'too'
p145
F0.0028089887640449437
sS'friend'
p146
F0.0056179775280898875
sS'option'
p147
F0.0056179775280898875
sS'that'
p148
F0.053370786516853931
sS'park'
p149
F0.0056179775280898875
sS'kind'
p150
F0.0028089887640449437
sS'unfortunately'
p151
F0.0028089887640449437
sS'were'
p152
F0.011235955056179775
sS'browser'
p153
F0.0028089887640449437
sS'and'
p154
F0.087078651685393263
sS'correction'
p155
F0.0028089887640449437
sS'say'
p156
F0.011235955056179775
sS'have'
p157
F0.036516853932584269
sS'need'
p158
F0.02247191011235955
sS'sell'
p159
F0.0028089887640449437
sS'able'
p160
F0.0056179775280898875
sS'note'
p161
F0.0056179775280898875
sS'also'
p162
F0.0084269662921348312
sS'build'
p163
F0.0056179775280898875
sS'sure'
p164
F0.0028089887640449437
sS'pain'
p165
F0.0028089887640449437
sS'who'
p166
F0.0056179775280898875
sS'depths'
p167
F0.0028089887640449437
sS'eight'
p168
F0.0056179775280898875
sS'intrinsic'
p169
F0.0056179775280898875
sS'sometimes'
p170
F0.0056179775280898875
sS'cover'
p171
F0.0056179775280898875
sS'inebriation'
p172
F0.0028089887640449437
sS'shop'
p173
F0.0056179775280898875
sS'bring'
p174
F0.014044943820224719
sS'planning'
p175
F0.0056179775280898875
sS'find'
p176
F0.0056179775280898875
sS'crashing'
p177
F0.0056179775280898875
sS'weekends'
p178
F0.0028089887640449437
sS'firewood'
p179
F0.016853932584269662
sS'should'
p180
F0.014044943820224719
sS'only'
p181
F0.0056179775280898875
sS'wood'
p182
F0.019662921348314606
sS'pretty'
p183
F0.02247191011235955
sS'employee'
p184
F0.0028089887640449437
sS'hope'
p185
F0.0056179775280898875
sS'borrowed'
p186
F0.0028089887640449437
sS'do'
p187
F0.016853932584269662
sS'get'
p188
F0.058988764044943819
sS'hopefully'
p189
F0.0028089887640449437
sS'beam'
p190
F0.0056179775280898875
sS'ones'
p191
F0.0056179775280898875
sS'trucks'
p192
F0.0056179775280898875
sS'morning'
p193
F0.0056179775280898875
sS'stuff'
p194
F0.0056179775280898875
sS'she'
p195
F0.011235955056179775
sS'bought'
p196
F0.0056179775280898875
sS'where'
p197
F0.0056179775280898875
sS'package'
p198
F0.0056179775280898875
sS'see'
p199
F0.0084269662921348312
sS'are'
p200
F0.030898876404494381
sS'best'
p201
F0.0056179775280898875
sS'subject'
p202
F0.084269662921348312
sS'camping'
p203
F0.0084269662921348312
sS'wow'
p204
F0.0084269662921348312
sS'please'
p205
F0.0028089887640449437
sS'tend'
p206
F0.0056179775280898875
sS'between'
p207
F0.0028089887640449437
sS'probably'
p208
F0.0028089887640449437
sS'tent'
p209
F0.016853932584269662
sS'available'
p210
F0.0056179775280898875
sS'we'
p211
F0.050561797752808987
sS'however'
p212
F0.0056179775280898875
sS'kicking'
p213
F0.0028089887640449437
sS'packages'
p214
F0.0056179775280898875
sS'last'
p215
F0.0028089887640449437
sS'many'
p216
F0.0028089887640449437
sS'ill'
p217
F0.0028089887640449437
sS'auctions'
p218
F0.0028089887640449437
sS'throughout'
p219
F0.0056179775280898875
sS'decent'
p220
F0.0056179775280898875
sS'due'
p221
F0.0056179775280898875
sS'been'
p222
F0.019662921348314606
sS'much'
p223
F0.016853932584269662
sS'meeting'
p224
F0.0056179775280898875
sS'warmth'
p225
F0.0056179775280898875
sS'wants'
p226
F0.0028089887640449437
sS'lived'
p227
F0.0028089887640449437
sS'fire'
p228
F0.011235955056179775
sS'else'
p229
F0.0056179775280898875
sS'bulk'
p230
F0.0056179775280898875
sS'look'
p231
F0.0028089887640449437
sS'value'
p232
F0.0056179775280898875
sS'will'
p233
F0.0084269662921348312
sS'while'
p234
F0.0028089887640449437
sS'fun'
p235
F0.0056179775280898875
sS'balance'
p236
F0.0056179775280898875
sS'trader'
p237
F0.0028089887640449437
sS'launched'
p238
F0.0028089887640449437
sS'theres'
p239
F0.0056179775280898875
sS'hoping'
p240
F0.0028089887640449437
sS'almost'
p241
F0.0028089887640449437
sS'is'
p242
F0.047752808988764044
sS'it'
p243
F0.033707865168539325
sS'sleeping'
p244
F0.0056179775280898875
sS'cant'
p245
F0.0056179775280898875
sS'someone'
p246
F0.0056179775280898875
sS'in'
p247
F0.0702247191011236
sS'id'
p248
F0.019662921348314606
sS'if'
p249
F0.02247191011235955
sS'memorial'
p250
F0.0028089887640449437
sS'suggest'
p251
F0.0028089887640449437
sS'make'
p252
F0.0028089887640449437
sS'split'
p253
F0.0056179775280898875
sS'gets'
p254
F0.0056179775280898875
sS'week'
p255
F0.0084269662921348312
sS'fraternity'
p256
F0.0028089887640449437
sS'portal'
p257
F0.016853932584269662
sS'stack'
p258
F0.0056179775280898875
sS'early'
p259
F0.0056179775280898875
sS'nylon'
p260
F0.0028089887640449437
sS'center'
p261
F0.0028089887640449437
sS'try'
p262
F0.0028089887640449437
sS'well'
p263
F0.0028089887640449437
sS'roughly'
p264
F0.0056179775280898875
sS'thought'
p265
F0.0028089887640449437
sS'contact'
p266
F0.0028089887640449437
sS'position'
p267
F0.0056179775280898875
sS'the'
p268
F0.1544943820224719
sS'corporate'
p269
F0.0028089887640449437
sS'just'
p270
F0.016853932584269662
sS'ounces'
p271
F0.0028089887640449437
sS'yes'
p272
F0.0028089887640449437
sS'web'
p273
F0.0028089887640449437
sS'thinking'
p274
F0.0056179775280898875
sS'had'
p275
F0.0028089887640449437
sS'easy'
p276
F0.0056179775280898875
sS'has'
p277
F0.014044943820224719
sS'kick'
p278
F0.011235955056179775
sS'around'
p279
F0.016853932584269662
sS'big'
p280
F0.0056179775280898875
sS'showing'
p281
F0.0056179775280898875
sS'dark'
p282
F0.0056179775280898875
sS'quest'
p283
F0.0028089887640449437
sS'know'
p284
F0.011235955056179775
sS'bit'
p285
F0.0056179775280898875
sS'burns'
p286
F0.0056179775280898875
sS'consensus'
p287
F0.0056179775280898875
sS'either'
p288
F0.0028089887640449437
sS'always'
p289
F0.0056179775280898875
sS'page'
p290
F0.0028089887640449437
sS'right'
p291
F0.0056179775280898875
sS'some'
p292
F0.025280898876404494
sS'unless'
p293
F0.0056179775280898875
sS'drizzle'
p294
F0.0028089887640449437
sS'for'
p295
F0.075842696629213488
sS'noon'
p296
F0.0056179775280898875
sS'pep'
p297
F0.0028089887640449437
sS'legal'
p298
F0.0028089887640449437
sS'does'
p299
F0.0028089887640449437
sS'sweepstakes'
p300
F0.0028089887640449437
sS'be'
p301
F0.025280898876404494
sS'palmer'
p302
F0.0702247191011236
sS'graduated'
p303
F0.0028089887640449437
sS'from'
p304
F0.095505617977528087
sS'by'
p305
F0.0084269662921348312
sS'hearing'
p306
F0.0028089887640449437
sS'on'
p307
F0.053370786516853931
sS'about'
p308
F0.02247191011235955
sS'actual'
p309
F0.0056179775280898875
sS'would'
p310
F0.0056179775280898875
sS'anything'
p311
F0.0056179775280898875
sS'getting'
p312
F0.014044943820224719
sS'of'
p313
F0.0702247191011236
sS'ounce'
p314
F0.0056179775280898875
sS'mean'
p315
F0.0056179775280898875
sS'or'
p316
F0.014044943820224719
sS'outlook'
p317
F0.0028089887640449437
sS'into'
p318
F0.0028089887640449437
sS'three'
p319
F0.0028089887640449437
sS'down'
p320
F0.0056179775280898875
sS'strip'
p321
F0.0056179775280898875
sS'your'
p322
F0.014044943820224719
sS'forwarded'
p323
F0.0056179775280898875
sS'her'
p324
F0.0056179775280898875
sS'area'
p325
F0.0056179775280898875
sS'there'
p326
F0.02247191011235955
sS'fast'
p327
F0.0056179775280898875
sS'uncontrollable'
p328
F0.0028089887640449437
sS'but'
p329
F0.0028089887640449437
sS'hear'
p330
F0.0028089887640449437
sS'with'
p331
F0.0084269662921348312
sS'made'
p332
F0.0028089887640449437
sS'ut'
p333
F0.0028089887640449437
sS'up'
p334
F0.028089887640449437
sS'us'
p335
F0.0028089887640449437
sS'piece'
p336
F0.0028089887640449437
sS'minutes'
p337
F0.0056179775280898875
sS'camp'
p338
F0.0056179775280898875
sS'am'
p339
F0.02247191011235955
sS'an'
p340
F0.025280898876404494
sS'as'
p341
F0.016853932584269662
sS'at'
p342
F0.011235955056179775
sS'home'
p343
F0.0084269662921348312
sS'trip'
p344
F0.0028089887640449437
sS'fill'
p345
F0.0028089887640449437
sS'scrape'
p346
F0.0056179775280898875
sS'lately'
p347
F0.0056179775280898875
sS'interested'
p348
F0.0056179775280898875
sS'vacation'
p349
F0.0056179775280898875
sS'announcements'
p350
F0.0028089887640449437
sS'you'
p351
F0.064606741573033713
sS'elements'
p352
F0.0028089887640449437
sS'weekend'
p353
F0.075842696629213488
sS'calls'
p354
F0.0056179775280898875
sS'assume'
p355
F0.011235955056179775
sS'together'
p356
F0.0084269662921348312
sS'time'
p357
F0.011235955056179775
s.