(dp1
S'and'
p2
F0.0083218488285805147
sS'that'
p3
F0.0051415244354924205
sS'very'
p4
F0.00015901621965440474
sS'mean_word_length'
p5
F3.6551724137931036
sS'however'
p6
F0.000212021626205873
sS'but'
p7
F0.001961200042404325
sS'this'
p8
F0.0055125622813526976
sS'must'
p9
F0.00015901621965440474
sS'type_token_ratio'
p10
F0.74503105531552605
sS'more'
p11
F0.0010071027244778967
sS'might'
p12
F0.00037103784586027777
sS'if'
p13
F0.0023852432948160713
s.