(dp1
S'and'
p2
F0.009189443920829406
sS'that'
p3
F0.0056550424128180964
sS'this'
p4
F0.009189443920829406
sS'mean_word_length'
p5
F3.5454545454545454
sS'sentence_standard_deviation'
p6
F62.989377590661775
sS'however'
p7
F0
sS'but'
p8
F0.0011781338360037699
sS'very'
p9
F0.0011781338360037699
sS'must'
p10
F0
sS'type_token_ratio'
p11
F0.78621902112998721
sS'more'
p12
F0.00070688030160226205
sS'might'
p13
F0
sS'mean_sentence_length'
p14
F44.672064777327932
sS'if'
p15
F0.0040056550424128184
s.