(dp1
S'and'
p2
F0.016987809673613841
sS'that'
p3
F0.0060165159260715693
sS'this'
p4
F0.0063704286276051909
sS'mean_word_length'
p5
F4.354166666666667
sS'however'
p6
F0.00011797090051120724
sS'but'
p7
F0.0014156508061344869
sS'very'
p8
F0.0004325599685410932
sS'must'
p9
F0.00019661816751867872
sS'type_token_ratio'
p10
F0.70099888793073672
sS'if'
p11
F0.0040503342508847818
sS'might'
p12
F0.00039323633503735744
sS'more'
p13
F0.00090444357058592215
s.