(dp1
S'and'
p2
F0.021739130434782608
sS'that'
p3
F0
sS'this'
p4
F0.010869565217391304
sS'mean_word_length'
p5
F5.25
sS'sentence_standard_deviation'
p6
F20.545234646181743
sS'however'
p7
F0
sS'but'
p8
F0.010869565217391304
sS'very'
p9
F0
sS'must'
p10
F0
sS'type_token_ratio'
p11
F0.99147485080988906
sS'more'
p12
F0
sS'might'
p13
F0
sS'mean_sentence_length'
p14
F62.399999999999999
sS'if'
p15
F0.010869565217391304
s.