(dp1
S'and'
p2
F0.021739130434782608
sS'that'
p3
F0
sS'this'
p4
F0.010869565217391304
sS'mean_word_length'
p5
F5.25
sS'however'
p6
F0
sS'but'
p7
F0.010869565217391304
sS'very'
p8
F0
sS'must'
p9
F0
sS'type_token_ratio'
p10
F0.99147485080988906
sS'more'
p11
F0
sS'might'
p12
F0
sS'if'
p13
F0.010869565217391304
s.