(dp1
S'and'
p2
F0.01972062448644207
sS'that'
p3
F0.0082169268693508633
sS'very'
p4
F0.0024650780608052587
sS'mean_word_length'
p5
F6.2692307692307692
sS'however'
p6
F0.00082169268693508624
sS'but'
p7
F0.003286770747740345
sS'this'
p8
F0.0098603122432210349
sS'must'
p9
F0
sS'type_token_ratio'
p10
F0.80202897834750997
sS'more'
p11
F0
sS'might'
p12
F0
sS'if'
p13
F0.0082169268693508633
s.