(dp1
S'summer'
p2
F0.00082169268693508624
sS'all'
p3
F0.00082169268693508624
sS'responsible'
p4
F0.0016433853738701725
sS'closely'
p5
F0.00082169268693508624
sS'office'
p6
F0.003286770747740345
sS'sentence'
p7
F0.00082169268693508624
sS'copy'
p8
F0.00082169268693508624
sS'both'
p9
F0.0016433853738701725
sS'added'
p10
F0.00082169268693508624
sS'laura'
p11
F0.00082169268693508624
sS'future'
p12
F0.00082169268693508624
sS'manager'
p13
F0.00082169268693508624
sS'however'
p14
F0.00082169268693508624
sS'including'
p15
F0.00082169268693508624
sS'thanks'
p16
F0.0016433853738701725
sS'questions'
p17
F0.00082169268693508624
sS'yes'
p18
F0.0057518488085456041
sS'still'
p19
F0.0016433853738701725
sS'coordination'
p20
F0.00082169268693508624
sS'access'
p21
F0.003286770747740345
sS'some'
p22
F0.0016433853738701725
sS'like'
p23
F0.0024650780608052587
sS'group'
p24
F0.0016433853738701725
sS'thank'
p25
F0.0016433853738701725
sS'la'
p26
F0.00082169268693508624
sS'jin'
p27
F0.00082169268693508624
sS'daily'
p28
F0.00082169268693508624
sS'josh'
p29
F0.00082169268693508624
sS'revise'
p30
F0.00082169268693508624
sS'send'
p31
F0.00082169268693508624
sS'pricing'
p32
F0.00082169268693508624
sS'to'
p33
F0.031224322103533278
sS'book'
p34
F0.0016433853738701725
sS'black'
p35
F0.00082169268693508624
sS'location'
p36
F0.00082169268693508624
sS'pretty'
p37
F0.00082169268693508624
sS'grow'
p38
F0.00082169268693508624
sS'has'
p39
F0.0041084634346754316
sS'sent'
p40
F0.0016433853738701725
sS'chairman'
p41
F0.0016433853738701725
sS'then'
p42
F0.00082169268693508624
sS'them'
p43
F0.0016433853738701725
sS'good'
p44
F0.00082169268693508624
sS'hit'
p45
F0.00082169268693508624
sS'risk'
p46
F0.0041084634346754316
sS'advantage'
p47
F0.00082169268693508624
sS'get'
p48
F0.0024650780608052587
sS'very'
p49
F0.0024650780608052587
sS'liquid'
p50
F0.00082169268693508624
sS'de'
p51
F0.00082169268693508624
sS'regarding'
p52
F0.00082169268693508624
sS'trading'
p53
F0.00082169268693508624
sS'valued'
p54
F0.00082169268693508624
sS'know'
p55
F0.0041084634346754316
sS'if'
p56
F0.0082169268693508633
sS'shared'
p57
F0.0024650780608052587
sS'report'
p58
F0.0016433853738701725
sS'specific'
p59
F0.00082169268693508624
sS'now'
p60
F0.00082169268693508624
sS'exact'
p61
F0.00082169268693508624
sS'look'
p62
F0.0016433853738701725
sS'delete'
p63
F0.00082169268693508624
sS'term'
p64
F0.00082169268693508624
sS'ruth'
p65
F0.0024650780608052587
sS'necessary'
p66
F0.0016433853738701725
sS'name'
p67
F0.00082169268693508624
sS'edit'
p68
F0.00082169268693508624
sS'louis'
p69
F0.00082169268693508624
sS'notes'
p70
F0.0024650780608052587
sS'list'
p71
F0.0016433853738701725
sS'think'
p72
F0.00082169268693508624
sS'leave'
p73
F0.00082169268693508624
sS'these'
p74
F0.0041084634346754316
sS'morris'
p75
F0.00082169268693508624
sS'continue'
p76
F0.0016433853738701725
sS'phase'
p77
F0.00082169268693508624
sS'team'
p78
F0.0016433853738701725
sS'become'
p79
F0.00082169268693508624
sS'security'
p80
F0.00082169268693508624
sS'button'
p81
F0.00082169268693508624
sS'two'
p82
F0.00082169268693508624
sS'consolidate'
p83
F0.00082169268693508624
sS'worldwide'
p84
F0.00082169268693508624
sS'eastern'
p85
F0.0016433853738701725
sS'work'
p86
F0.0016433853738701725
sS'old'
p87
F0.00082169268693508624
sS'pursue'
p88
F0.00082169268693508624
sS'attached'
p89
F0.0016433853738701725
sS'energy'
p90
F0.00082169268693508624
sS'hard'
p91
F0.00082169268693508624
sS'ted'
p92
F0.00082169268693508624
sS'begin'
p93
F0.00082169268693508624
sS'around'
p94
F0.00082169268693508624
sS'identified'
p95
F0.00082169268693508624
sS'past'
p96
F0.00082169268693508624
sS'individual'
p97
F0.00082169268693508624
sS'palm'
p98
F0.00082169268693508624
sS'are'
p99
F0.0049301561216105174
sS'parking'
p100
F0.00082169268693508624
sS'our'
p101
F0.00082169268693508624
sS'calendar'
p102
F0.0016433853738701725
sS'peter'
p103
F0.00082169268693508624
sS'click'
p104
F0.0016433853738701725
sS'sandy'
p105
F0.00082169268693508624
sS'out'
p106
F0.003286770747740345
sS'was'
p107
F0.00082169268693508624
sS'congratulate'
p108
F0.00082169268693508624
sS'what'
p109
F0.003286770747740345
sS'capacity'
p110
F0.00082169268693508624
sS'power'
p111
F0.0024650780608052587
sS'for'
p112
F0.01314708299096138
sS'fact'
p113
F0.00082169268693508624
sS'currently'
p114
F0.0016433853738701725
sS'please'
p115
F0.0057518488085456041
sS'convenience'
p116
F0.00082169268693508624
sS'best'
p117
F0.00082169268693508624
sS'research'
p118
F0.00082169268693508624
sS'current'
p119
F0.0016433853738701725
sS're'
p120
F0.00082169268693508624
sS'does'
p121
F0.00082169268693508624
sS'between'
p122
F0.00082169268693508624
sS'print'
p123
F0.00082169268693508624
sS'reply'
p124
F0.00082169268693508624
sS'told'
p125
F0.00082169268693508624
sS'ass'
p126
F0.00082169268693508624
sS'be'
p127
F0.0049301561216105174
sS'we'
p128
F0.0049301561216105174
sS'full'
p129
F0.00082169268693508624
sS'tomorrow'
p130
F0.00082169268693508624
sS'do'
p131
F0.0065735414954806899
sS'announcement'
p132
F0.00082169268693508624
sS'frank'
p133
F0.003286770747740345
sS'mailings'
p134
F0.00082169268693508624
sS'maintains'
p135
F0.00082169268693508624
sS'given'
p136
F0.00082169268693508624
sS'here'
p137
F0.00082169268693508624
sS'agreement'
p138
F0.00082169268693508624
sS'hours'
p139
F0.00082169268693508624
sS'met'
p140
F0.00082169268693508624
sS'job'
p141
F0.00082169268693508624
sS'jo'
p142
F0.00082169268693508624
sS'let'
p143
F0.0016433853738701725
sS'groups'
p144
F0.0041084634346754316
sS'address'
p145
F0.0016433853738701725
sS'put'
p146
F0.0016433853738701725
sS'sheet'
p147
F0.00082169268693508624
sS'includes'
p148
F0.00082169268693508624
sS'come'
p149
F0.00082169268693508624
sS'by'
p150
F0.003286770747740345
sS'change'
p151
F0.00082169268693508624
sS'kitchen'
p152
F0.00082169268693508624
sS'suggested'
p153
F0.00082169268693508624
sS'on'
p154
F0.0090386195562859491
sS'about'
p155
F0.00082169268693508624
sS'last'
p156
F0.0024650780608052587
sS'extension'
p157
F0.00082169268693508624
sS'minutes'
p158
F0.00082169268693508624
sS'could'
p159
F0.0016433853738701725
sS'economics'
p160
F0.00082169268693508624
sS'completely'
p161
F0.00082169268693508624
sS'experience'
p162
F0.00082169268693508624
sS'later'
p163
F0.00082169268693508624
sS'prior'
p164
F0.00082169268693508624
sS'ensure'
p165
F0.00082169268693508624
sS'afternoon'
p166
F0.0016433853738701725
sS'shortages'
p167
F0.00082169268693508624
sS'brad'
p168
F0.0024650780608052587
sS'efforts'
p169
F0.00082169268693508624
sS'retail'
p170
F0.00082169268693508624
sS'changes'
p171
F0.0016433853738701725
sS'new'
p172
F0.0016433853738701725
sS'automatically'
p173
F0.00082169268693508624
sS'plan'
p174
F0.00082169268693508624
sS'logistics'
p175
F0.00082169268693508624
sS'outlook'
p176
F0.003286770747740345
sS'own'
p177
F0.00082169268693508624
sS'formerly'
p178
F0.00082169268693508624
sS'point'
p179
F0.0024650780608052587
sS'effective'
p180
F0.00082169268693508624
sS'lending'
p181
F0.00082169268693508624
sS'manage'
p182
F0.0024650780608052587
sS'while'
p183
F0.00082169268693508624
sS'vacation'
p184
F0.00082169268693508624
sS'services'
p185
F0.00082169268693508624
sS'simply'
p186
F0.00082169268693508624
sS'long'
p187
F0.00082169268693508624
sS'refined'
p188
F0.00082169268693508624
sS'mark'
p189
F0.0024650780608052587
sS'letterhead'
p190
F0.00082169268693508624
sS'your'
p191
F0.0082169268693508633
sS'market'
p192
F0.0016433853738701725
sS'use'
p193
F0.00082169268693508624
sS'management'
p194
F0.0024650780608052587
sS'from'
p195
F0.003286770747740345
sS'forwarded'
p196
F0.0024650780608052587
sS'would'
p197
F0.0041084634346754316
sS'marc'
p198
F0.00082169268693508624
sS'addition'
p199
F0.00082169268693508624
sS'unknown'
p200
F0.00082169268693508624
sS'there'
p201
F0.00082169268693508624
sS'they'
p202
F0.003286770747740345
sS'shelly'
p203
F0.00082169268693508624
sS'been'
p204
F0.0016433853738701725
sS'next'
p205
F0.00082169268693508624
sS'anyone'
p206
F0.0024650780608052587
sS'few'
p207
F0.00082169268693508624
sS'or'
p208
F0.00082169268693508624
sS'going'
p209
F0.00082169268693508624
sS'growth'
p210
F0.00082169268693508624
sS'therefore'
p211
F0.00082169268693508624
sS'time'
p212
F0.00082169268693508624
sS'forward'
p213
F0.00082169268693508624
sS'call'
p214
F0.00082169268693508624
sS'jack'
p215
F0.00082169268693508624
sS'john'
p216
F0.0090386195562859491
sS'type'
p217
F0.0016433853738701725
sS'systems'
p218
F0.00082169268693508624
sS'function'
p219
F0.0024650780608052587
sS'little'
p220
F0.00082169268693508624
sS'mike'
p221
F0.00082169268693508624
sS'buy'
p222
F0.00082169268693508624
sS'north'
p223
F0.00082169268693508624
sS'form'
p224
F0.00082169268693508624
sS'that'
p225
F0.0082169268693508633
sS'successful'
p226
F0.00082169268693508624
sS'mind'
p227
F0.00082169268693508624
sS'completed'
p228
F0.00082169268693508624
sS'apparent'
p229
F0.00082169268693508624
sS'gas'
p230
F0.003286770747740345
sS'but'
p231
F0.003286770747740345
sS'else'
p232
F0.00082169268693508624
sS'present'
p233
F0.00082169268693508624
sS'ensuring'
p234
F0.00082169268693508624
sS'link'
p235
F0.00082169268693508624
sS'western'
p236
F0.00082169268693508624
sS'station'
p237
F0.00082169268693508624
sS'probably'
p238
F0.00082169268693508624
sS'worked'
p239
F0.00082169268693508624
sS'an'
p240
F0.0016433853738701725
sS'with'
p241
F0.0098603122432210349
sS'document'
p242
F0.00082169268693508624
sS'updating'
p243
F0.0016433853738701725
sS'me'
p244
F0.003286770747740345
sS'none'
p245
F0.0016433853738701725
sS'main'
p246
F0.00082169268693508624
sS'rogers'
p247
F0.0024650780608052587
sS'since'
p248
F0.00082169268693508624
sS'this'
p249
F0.0098603122432210349
sS'double'
p250
F0.00082169268693508624
sS'inside'
p251
F0.00082169268693508624
sS'bill'
p252
F0.00082169268693508624
sS'mi'
p253
F0.00082169268693508624
sS'measures'
p254
F0.00082169268693508624
sS'will'
p255
F0.010682004930156122
sS'near'
p256
F0.00082169268693508624
sS'computer'
p257
F0.00082169268693508624
sS'can'
p258
F0.00082169268693508624
sS'of'
p259
F0.0082169268693508633
sS'site'
p260
F0.0024650780608052587
sS'meet'
p261
F0.00082169268693508624
sS'distribution'
p262
F0.00082169268693508624
sS'my'
p263
F0.0024650780608052587
sS'robin'
p264
F0.0016433853738701725
sS'history'
p265
F0.00082169268693508624
sS'and'
p266
F0.01972062448644207
sS'changed'
p267
F0.00082169268693508624
sS'want'
p268
F0.00082169268693508624
sS'close'
p269
F0.00082169268693508624
sS'invigorating'
p270
F0.00082169268693508624
sS'is'
p271
F0.0065735414954806899
sS'am'
p272
F0.0024650780608052587
sS'it'
p273
F0.0057518488085456041
sS'ids'
p274
F0.00082169268693508624
sS'expertise'
p275
F0.00082169268693508624
sS'at'
p276
F0.0049301561216105174
sS'have'
p277
F0.011503697617091208
sS'in'
p278
F0.010682004930156122
sS'need'
p279
F0.0024650780608052587
sS'tam'
p280
F0.00082169268693508624
sS'regards'
p281
F0.00082169268693508624
sS'any'
p282
F0.0024650780608052587
sS'fill'
p283
F0.00082169268693508624
sS'information'
p284
F0.00082169268693508624
sS'functions'
p285
F0.00082169268693508624
sS'comfortable'
p286
F0.00082169268693508624
sS'winter'
p287
F0.00082169268693508624
sS'no'
p288
F0.0057518488085456041
sS'provide'
p289
F0.0024650780608052587
sS'index'
p290
F0.00082169268693508624
sS'permission'
p291
F0.0016433853738701725
sS'when'
p292
F0.0024650780608052587
sS'detail'
p293
F0.00082169268693508624
sS'id'
p294
F0.003286770747740345
sS'also'
p295
F0.00082169268693508624
sS'other'
p296
F0.00082169268693508624
sS'take'
p297
F0.0024650780608052587
sS'which'
p298
F0.00082169268693508624
sS'meeting'
p299
F0.00082169268693508624
sS'announcements'
p300
F0.00082169268693508624
sS'you'
p301
F0.016433853738701727
sS'really'
p302
F0.00082169268693508624
sS'finis'
p303
F0.00082169268693508624
sS'resources'
p304
F0.00082169268693508624
sS'dated'
p305
F0.00082169268693508624
sS'lance'
p306
F0.00082169268693508624
sS'criteria'
p307
F0.00082169268693508624
sS'plant'
p308
F0.00082169268693508624
sS'formed'
p309
F0.00082169268693508624
sS'normal'
p310
F0.00082169268693508624
sS'may'
p311
F0.00082169268693508624
sS'who'
p312
F0.003286770747740345
sS'update'
p313
F0.00082169268693508624
sS'victoria'
p314
F0.00082169268693508624
sS'applications'
p315
F0.00082169268693508624
sS'user'
p316
F0.0016433853738701725
sS'letter'
p317
F0.0024650780608052587
sS'date'
p318
F0.00082169268693508624
sS'kay'
p319
F0.00082169268693508624
sS'beth'
p320
F0.00082169268693508624
sS'data'
p321
F0.00082169268693508624
sS'needed'
p322
F0.00082169268693508624
sS'maria'
p323
F0.00082169268693508624
sS'don'
p324
F0.0024650780608052587
sS'commodity'
p325
F0.00082169268693508624
sS'vice'
p326
F0.0016433853738701725
sS'gather'
p327
F0.00082169268693508624
sS'appreciate'
p328
F0.00082169268693508624
sS'together'
p329
F0.00082169268693508624
sS'asked'
p330
F0.0024650780608052587
sS'their'
p331
F0.00082169268693508624
sS'rough'
p332
F0.00082169268693508624
sS'sh'
p333
F0.00082169268693508624
sS'so'
p334
F0.0024650780608052587
sS'nelson'
p335
F0.0016433853738701725
sS'enter'
p336
F0.00082169268693508624
sS'wholesale'
p337
F0.0024650780608052587
sS'the'
p338
F0.027937551355792935
sS'starting'
p339
F0.00082169268693508624
sS'liquidity'
p340
F0.00082169268693508624
sS'talk'
p341
F0.00082169268693508624
sS'goals'
p342
F0.00082169268693508624
s.