(dp1
S'summer'
p2
F0.0029325513196480938
sS'all'
p3
F0.0029325513196480938
sS'responsible'
p4
F0.0058651026392961877
sS'closely'
p5
F0.0029325513196480938
sS'office'
p6
F0.011730205278592375
sS'sentence'
p7
F0.0029325513196480938
sS'copy'
p8
F0.0029325513196480938
sS'both'
p9
F0.0058651026392961877
sS'added'
p10
F0.0029325513196480938
sS'laura'
p11
F0.0029325513196480938
sS'future'
p12
F0.0029325513196480938
sS'manager'
p13
F0.0029325513196480938
sS'however'
p14
F0.0029325513196480938
sS'including'
p15
F0.0029325513196480938
sS'thanks'
p16
F0.0058651026392961877
sS'questions'
p17
F0.0029325513196480938
sS'yes'
p18
F0.020527859237536656
sS'still'
p19
F0.0058651026392961877
sS'coordination'
p20
F0.0029325513196480938
sS'access'
p21
F0.011730205278592375
sS'some'
p22
F0.0058651026392961877
sS'like'
p23
F0.0087976539589442824
sS'group'
p24
F0.0058651026392961877
sS'thank'
p25
F0.0058651026392961877
sS'la'
p26
F0.0029325513196480938
sS'jin'
p27
F0.0029325513196480938
sS'daily'
p28
F0.0029325513196480938
sS'josh'
p29
F0.0029325513196480938
sS'revise'
p30
F0.0029325513196480938
sS'send'
p31
F0.0029325513196480938
sS'pricing'
p32
F0.0029325513196480938
sS'to'
p33
F0.11143695014662756
sS'book'
p34
F0.0058651026392961877
sS'black'
p35
F0.0029325513196480938
sS'location'
p36
F0.0029325513196480938
sS'pretty'
p37
F0.0029325513196480938
sS'grow'
p38
F0.0029325513196480938
sS'has'
p39
F0.01466275659824047
sS'sent'
p40
F0.0058651026392961877
sS'chairman'
p41
F0.0058651026392961877
sS'then'
p42
F0.0029325513196480938
sS'them'
p43
F0.0058651026392961877
sS'good'
p44
F0.0029325513196480938
sS'hit'
p45
F0.0029325513196480938
sS'risk'
p46
F0.01466275659824047
sS'advantage'
p47
F0.0029325513196480938
sS'get'
p48
F0.0087976539589442824
sS'very'
p49
F0.0087976539589442824
sS'liquid'
p50
F0.0029325513196480938
sS'de'
p51
F0.0029325513196480938
sS'regarding'
p52
F0.0029325513196480938
sS'trading'
p53
F0.0029325513196480938
sS'valued'
p54
F0.0029325513196480938
sS'know'
p55
F0.01466275659824047
sS'if'
p56
F0.02932551319648094
sS'shared'
p57
F0.0087976539589442824
sS'report'
p58
F0.0058651026392961877
sS'specific'
p59
F0.0029325513196480938
sS'now'
p60
F0.0029325513196480938
sS'exact'
p61
F0.0029325513196480938
sS'look'
p62
F0.0058651026392961877
sS'delete'
p63
F0.0029325513196480938
sS'term'
p64
F0.0029325513196480938
sS'ruth'
p65
F0.0087976539589442824
sS'necessary'
p66
F0.0058651026392961877
sS'name'
p67
F0.0029325513196480938
sS'edit'
p68
F0.0029325513196480938
sS'louis'
p69
F0.0029325513196480938
sS'notes'
p70
F0.0087976539589442824
sS'list'
p71
F0.0058651026392961877
sS'think'
p72
F0.0029325513196480938
sS'leave'
p73
F0.0029325513196480938
sS'these'
p74
F0.01466275659824047
sS'morris'
p75
F0.0029325513196480938
sS'continue'
p76
F0.0058651026392961877
sS'phase'
p77
F0.0029325513196480938
sS'team'
p78
F0.0058651026392961877
sS'become'
p79
F0.0029325513196480938
sS'security'
p80
F0.0029325513196480938
sS'button'
p81
F0.0029325513196480938
sS'two'
p82
F0.0029325513196480938
sS'consolidate'
p83
F0.0029325513196480938
sS'worldwide'
p84
F0.0029325513196480938
sS'eastern'
p85
F0.0058651026392961877
sS'work'
p86
F0.0058651026392961877
sS'old'
p87
F0.0029325513196480938
sS'pursue'
p88
F0.0029325513196480938
sS'attached'
p89
F0.0058651026392961877
sS'energy'
p90
F0.0029325513196480938
sS'hard'
p91
F0.0029325513196480938
sS'ted'
p92
F0.0029325513196480938
sS'begin'
p93
F0.0029325513196480938
sS'around'
p94
F0.0029325513196480938
sS'identified'
p95
F0.0029325513196480938
sS'past'
p96
F0.0029325513196480938
sS'individual'
p97
F0.0029325513196480938
sS'palm'
p98
F0.0029325513196480938
sS'are'
p99
F0.017595307917888565
sS'parking'
p100
F0.0029325513196480938
sS'our'
p101
F0.0029325513196480938
sS'calendar'
p102
F0.0058651026392961877
sS'peter'
p103
F0.0029325513196480938
sS'click'
p104
F0.0058651026392961877
sS'sandy'
p105
F0.0029325513196480938
sS'out'
p106
F0.011730205278592375
sS'was'
p107
F0.0029325513196480938
sS'congratulate'
p108
F0.0029325513196480938
sS'what'
p109
F0.011730205278592375
sS'capacity'
p110
F0.0029325513196480938
sS'power'
p111
F0.0087976539589442824
sS'for'
p112
F0.046920821114369501
sS'fact'
p113
F0.0029325513196480938
sS'currently'
p114
F0.0058651026392961877
sS'please'
p115
F0.020527859237536656
sS'convenience'
p116
F0.0029325513196480938
sS'best'
p117
F0.0029325513196480938
sS'research'
p118
F0.0029325513196480938
sS'current'
p119
F0.0058651026392961877
sS're'
p120
F0.0029325513196480938
sS'does'
p121
F0.0029325513196480938
sS'between'
p122
F0.0029325513196480938
sS'print'
p123
F0.0029325513196480938
sS'reply'
p124
F0.0029325513196480938
sS'told'
p125
F0.0029325513196480938
sS'ass'
p126
F0.0029325513196480938
sS'be'
p127
F0.017595307917888565
sS'we'
p128
F0.017595307917888565
sS'full'
p129
F0.0029325513196480938
sS'tomorrow'
p130
F0.0029325513196480938
sS'do'
p131
F0.023460410557184751
sS'announcement'
p132
F0.0029325513196480938
sS'frank'
p133
F0.011730205278592375
sS'mailings'
p134
F0.0029325513196480938
sS'maintains'
p135
F0.0029325513196480938
sS'given'
p136
F0.0029325513196480938
sS'here'
p137
F0.0029325513196480938
sS'agreement'
p138
F0.0029325513196480938
sS'hours'
p139
F0.0029325513196480938
sS'met'
p140
F0.0029325513196480938
sS'job'
p141
F0.0029325513196480938
sS'jo'
p142
F0.0029325513196480938
sS'let'
p143
F0.0058651026392961877
sS'groups'
p144
F0.01466275659824047
sS'address'
p145
F0.0058651026392961877
sS'put'
p146
F0.0058651026392961877
sS'sheet'
p147
F0.0029325513196480938
sS'includes'
p148
F0.0029325513196480938
sS'come'
p149
F0.0029325513196480938
sS'by'
p150
F0.011730205278592375
sS'change'
p151
F0.0029325513196480938
sS'kitchen'
p152
F0.0029325513196480938
sS'suggested'
p153
F0.0029325513196480938
sS'on'
p154
F0.032258064516129031
sS'about'
p155
F0.0029325513196480938
sS'last'
p156
F0.0087976539589442824
sS'extension'
p157
F0.0029325513196480938
sS'minutes'
p158
F0.0029325513196480938
sS'could'
p159
F0.0058651026392961877
sS'economics'
p160
F0.0029325513196480938
sS'completely'
p161
F0.0029325513196480938
sS'experience'
p162
F0.0029325513196480938
sS'later'
p163
F0.0029325513196480938
sS'prior'
p164
F0.0029325513196480938
sS'ensure'
p165
F0.0029325513196480938
sS'afternoon'
p166
F0.0058651026392961877
sS'shortages'
p167
F0.0029325513196480938
sS'brad'
p168
F0.0087976539589442824
sS'efforts'
p169
F0.0029325513196480938
sS'retail'
p170
F0.0029325513196480938
sS'changes'
p171
F0.0058651026392961877
sS'new'
p172
F0.0058651026392961877
sS'automatically'
p173
F0.0029325513196480938
sS'plan'
p174
F0.0029325513196480938
sS'logistics'
p175
F0.0029325513196480938
sS'outlook'
p176
F0.011730205278592375
sS'own'
p177
F0.0029325513196480938
sS'formerly'
p178
F0.0029325513196480938
sS'point'
p179
F0.0087976539589442824
sS'effective'
p180
F0.0029325513196480938
sS'lending'
p181
F0.0029325513196480938
sS'manage'
p182
F0.0087976539589442824
sS'while'
p183
F0.0029325513196480938
sS'vacation'
p184
F0.0029325513196480938
sS'services'
p185
F0.0029325513196480938
sS'simply'
p186
F0.0029325513196480938
sS'long'
p187
F0.0029325513196480938
sS'refined'
p188
F0.0029325513196480938
sS'mark'
p189
F0.0087976539589442824
sS'letterhead'
p190
F0.0029325513196480938
sS'your'
p191
F0.02932551319648094
sS'market'
p192
F0.0058651026392961877
sS'use'
p193
F0.0029325513196480938
sS'management'
p194
F0.0087976539589442824
sS'from'
p195
F0.011730205278592375
sS'forwarded'
p196
F0.0087976539589442824
sS'would'
p197
F0.01466275659824047
sS'marc'
p198
F0.0029325513196480938
sS'addition'
p199
F0.0029325513196480938
sS'unknown'
p200
F0.0029325513196480938
sS'there'
p201
F0.0029325513196480938
sS'they'
p202
F0.011730205278592375
sS'shelly'
p203
F0.0029325513196480938
sS'been'
p204
F0.0058651026392961877
sS'next'
p205
F0.0029325513196480938
sS'anyone'
p206
F0.0087976539589442824
sS'few'
p207
F0.0029325513196480938
sS'or'
p208
F0.0029325513196480938
sS'going'
p209
F0.0029325513196480938
sS'growth'
p210
F0.0029325513196480938
sS'therefore'
p211
F0.0029325513196480938
sS'time'
p212
F0.0029325513196480938
sS'forward'
p213
F0.0029325513196480938
sS'call'
p214
F0.0029325513196480938
sS'jack'
p215
F0.0029325513196480938
sS'john'
p216
F0.032258064516129031
sS'type'
p217
F0.0058651026392961877
sS'systems'
p218
F0.0029325513196480938
sS'function'
p219
F0.0087976539589442824
sS'little'
p220
F0.0029325513196480938
sS'mike'
p221
F0.0029325513196480938
sS'buy'
p222
F0.0029325513196480938
sS'north'
p223
F0.0029325513196480938
sS'form'
p224
F0.0029325513196480938
sS'that'
p225
F0.02932551319648094
sS'successful'
p226
F0.0029325513196480938
sS'mind'
p227
F0.0029325513196480938
sS'completed'
p228
F0.0029325513196480938
sS'apparent'
p229
F0.0029325513196480938
sS'gas'
p230
F0.011730205278592375
sS'but'
p231
F0.011730205278592375
sS'else'
p232
F0.0029325513196480938
sS'present'
p233
F0.0029325513196480938
sS'ensuring'
p234
F0.0029325513196480938
sS'link'
p235
F0.0029325513196480938
sS'western'
p236
F0.0029325513196480938
sS'station'
p237
F0.0029325513196480938
sS'probably'
p238
F0.0029325513196480938
sS'worked'
p239
F0.0029325513196480938
sS'an'
p240
F0.0058651026392961877
sS'with'
p241
F0.03519061583577713
sS'document'
p242
F0.0029325513196480938
sS'updating'
p243
F0.0058651026392961877
sS'me'
p244
F0.011730205278592375
sS'none'
p245
F0.0058651026392961877
sS'main'
p246
F0.0029325513196480938
sS'rogers'
p247
F0.0087976539589442824
sS'since'
p248
F0.0029325513196480938
sS'this'
p249
F0.03519061583577713
sS'double'
p250
F0.0029325513196480938
sS'inside'
p251
F0.0029325513196480938
sS'bill'
p252
F0.0029325513196480938
sS'mi'
p253
F0.0029325513196480938
sS'measures'
p254
F0.0029325513196480938
sS'will'
p255
F0.038123167155425221
sS'near'
p256
F0.0029325513196480938
sS'computer'
p257
F0.0029325513196480938
sS'can'
p258
F0.0029325513196480938
sS'of'
p259
F0.02932551319648094
sS'site'
p260
F0.0087976539589442824
sS'meet'
p261
F0.0029325513196480938
sS'distribution'
p262
F0.0029325513196480938
sS'my'
p263
F0.0087976539589442824
sS'robin'
p264
F0.0058651026392961877
sS'history'
p265
F0.0029325513196480938
sS'and'
p266
F0.070381231671554259
sS'changed'
p267
F0.0029325513196480938
sS'want'
p268
F0.0029325513196480938
sS'close'
p269
F0.0029325513196480938
sS'invigorating'
p270
F0.0029325513196480938
sS'is'
p271
F0.023460410557184751
sS'am'
p272
F0.0087976539589442824
sS'it'
p273
F0.020527859237536656
sS'ids'
p274
F0.0029325513196480938
sS'expertise'
p275
F0.0029325513196480938
sS'at'
p276
F0.017595307917888565
sS'have'
p277
F0.041055718475073312
sS'in'
p278
F0.038123167155425221
sS'need'
p279
F0.0087976539589442824
sS'tam'
p280
F0.0029325513196480938
sS'regards'
p281
F0.0029325513196480938
sS'any'
p282
F0.0087976539589442824
sS'fill'
p283
F0.0029325513196480938
sS'information'
p284
F0.0029325513196480938
sS'functions'
p285
F0.0029325513196480938
sS'comfortable'
p286
F0.0029325513196480938
sS'winter'
p287
F0.0029325513196480938
sS'no'
p288
F0.020527859237536656
sS'provide'
p289
F0.0087976539589442824
sS'index'
p290
F0.0029325513196480938
sS'permission'
p291
F0.0058651026392961877
sS'when'
p292
F0.0087976539589442824
sS'detail'
p293
F0.0029325513196480938
sS'id'
p294
F0.011730205278592375
sS'also'
p295
F0.0029325513196480938
sS'other'
p296
F0.0029325513196480938
sS'take'
p297
F0.0087976539589442824
sS'which'
p298
F0.0029325513196480938
sS'meeting'
p299
F0.0029325513196480938
sS'announcements'
p300
F0.0029325513196480938
sS'you'
p301
F0.05865102639296188
sS'really'
p302
F0.0029325513196480938
sS'finis'
p303
F0.0029325513196480938
sS'resources'
p304
F0.0029325513196480938
sS'dated'
p305
F0.0029325513196480938
sS'lance'
p306
F0.0029325513196480938
sS'criteria'
p307
F0.0029325513196480938
sS'plant'
p308
F0.0029325513196480938
sS'formed'
p309
F0.0029325513196480938
sS'normal'
p310
F0.0029325513196480938
sS'may'
p311
F0.0029325513196480938
sS'who'
p312
F0.011730205278592375
sS'update'
p313
F0.0029325513196480938
sS'victoria'
p314
F0.0029325513196480938
sS'applications'
p315
F0.0029325513196480938
sS'user'
p316
F0.0058651026392961877
sS'letter'
p317
F0.0087976539589442824
sS'date'
p318
F0.0029325513196480938
sS'kay'
p319
F0.0029325513196480938
sS'beth'
p320
F0.0029325513196480938
sS'data'
p321
F0.0029325513196480938
sS'needed'
p322
F0.0029325513196480938
sS'maria'
p323
F0.0029325513196480938
sS'don'
p324
F0.0087976539589442824
sS'commodity'
p325
F0.0029325513196480938
sS'vice'
p326
F0.0058651026392961877
sS'gather'
p327
F0.0029325513196480938
sS'appreciate'
p328
F0.0029325513196480938
sS'together'
p329
F0.0029325513196480938
sS'asked'
p330
F0.0087976539589442824
sS'their'
p331
F0.0029325513196480938
sS'rough'
p332
F0.0029325513196480938
sS'sh'
p333
F0.0029325513196480938
sS'so'
p334
F0.0087976539589442824
sS'nelson'
p335
F0.0058651026392961877
sS'enter'
p336
F0.0029325513196480938
sS'wholesale'
p337
F0.0087976539589442824
sS'the'
p338
F0.099706744868035185
sS'starting'
p339
F0.0029325513196480938
sS'liquidity'
p340
F0.0029325513196480938
sS'talk'
p341
F0.0029325513196480938
sS'goals'
p342
F0.0029325513196480938
s.