(dp1
S'and'
p2
F0.022093634928984744
sS'that'
p3
F0.010520778537611783
sS'this'
p4
F0.011572856391372961
sS'mean_word_length'
p5
F4.4347826086956523
sS'sentence_standard_deviation'
p6
F42.749503613160208
sS'however'
p7
F0.00052603892688058915
sS'but'
p8
F0.0052603892688058915
sS'very'
p9
F0.0010520778537611783
sS'must'
p10
F0
sS'type_token_ratio'
p11
F0.802249804977615
sS'more'
p12
F0
sS'might'
p13
F0.0010520778537611783
sS'mean_sentence_length'
p14
F31.761538461538461
sS'if'
p15
F0.0026301946344029457
s.