(dp1
S'all'
p2
F0.015945330296127564
sS'hooks'
p3
F0.0022779043280182231
sS'existing'
p4
F0.0045558086560364463
sS'go'
p5
F0.0068337129840546698
sS'settlement'
p6
F0.0022779043280182231
sS'hate'
p7
F0.0022779043280182231
sS'issues'
p8
F0.0022779043280182231
sS'opportunities'
p9
F0.0045558086560364463
sS'to'
p10
F0.15034168564920272
sS'sent'
p11
F0.0091116173120728925
sS'brown'
p12
F0.0022779043280182231
sS'very'
p13
F0.0045558086560364463
sS'rise'
p14
F0.0022779043280182231
sS'congratulating'
p15
F0.0045558086560364463
sS'centralized'
p16
F0.0022779043280182231
sS'decide'
p17
F0.0022779043280182231
sS'telling'
p18
F0.0022779043280182231
sS'bringing'
p19
F0.0022779043280182231
sS'minute'
p20
F0.0022779043280182231
sS'announcing'
p21
F0.0045558086560364463
sS'did'
p22
F0.0068337129840546698
sS'positions'
p23
F0.0022779043280182231
sS'wednesday'
p24
F0.011389521640091117
sS'try'
p25
F0.0022779043280182231
sS'quick'
p26
F0.0022779043280182231
sS'guy'
p27
F0.0022779043280182231
sS'talked'
p28
F0.0022779043280182231
sS'says'
p29
F0.0022779043280182231
sS'core'
p30
F0.0045558086560364463
sS'miller'
p31
F0.0045558086560364463
sS'rate'
p32
F0.0022779043280182231
sS'investment'
p33
F0.027334851936218679
sS'established'
p34
F0.0022779043280182231
sS'sue'
p35
F0.0022779043280182231
sS'power'
p36
F0.0068337129840546698
sS'investing'
p37
F0.0045558086560364463
sS'piper'
p38
F0.0022779043280182231
sS'find'
p39
F0.0045558086560364463
sS'capital'
p40
F0.0045558086560364463
sS'new'
p41
F0.01366742596810934
sS'net'
p42
F0.0022779043280182231
sS'consisting'
p43
F0.0022779043280182231
sS'drafted'
p44
F0.0022779043280182231
sS'never'
p45
F0.0022779043280182231
sS'drew'
p46
F0.0022779043280182231
sS'let'
p47
F0.0045558086560364463
sS'groups'
p48
F0.0045558086560364463
sS'represented'
p49
F0.0022779043280182231
sS'change'
p50
F0.0045558086560364463
sS'great'
p51
F0.0022779043280182231
sS'distressed'
p52
F0.0045558086560364463
sS'whine'
p53
F0.0022779043280182231
sS'reports'
p54
F0.0022779043280182231
sS'credit'
p55
F0.0022779043280182231
sS'suggestion'
p56
F0.0022779043280182231
sS'bob'
p57
F0.0022779043280182231
sS'gene'
p58
F0.01366742596810934
sS'manage'
p59
F0.0091116173120728925
sS'private'
p60
F0.0045558086560364463
sS'unit'
p61
F0.01366742596810934
sS'from'
p62
F0.03644646924829157
sS'would'
p63
F0.022779043280182234
sS'next'
p64
F0.0091116173120728925
sS'few'
p65
F0.0045558086560364463
sS'going'
p66
F0.0022779043280182231
sS'call'
p67
F0.01366742596810934
sS'asset'
p68
F0.0022779043280182231
sS'until'
p69
F0.0045558086560364463
sS'faith'
p70
F0.0022779043280182231
sS'company'
p71
F0.0022779043280182231
sS'equity'
p72
F0.022779043280182234
sS'carrying'
p73
F0.0068337129840546698
sS'everywhere'
p74
F0.0045558086560364463
sS'me'
p75
F0.018223234624145785
sS'join'
p76
F0.0091116173120728925
sS'hour'
p77
F0.0091116173120728925
sS'this'
p78
F0.05011389521640091
sS'work'
p79
F0.011389521640091117
sS'can'
p80
F0.0068337129840546698
sS'concepts'
p81
F0.0022779043280182231
sS'meet'
p82
F0.0091116173120728925
sS'my'
p83
F0.011389521640091117
sS'crazy'
p84
F0.0022779043280182231
sS'proprietary'
p85
F0.0045558086560364463
sS'heard'
p86
F0.0045558086560364463
sS'numbers'
p87
F0.0022779043280182231
sS'want'
p88
F0.0045558086560364463
sS'keep'
p89
F0.0022779043280182231
sS'absolute'
p90
F0.0022779043280182231
sS'arrangement'
p91
F0.0022779043280182231
sS'how'
p92
F0.0068337129840546698
sS'plant'
p93
F0.0022779043280182231
sS'tried'
p94
F0.0022779043280182231
sS'may'
p95
F0.022779043280182234
sS'spot'
p96
F0.0045558086560364463
sS'mae'
p97
F0.0022779043280182231
sS'date'
p98
F0.0022779043280182231
sS'guys'
p99
F0.0022779043280182231
sS'purchase'
p100
F0.0022779043280182231
sS'burns'
p101
F0.0022779043280182231
sS'short'
p102
F0.0022779043280182231
sS'remember'
p103
F0.0022779043280182231
sS'maybe'
p104
F0.0022779043280182231
sS'inform'
p105
F0.0022779043280182231
sS'fundamental'
p106
F0.0022779043280182231
sS'order'
p107
F0.0022779043280182231
sS'talk'
p108
F0.0045558086560364463
sS'help'
p109
F0.0022779043280182231
sS'office'
p110
F0.0045558086560364463
sS'over'
p111
F0.0045558086560364463
sS'move'
p112
F0.0022779043280182231
sS'trade'
p113
F0.0022779043280182231
sS'through'
p114
F0.0045558086560364463
sS'committee'
p115
F0.0068337129840546698
sS'mentioned'
p116
F0.0022779043280182231
sS'its'
p117
F0.0045558086560364463
sS'group'
p118
F0.022779043280182234
sS'better'
p119
F0.0068337129840546698
sS'policy'
p120
F0.0045558086560364463
sS'mail'
p121
F0.0022779043280182231
sS'might'
p122
F0.0045558086560364463
sS'setting'
p123
F0.0022779043280182231
sS'them'
p124
F0.0022779043280182231
sS'someone'
p125
F0.0022779043280182231
sS'similar'
p126
F0.0022779043280182231
sS'lunch'
p127
F0.0022779043280182231
sS'they'
p128
F0.0045558086560364463
sS'not'
p129
F0.0068337129840546698
sS'now'
p130
F0.0022779043280182231
sS'discuss'
p131
F0.0022779043280182231
sS'execute'
p132
F0.0045558086560364463
sS'name'
p133
F0.0022779043280182231
sS'each'
p134
F0.0045558086560364463
sS'found'
p135
F0.0022779043280182231
sS'went'
p136
F0.0022779043280182231
sS'side'
p137
F0.0022779043280182231
sS'development'
p138
F0.0045558086560364463
sS'whim'
p139
F0.0045558086560364463
sS'generation'
p140
F0.0022779043280182231
sS'hard'
p141
F0.0022779043280182231
sS'related'
p142
F0.0045558086560364463
sS'our'
p143
F0.011389521640091117
sS'out'
p144
F0.01366742596810934
sS'large'
p145
F0.0022779043280182231
sS'ultimately'
p146
F0.0022779043280182231
sS'fundamentally'
p147
F0.0022779043280182231
sS'wondered'
p148
F0.0022779043280182231
sS'since'
p149
F0.0045558086560364463
sS're'
p150
F0.0045558086560364463
sS'resume'
p151
F0.0022779043280182231
sS'little'
p152
F0.0022779043280182231
sS'small'
p153
F0.0022779043280182231
sS'formation'
p154
F0.0045558086560364463
sS'members'
p155
F0.0045558086560364463
sS'regulatory'
p156
F0.0022779043280182231
sS'wanted'
p157
F0.0022779043280182231
sS'could'
p158
F0.011389521640091117
sS'times'
p159
F0.0022779043280182231
sS'think'
p160
F0.0068337129840546698
sS'industrial'
p161
F0.0022779043280182231
sS'number'
p162
F0.0091116173120728925
sS'one'
p163
F0.020501138952164009
sS'sounds'
p164
F0.0068337129840546698
sS'open'
p165
F0.0045558086560364463
sS'given'
p166
F0.0022779043280182231
sS'necessarily'
p167
F0.0022779043280182231
sS'heads'
p168
F0.0022779043280182231
sS'leverage'
p169
F0.0045558086560364463
sS'least'
p170
F0.0045558086560364463
sS'their'
p171
F0.0068337129840546698
sS'draft'
p172
F0.0091116173120728925
sS'john'
p173
F0.022779043280182234
sS'lot'
p174
F0.0022779043280182231
sS'relationship'
p175
F0.0022779043280182231
sS'that'
p176
F0.045558086560364468
sS'serve'
p177
F0.0045558086560364463
sS'part'
p178
F0.0068337129840546698
sS'focusing'
p179
F0.0022779043280182231
sS'believe'
p180
F0.0045558086560364463
sS'wide'
p181
F0.0068337129840546698
sS'showed'
p182
F0.0022779043280182231
sS'supposed'
p183
F0.0022779043280182231
sS'venture'
p184
F0.0045558086560364463
sS'were'
p185
F0.0022779043280182231
sS'skilling'
p186
F0.0045558086560364463
sS'and'
p187
F0.095671981776765377
sS'dash'
p188
F0.0022779043280182231
sS'have'
p189
F0.034168564920273349
sS'need'
p190
F0.0022779043280182231
sS'any'
p191
F0.01366742596810934
sS'sell'
p192
F0.0022779043280182231
sS'responsible'
p193
F0.0022779043280182231
sS'also'
p194
F0.015945330296127564
sS'which'
p195
F0.0068337129840546698
sS'subject'
p196
F0.031890660592255128
sS'sure'
p197
F0.0022779043280182231
sS'though'
p198
F0.0045558086560364463
sS'price'
p199
F0.0068337129840546698
sS'what'
p200
F0.0068337129840546698
sS'paid'
p201
F0.0022779043280182231
sS'tammie'
p202
F0.0022779043280182231
sS'overlapping'
p203
F0.0022779043280182231
sS'capacity'
p204
F0.0045558086560364463
sS'extremely'
p205
F0.0022779043280182231
sS'payment'
p206
F0.0022779043280182231
sS'mobile'
p207
F0.0068337129840546698
sS'sale'
p208
F0.0022779043280182231
sS'looked'
p209
F0.0022779043280182231
sS'graphs'
p210
F0.0022779043280182231
sS'regards'
p211
F0.0022779043280182231
sS'fowler'
p212
F0.0022779043280182231
sS'notion'
p213
F0.0022779043280182231
sS'came'
p214
F0.0045558086560364463
sS'walking'
p215
F0.0022779043280182231
sS'violation'
p216
F0.0022779043280182231
sS'merit'
p217
F0.0022779043280182231
sS'businesses'
p218
F0.0045558086560364463
sS'participate'
p219
F0.0022779043280182231
sS'availability'
p220
F0.0045558086560364463
sS'principal'
p221
F0.018223234624145785
sS'ratio'
p222
F0.0022779043280182231
sS'explain'
p223
F0.0022779043280182231
sS'should'
p224
F0.0091116173120728925
sS'here'
p225
F0.0022779043280182231
sS'randy'
p226
F0.0022779043280182231
sS'generators'
p227
F0.0022779043280182231
sS'rick'
p228
F0.0022779043280182231
sS'pretty'
p229
F0.0022779043280182231
sS'factor'
p230
F0.0022779043280182231
sS'rice'
p231
F0.0022779043280182231
sS'hall'
p232
F0.0022779043280182231
sS'do'
p233
F0.0045558086560364463
sS'his'
p234
F0.011389521640091117
sS'handle'
p235
F0.0022779043280182231
sS'get'
p236
F0.0091116173120728925
sS'contracts'
p237
F0.0022779043280182231
sS'competing'
p238
F0.0022779043280182231
sS'report'
p239
F0.011389521640091117
sS'hedge'
p240
F0.0022779043280182231
sS'bar'
p241
F0.0022779043280182231
sS'grab'
p242
F0.0022779043280182231
sS'where'
p243
F0.0022779043280182231
sS'respond'
p244
F0.0045558086560364463
sS'supporting'
p245
F0.0045558086560364463
sS'are'
p246
F0.034168564920273349
sS'discussions'
p247
F0.0022779043280182231
sS'concern'
p248
F0.0022779043280182231
sS'tripping'
p249
F0.0022779043280182231
sS'satisfying'
p250
F0.0022779043280182231
sS'slotted'
p251
F0.0022779043280182231
sS'managing'
p252
F0.0045558086560364463
sS'please'
p253
F0.015945330296127564
sS'enough'
p254
F0.0022779043280182231
sS'closed'
p255
F0.0022779043280182231
sS'between'
p256
F0.0022779043280182231
sS'approach'
p257
F0.0022779043280182231
sS'across'
p258
F0.0022779043280182231
sS'available'
p259
F0.018223234624145785
sS'we'
p260
F0.03644646924829157
sS'august'
p261
F0.0045558086560364463
sS'sold'
p262
F0.0068337129840546698
sS'however'
p263
F0.0022779043280182231
sS'southeast'
p264
F0.0022779043280182231
sS'job'
p265
F0.0022779043280182231
sS'joe'
p266
F0.0045558086560364463
sS'debt'
p267
F0.0045558086560364463
sS'kitchen'
p268
F0.0022779043280182231
sS'many'
p269
F0.01366742596810934
sS'ill'
p270
F0.0045558086560364463
sS'uncertainty'
p271
F0.0022779043280182231
sS'contract'
p272
F0.0022779043280182231
sS'illiquid'
p273
F0.0022779043280182231
sS'among'
p274
F0.0022779043280182231
sS'liked'
p275
F0.0022779043280182231
sS'seems'
p276
F0.0091116173120728925
sS'whatever'
p277
F0.0022779043280182231
sS'slots'
p278
F0.0045558086560364463
sS'conference'
p279
F0.0022779043280182231
sS'been'
p280
F0.0068337129840546698
sS'mark'
p281
F0.0068337129840546698
sS'interest'
p282
F0.0045558086560364463
sS'basil'
p283
F0.0045558086560364463
sS'meeting'
p284
F0.0091116173120728925
sS'life'
p285
F0.0022779043280182231
sS'formed'
p286
F0.0045558086560364463
sS'gas'
p287
F0.0045558086560364463
sS'general'
p288
F0.0045558086560364463
sS'reeves'
p289
F0.0022779043280182231
sS'plants'
p290
F0.0022779043280182231
sS'look'
p291
F0.0045558086560364463
sS'developing'
p292
F0.0045558086560364463
sS'these'
p293
F0.0091116173120728925
sS'budget'
p294
F0.0022779043280182231
sS'will'
p295
F0.061503416856492028
sS'while'
p296
F0.0045558086560364463
sS'fun'
p297
F0.0068337129840546698
sS'is'
p298
F0.05011389521640091
sS'it'
p299
F0.034168564920273349
sS'cant'
p300
F0.0022779043280182231
sS'against'
p301
F0.0022779043280182231
sS'in'
p302
F0.063781321184510256
sS'if'
p303
F0.011389521640091117
sS'develop'
p304
F0.0045558086560364463
sS'things'
p305
F0.0045558086560364463
sS'make'
p306
F0.0091116173120728925
sS'belong'
p307
F0.0022779043280182231
sS'units'
p308
F0.01366742596810934
sS'week'
p309
F0.0022779043280182231
sS'used'
p310
F0.0022779043280182231
sS'schiller'
p311
F0.0022779043280182231
sS'again'
p312
F0.0022779043280182231
sS'hang'
p313
F0.0022779043280182231
sS'director'
p314
F0.0045558086560364463
sS'moment'
p315
F0.0022779043280182231
sS'intended'
p316
F0.0045558086560364463
sS'on'
p317
F0.068337129840546698
sS'off'
p318
F0.0022779043280182231
sS'no'
p319
F0.0022779043280182231
sS'well'
p320
F0.0022779043280182231
sS'analysis'
p321
F0.0022779043280182231
sS'thought'
p322
F0.0022779043280182231
sS'person'
p323
F0.0022779043280182231
sS'position'
p324
F0.011389521640091117
sS'the'
p325
F0.10933940774487472
sS'corporate'
p326
F0.0091116173120728925
sS'investments'
p327
F0.029612756264236904
sS'just'
p328
F0.0022779043280182231
sS'being'
p329
F0.0022779043280182231
sS'money'
p330
F0.0022779043280182231
sS'rest'
p331
F0.0022779043280182231
sS'reviewed'
p332
F0.0045558086560364463
sS'identify'
p333
F0.0045558086560364463
sS'thanks'
p334
F0.01366742596810934
sS'rushing'
p335
F0.0022779043280182231
sS'announcement'
p336
F0.011389521640091117
sS'unique'
p337
F0.0045558086560364463
sS'had'
p338
F0.0022779043280182231
sS'day'
p339
F0.0068337129840546698
sS'book'
p340
F0.0022779043280182231
sS'combine'
p341
F0.0045558086560364463
sS'location'
p342
F0.0045558086560364463
sS'easy'
p343
F0.0022779043280182231
sS'violations'
p344
F0.0022779043280182231
sS'has'
p345
F0.020501138952164009
sS'scheduled'
p346
F0.0022779043280182231
sS'around'
p347
F0.0022779043280182231
sS'big'
p348
F0.0022779043280182231
sS'early'
p349
F0.0045558086560364463
sS'know'
p350
F0.0068337129840546698
sS'accepted'
p351
F0.0022779043280182231
sS'like'
p352
F0.0091116173120728925
sS'continue'
p353
F0.0022779043280182231
sS'become'
p354
F0.0045558086560364463
sS'works'
p355
F0.0022779043280182231
sS'reduced'
p356
F0.0022779043280182231
sS'right'
p357
F0.0022779043280182231
sS'deal'
p358
F0.0022779043280182231
sS'some'
p359
F0.0045558086560364463
sS'back'
p360
F0.0022779043280182231
sS'allocated'
p361
F0.0022779043280182231
sS'for'
p362
F0.027334851936218679
sS'per'
p363
F0.0045558086560364463
sS'connecting'
p364
F0.0022779043280182231
sS'market'
p365
F0.0045558086560364463
sS'be'
p366
F0.045558086560364468
sS'business'
p367
F0.011389521640091117
sS'schedule'
p368
F0.0022779043280182231
sS'chart'
p369
F0.0022779043280182231
sS'discount'
p370
F0.0045558086560364463
sS'restructuring'
p371
F0.0045558086560364463
sS'by'
p372
F0.018223234624145785
sS'comparison'
p373
F0.0022779043280182231
sS'about'
p374
F0.029612756264236904
sS'anything'
p375
F0.0022779043280182231
sS'of'
p376
F0.082004555808656038
sS'discussed'
p377
F0.0022779043280182231
sS'dinner'
p378
F0.0022779043280182231
sS'afternoon'
p379
F0.0091116173120728925
sS'spiller'
p380
F0.0022779043280182231
sS'or'
p381
F0.0045558086560364463
sS'coverage'
p382
F0.0022779043280182231
sS'into'
p383
F0.0068337129840546698
sS'down'
p384
F0.0022779043280182231
sS'strategy'
p385
F0.0045558086560364463
sS'your'
p386
F0.011389521640091117
sS'forwarded'
p387
F0.0068337129840546698
sS'hes'
p388
F0.0068337129840546698
sS'assumed'
p389
F0.0022779043280182231
sS'there'
p390
F0.015945330296127564
sS'question'
p391
F0.0022779043280182231
sS'long'
p392
F0.0068337129840546698
sS'approved'
p393
F0.0022779043280182231
sS'way'
p394
F0.0022779043280182231
sS'was'
p395
F0.01366742596810934
sS'function'
p396
F0.0022779043280182231
sS'buy'
p397
F0.0045558086560364463
sS'form'
p398
F0.0091116173120728925
sS'jun'
p399
F0.0022779043280182231
sS'but'
p400
F0.022779043280182234
sS'ford'
p401
F0.0022779043280182231
sS'volume'
p402
F0.0091116173120728925
sS'hi'
p403
F0.0068337129840546698
sS'with'
p404
F0.025056947608200455
sS'he'
p405
F0.029612756264236904
sS'made'
p406
F0.0022779043280182231
sS'wholesale'
p407
F0.0091116173120728925
sS'inside'
p408
F0.0022779043280182231
sS'up'
p409
F0.0045558086560364463
sS'minutes'
p410
F0.0022779043280182231
sS'called'
p411
F0.0022779043280182231
sS'gone'
p412
F0.0045558086560364463
sS'associated'
p413
F0.0022779043280182231
sS'am'
p414
F0.020501138952164009
sS'mike'
p415
F0.0022779043280182231
sS'an'
p416
F0.020501138952164009
sS'as'
p417
F0.018223234624145785
sS'at'
p418
F0.022779043280182234
sS'organizational'
p419
F0.0091116173120728925
sS'traditional'
p420
F0.0045558086560364463
sS'floor'
p421
F0.0022779043280182231
sS'overseeing'
p422
F0.0045558086560364463
sS'when'
p423
F0.0022779043280182231
sS'lately'
p424
F0.0022779043280182231
sS'other'
p425
F0.01366742596810934
sS'you'
p426
F0.045558086560364468
sS'really'
p427
F0.0022779043280182231
sS'garland'
p428
F0.0091116173120728925
sS'annex'
p429
F0.0022779043280182231
sS'problems'
p430
F0.0022779043280182231
sS'chance'
p431
F0.0022779043280182231
sS'additionally'
p432
F0.0045558086560364463
sS'building'
p433
F0.0022779043280182231
sS'assets'
p434
F0.0022779043280182231
sS'curve'
p435
F0.0091116173120728925
sS'together'
p436
F0.0022779043280182231
sS'volumes'
p437
F0.0022779043280182231
sS'time'
p438
F0.0045558086560364463
sS'validation'
p439
F0.0045558086560364463
sS'intentional'
p440
F0.0022779043280182231
s.