(dp1
S'and'
p2
F0.011272141706924315
sS'that'
p3
F0.0016103059581320451
sS'this'
p4
F0.0064412238325281803
sS'mean_word_length'
p5
F2
sS'however'
p6
F0
sS'but'
p7
F0
sS'very'
p8
F0
sS'must'
p9
F0
sS'type_token_ratio'
p10
F0.71954703691122202
sS'more'
p11
F0
sS'might'
p12
F0
sS'if'
p13
F0.0016103059581320451
s.