(dp1
S'and'
p2
F0.015342335078415117
sS'that'
p3
F0.0069046185993163521
sS'this'
p4
F0.0062232417638575016
sS'mean_word_length'
p5
F7
sS'however'
p6
F0.00056781402954904207
sS'but'
p7
F0.0031797585654746358
sS'very'
p8
F0.0011924094620529885
sS'must'
p9
F0.00038611354009334862
sS'type_token_ratio'
p10
F0.73752402640882575
sS'if'
p11
F0.0056554277343084597
sS'might'
p12
F0.00046560750423021454
sS'more'
p13
F0.0019759928228306666
s.