(dp1
S'and'
p2
F0.022009652651801673
sS'that'
p3
F0.008635173941856495
sS'this'
p4
F0.0092644036709530145
sS'mean_word_length'
p5
F4.0252844500632108
sS'however'
p6
F0.00078319019472651932
sS'but'
p7
F0.0014994410565704302
sS'very'
p8
F0.0011178868591395618
sS'more'
p9
F0.0012450715916165179
sS'if'
p10
F0.0038021541077321625
sS'might'
p11
F0.00032130879783652077
sS'must'
p12
F0.00018073619878304292
s.