(dp1
S'and'
p2
F0.021776452516490467
sS'that'
p3
F0.0099394596548296743
sS'this'
p4
F0.011114123068582272
sS'mean_word_length'
p5
F4
sS'sentence_standard_deviation'
p6
F42.552464448993213
sS'however'
p7
F0.00018071744826963042
sS'but'
p8
F0.003433631517122978
sS'very'
p9
F0.00090358724134815215
sS'if'
p10
F0.0050600885515496522
sS'type_token_ratio'
p11
F0.84202655527934911
sS'more'
p12
F0.0014457395861570434
sS'might'
p13
F9.0358724134815212e-05
sS'mean_sentence_length'
p14
F35.52454417952314
sS'must'
p15
F0.00063251106894370653
s.