(dp1
S'limited'
p2
F0.001243008079552517
sS'dissolution'
p3
F0.0006215040397762585
sS'four'
p4
F0.0006215040397762585
sS'appetite'
p5
F0.0006215040397762585
sS'hate'
p6
F0.0006215040397762585
sS'tomorrows'
p7
F0.0006215040397762585
sS'increase'
p8
F0.001243008079552517
sS'swap'
p9
F0.0006215040397762585
sS'under'
p10
F0.002486016159105034
sS'sorry'
p11
F0.001243008079552517
sS'worth'
p12
F0.002486016159105034
sS'merchant'
p13
F0.001243008079552517
sS'updated'
p14
F0.0006215040397762585
sS'risk'
p15
F0.016159105034182723
sS'every'
p16
F0.0018645121193287756
sS'updates'
p17
F0.0006215040397762585
sS'school'
p18
F0.002486016159105034
sS'wednesday'
p19
F0.001243008079552517
sS'deadline'
p20
F0.0018645121193287756
sS'enjoy'
p21
F0.0006215040397762585
sS'force'
p22
F0.001243008079552517
sS'consistent'
p23
F0.002486016159105034
sS'direct'
p24
F0.001243008079552517
sS'budget'
p25
F0.0006215040397762585
sS'surrounding'
p26
F0.0006215040397762585
sS'second'
p27
F0.001243008079552517
sS'street'
p28
F0.002486016159105034
sS'implemented'
p29
F0.001243008079552517
sS'even'
p30
F0.0031075201988812928
sS'established'
p31
F0.002486016159105034
sS'bonuses'
p32
F0.001243008079552517
sS'above'
p33
F0.0037290242386575512
sS'new'
p34
F0.019266625233064015
sS'net'
p35
F0.004972032318210068
sS'consisting'
p36
F0.0006215040397762585
sS'told'
p37
F0.0043505282784338101
sS'never'
p38
F0.002486016159105034
sS'here'
p39
F0.0080795525170913613
sS'bangkok'
p40
F0.0018645121193287756
sS'met'
p41
F0.002486016159105034
sS'protection'
p42
F0.0006215040397762585
sS'obtained'
p43
F0.0006215040397762585
sS'daughter'
p44
F0.0006215040397762585
sS'ventures'
p45
F0.001243008079552517
sS'items'
p46
F0.0006215040397762585
sS'study'
p47
F0.0006215040397762585
sS'economics'
p48
F0.0006215040397762585
sS'regulators'
p49
F0.0006215040397762585
sS'credit'
p50
F0.011808576755748913
sS'changes'
p51
F0.0031075201988812928
sS'feelings'
p52
F0.0006215040397762585
sS'brought'
p53
F0.0006215040397762585
sS'specifics'
p54
F0.0006215040397762585
sS'moral'
p55
F0.0006215040397762585
sS'hindsight'
p56
F0.0006215040397762585
sS'total'
p57
F0.0006215040397762585
sS'unit'
p58
F0.0006215040397762585
sS'spoke'
p59
F0.0043505282784338101
sS'would'
p60
F0.031696706028589185
sS'negative'
p61
F0.001243008079552517
sS'occupying'
p62
F0.0006215040397762585
sS'call'
p63
F0.0068365444375388437
sS'asset'
p64
F0.002486016159105034
sS'unfortunately'
p65
F0.002486016159105034
sS'assessment'
p66
F0.001243008079552517
sS'until'
p67
F0.0031075201988812928
sS'evening'
p68
F0.0006215040397762585
sS'successful'
p69
F0.0006215040397762585
sS'aware'
p70
F0.001243008079552517
sS'phone'
p71
F0.0006215040397762585
sS'warm'
p72
F0.0006215040397762585
sS'excellent'
p73
F0.0006215040397762585
sS'overrun'
p74
F0.0006215040397762585
sS'must'
p75
F0.0043505282784338101
sS'me'
p76
F0.02610316967060286
sS'join'
p77
F0.0037290242386575512
sS'pursue'
p78
F0.001243008079552517
sS'work'
p79
F0.002486016159105034
sS'my'
p80
F0.015537600994406464
sS'example'
p81
F0.0018645121193287756
sS'defer'
p82
F0.0018645121193287756
sS'indicated'
p83
F0.0018645121193287756
sS'give'
p84
F0.0018645121193287756
sS'cited'
p85
F0.0006215040397762585
sS'india'
p86
F0.0031075201988812928
sS'currency'
p87
F0.0031075201988812928
sS'foods'
p88
F0.0006215040397762585
sS'reviewing'
p89
F0.001243008079552517
sS'want'
p90
F0.0068365444375388437
sS'scheduling'
p91
F0.0006215040397762585
sS'keep'
p92
F0.0043505282784338101
sS'guarantee'
p93
F0.001243008079552517
sS'end'
p94
F0.002486016159105034
sS'initiate'
p95
F0.002486016159105034
sS'provide'
p96
F0.002486016159105034
sS'far'
p97
F0.001243008079552517
sS'imbedded'
p98
F0.0006215040397762585
sS'answer'
p99
F0.0006215040397762585
sS'charging'
p100
F0.0006215040397762585
sS'after'
p101
F0.009322560596643879
sS'memorial'
p102
F0.0006215040397762585
sS'wrong'
p103
F0.001243008079552517
sS'lay'
p104
F0.0006215040397762585
sS'president'
p105
F0.001243008079552517
sS'types'
p106
F0.0006215040397762585
sS'purchase'
p107
F0.001243008079552517
sS'attempt'
p108
F0.0006215040397762585
sS'effective'
p109
F0.0031075201988812928
sS'appreciate'
p110
F0.0006215040397762585
sS'maintain'
p111
F0.0037290242386575512
sS'things'
p112
F0.001243008079552517
sS'operate'
p113
F0.0006215040397762585
sS'order'
p114
F0.001243008079552517
sS'jack'
p115
F0.0006215040397762585
sS'operations'
p116
F0.001243008079552517
sS'executed'
p117
F0.0006215040397762585
sS'feedback'
p118
F0.001243008079552517
sS'office'
p119
F0.0080795525170913613
sS'consent'
p120
F0.0006215040397762585
sS'over'
p121
F0.0074580484773151025
sS'before'
p122
F0.0087010565568676201
sS'difference'
p123
F0.0006215040397762585
sS'somewhere'
p124
F0.0006215040397762585
sS'highlights'
p125
F0.0006215040397762585
sS'better'
p126
F0.0055935363579863269
sS'production'
p127
F0.0018645121193287756
sS'weeks'
p128
F0.0006215040397762585
sS'then'
p129
F0.002486016159105034
sS'them'
p130
F0.001243008079552517
sS'affected'
p131
F0.0006215040397762585
sS'band'
p132
F0.0006215040397762585
sS'they'
p133
F0.0099440646364201361
sS'rental'
p134
F0.0006215040397762585
sS'represents'
p135
F0.0006215040397762585
sS'reasonable'
p136
F0.001243008079552517
sS'each'
p137
F0.0043505282784338101
sS'feeds'
p138
F0.0006215040397762585
sS'mean'
p139
F0.0031075201988812928
sS'signing'
p140
F0.001243008079552517
sS'financial'
p141
F0.0006215040397762585
sS'dedicated'
p142
F0.0006215040397762585
sS'trading'
p143
F0.0055935363579863269
sS'hosted'
p144
F0.0006215040397762585
sS'sounds'
p145
F0.0018645121193287756
sS'inadvertently'
p146
F0.0006215040397762585
sS'god'
p147
F0.0006215040397762585
sS'content'
p148
F0.0006215040397762585
sS're'
p149
F0.0068365444375388437
sS'comprehensive'
p150
F0.0006215040397762585
sS'surprise'
p151
F0.001243008079552517
sS'given'
p152
F0.0018645121193287756
sS'free'
p153
F0.0006215040397762585
sS'standard'
p154
F0.0037290242386575512
sS'estimate'
p155
F0.0037290242386575512
sS'wanted'
p156
F0.0018645121193287756
sS'savannah'
p157
F0.0006215040397762585
sS'created'
p158
F0.0006215040397762585
sS'days'
p159
F0.002486016159105034
sS'syndication'
p160
F0.0006215040397762585
sS'signature'
p161
F0.001243008079552517
sS'doers'
p162
F0.0006215040397762585
sS'already'
p163
F0.0031075201988812928
sS'features'
p164
F0.0006215040397762585
sS'rank'
p165
F0.0006215040397762585
sS'another'
p166
F0.002486016159105034
sS'mercury'
p167
F0.0006215040397762585
sS'hedging'
p168
F0.0018645121193287756
sS'service'
p169
F0.0006215040397762585
sS'top'
p170
F0.0018645121193287756
sS'approximately'
p171
F0.0006215040397762585
sS'needed'
p172
F0.0006215040397762585
sS'confirming'
p173
F0.0006215040397762585
sS'rates'
p174
F0.0006215040397762585
sS'too'
p175
F0.0006215040397762585
sS'tom'
p176
F0.0006215040397762585
sS'john'
p177
F0.011808576755748913
sS'serve'
p178
F0.0018645121193287756
sS'took'
p179
F0.0006215040397762585
sS'rejected'
p180
F0.0006215040397762585
sS'somewhat'
p181
F0.0006215040397762585
sS'showed'
p182
F0.0006215040397762585
sS'likely'
p183
F0.001243008079552517
sS'project'
p184
F0.0062150403977625857
sS'matter'
p185
F0.0006215040397762585
sS'silly'
p186
F0.0006215040397762585
sS'skilling'
p187
F0.002486016159105034
sS'solely'
p188
F0.0006215040397762585
sS'boston'
p189
F0.0006215040397762585
sS'mine'
p190
F0.0006215040397762585
sS'talking'
p191
F0.0018645121193287756
sS'manner'
p192
F0.001243008079552517
sS'seen'
p193
F0.001243008079552517
sS'seminar'
p194
F0.0006215040397762585
sS'relatively'
p195
F0.002486016159105034
sS'forced'
p196
F0.0006215040397762585
sS'traditionally'
p197
F0.0006215040397762585
sS'responsible'
p198
F0.0006215040397762585
sS'thorough'
p199
F0.0006215040397762585
sS'sound'
p200
F0.0006215040397762585
sS'causing'
p201
F0.0006215040397762585
sS'acquire'
p202
F0.0006215040397762585
sS'transactions'
p203
F0.002486016159105034
sS'sue'
p204
F0.0006215040397762585
sS'regular'
p205
F0.0006215040397762585
sS'letter'
p206
F0.0006215040397762585
sS'retaining'
p207
F0.0006215040397762585
sS'assisting'
p208
F0.0006215040397762585
sS'don'
p209
F0.001243008079552517
sS'rogers'
p210
F0.0006215040397762585
sS'flow'
p211
F0.002486016159105034
sS'reflecting'
p212
F0.0006215040397762585
sS'came'
p213
F0.001243008079552517
sS'reserve'
p214
F0.0006215040397762585
sS'signatures'
p215
F0.0006215040397762585
sS'contacted'
p216
F0.001243008079552517
sS'meetings'
p217
F0.0006215040397762585
sS'participate'
p218
F0.0006215040397762585
sS'enjoyed'
p219
F0.001243008079552517
sS'busy'
p220
F0.0018645121193287756
sS'just'
p221
F0.0043505282784338101
sS'sugar'
p222
F0.0006215040397762585
sS'rick'
p223
F0.12802983219390926
sS'folks'
p224
F0.0006215040397762585
sS'announce'
p225
F0.001243008079552517
sS'adequate'
p226
F0.001243008079552517
sS'do'
p227
F0.014294592914853946
sS'watch'
p228
F0.0006215040397762585
sS'report'
p229
F0.004972032318210068
sS'volatility'
p230
F0.0006215040397762585
sS'runs'
p231
F0.0006215040397762585
sS'covering'
p232
F0.001243008079552517
sS'bad'
p233
F0.0006215040397762585
sS'respond'
p234
F0.0018645121193287756
sS'disaster'
p235
F0.0006215040397762585
sS'fair'
p236
F0.0006215040397762585
sS'testing'
p237
F0.0006215040397762585
sS'result'
p238
F0.001243008079552517
sS'best'
p239
F0.0043505282784338101
sS'subject'
p240
F0.03418272218769422
sS'said'
p241
F0.0037290242386575512
sS'capacity'
p242
F0.0006215040397762585
sS'lots'
p243
F0.0006215040397762585
sS'away'
p244
F0.0006215040397762585
sS'unable'
p245
F0.001243008079552517
sS'hopefully'
p246
F0.002486016159105034
sS'approach'
p247
F0.0006215040397762585
sS'we'
p248
F0.071472964574269729
sS'terms'
p249
F0.0031075201988812928
sS'extend'
p250
F0.0006215040397762585
sS'however'
p251
F0.001243008079552517
sS'extent'
p252
F0.0006215040397762585
sS'downgrade'
p253
F0.0006215040397762585
sS'news'
p254
F0.0006215040397762585
sS'convertible'
p255
F0.0006215040397762585
sS'debt'
p256
F0.0018645121193287756
sS'improve'
p257
F0.0062150403977625857
sS'received'
p258
F0.0006215040397762585
sS'reported'
p259
F0.0018645121193287756
sS'country'
p260
F0.0006215040397762585
sS'ill'
p261
F0.0037290242386575512
sS'against'
p262
F0.0018645121193287756
sS'receives'
p263
F0.002486016159105034
sS'exceeds'
p264
F0.0018645121193287756
sS'distinction'
p265
F0.0006215040397762585
sS'argue'
p266
F0.0006215040397762585
sS'asked'
p267
F0.0068365444375388437
sS'negotiation'
p268
F0.0006215040397762585
sS'prospect'
p269
F0.0037290242386575512
sS'initiative'
p270
F0.0006215040397762585
sS'drilled'
p271
F0.0006215040397762585
sS'tony'
p272
F0.0006215040397762585
sS'speak'
p273
F0.0018645121193287756
sS'conference'
p274
F0.0006215040397762585
sS'basis'
p275
F0.0031075201988812928
sS'been'
p276
F0.013673088875077687
sS'quickly'
p277
F0.0006215040397762585
sS'confident'
p278
F0.0006215040397762585
sS'much'
p279
F0.0018645121193287756
sS'interest'
p280
F0.0087010565568676201
sS'expected'
p281
F0.001243008079552517
sS'life'
p282
F0.0006215040397762585
sS'eastern'
p283
F0.0006215040397762585
sS'worked'
p284
F0.0031075201988812928
sS'contemplated'
p285
F0.001243008079552517
sS'aim'
p286
F0.0018645121193287756
sS'near'
p287
F0.0006215040397762585
sS'aid'
p288
F0.0006215040397762585
sS'voice'
p289
F0.0037290242386575512
sS'procedure'
p290
F0.0006215040397762585
sS'mistake'
p291
F0.001243008079552517
sS'veronica'
p292
F0.002486016159105034
sS'changed'
p293
F0.0018645121193287756
sS'is'
p294
F0.08514605344934742
sS'it'
p295
F0.047855811062771911
sS'expenses'
p296
F0.0006215040397762585
sS'cant'
p297
F0.001243008079552517
sS'in'
p298
F0.11000621504039776
sS'if'
p299
F0.034804226227470481
sS'confirmed'
p300
F0.0006215040397762585
sS'suggest'
p301
F0.0018645121193287756
sS'make'
p302
F0.0018645121193287756
sS'format'
p303
F0.001243008079552517
sS'several'
p304
F0.0006215040397762585
sS'juniper'
p305
F0.001243008079552517
sS'pick'
p306
F0.0018645121193287756
sS'hand'
p307
F0.001243008079552517
sS'opportunity'
p308
F0.0018645121193287756
sS'thoughts'
p309
F0.0006215040397762585
sS'contact'
p310
F0.001243008079552517
sS'hearts'
p311
F0.0006215040397762585
sS'the'
p312
F0.25668116842759475
sS'left'
p313
F0.001243008079552517
sS'proposed'
p314
F0.001243008079552517
sS'assigned'
p315
F0.001243008079552517
sS'thanks'
p316
F0.02175264139216905
sS'yes'
p317
F0.0006215040397762585
sS'yet'
p318
F0.0006215040397762585
sS'had'
p319
F0.015537600994406464
sS'greatly'
p320
F0.0031075201988812928
sS'board'
p321
F0.0031075201988812928
sS'easy'
p322
F0.0006215040397762585
sS'has'
p323
F0.019266625233064015
sS'gave'
p324
F0.001243008079552517
sS'reorganizations'
p325
F0.0006215040397762585
sS'possible'
p326
F0.002486016159105034
sS'caps'
p327
F0.0006215040397762585
sS'possibly'
p328
F0.0018645121193287756
sS'background'
p329
F0.001243008079552517
sS'unique'
p330
F0.0006215040397762585
sS'apart'
p331
F0.0006215040397762585
sS'county'
p332
F0.001243008079552517
sS'securities'
p333
F0.001243008079552517
sS'remind'
p334
F0.0006215040397762585
sS'offices'
p335
F0.001243008079552517
sS'attorney'
p336
F0.0006215040397762585
sS'right'
p337
F0.0043505282784338101
sS'old'
p338
F0.001243008079552517
sS'deal'
p339
F0.009322560596643879
sS'people'
p340
F0.0062150403977625857
sS'insistence'
p341
F0.0006215040397762585
sS'dear'
p342
F0.0006215040397762585
sS'doorstep'
p343
F0.001243008079552517
sS'for'
p344
F0.066500932256059658
sS'establish'
p345
F0.0006215040397762585
sS'fox'
p346
F0.0006215040397762585
sS'comments'
p347
F0.0006215040397762585
sS'creative'
p348
F0.0006215040397762585
sS'everything'
p349
F0.0018645121193287756
sS'booking'
p350
F0.0006215040397762585
sS'bold'
p351
F0.0006215040397762585
sS'discount'
p352
F0.0037290242386575512
sS'restructuring'
p353
F0.0006215040397762585
sS'post'
p354
F0.001243008079552517
sS'chapter'
p355
F0.0006215040397762585
sS'stokes'
p356
F0.0006215040397762585
sS'dollars'
p357
F0.0006215040397762585
sS'ranges'
p358
F0.0006215040397762585
sS'costs'
p359
F0.001243008079552517
sS'ensure'
p360
F0.0006215040397762585
sS'commit'
p361
F0.001243008079552517
sS'efforts'
p362
F0.0018645121193287756
sS'curry'
p363
F0.0018645121193287756
sS'whats'
p364
F0.001243008079552517
sS'obtaining'
p365
F0.0037290242386575512
sS'down'
p366
F0.001243008079552517
sS'raises'
p367
F0.0006215040397762585
sS'expired'
p368
F0.0006215040397762585
sS'support'
p369
F0.001243008079552517
sS'initial'
p370
F0.0006215040397762585
sS'illustrious'
p371
F0.0006215040397762585
sS'inspected'
p372
F0.0006215040397762585
sS'joseph'
p373
F0.002486016159105034
sS'way'
p374
F0.0018645121193287756
sS'was'
p375
F0.024238657551274082
sS'happy'
p376
F0.001243008079552517
sS'offering'
p377
F0.001243008079552517
sS'diligence'
p378
F0.002486016159105034
sS'attempted'
p379
F0.0006215040397762585
sS'ford'
p380
F0.0006215040397762585
sS'failure'
p381
F0.002486016159105034
sS'heat'
p382
F0.0006215040397762585
sS'hear'
p383
F0.0006215040397762585
sS'syndicate'
p384
F0.0006215040397762585
sS'counsel'
p385
F0.0006215040397762585
sS'type'
p386
F0.001243008079552517
sS'inside'
p387
F0.001243008079552517
sS'attached'
p388
F0.0037290242386575512
sS'bounds'
p389
F0.0006215040397762585
sS'tell'
p390
F0.0006215040397762585
sS'submitting'
p391
F0.002486016159105034
sS'rerun'
p392
F0.0006215040397762585
sS'average'
p393
F0.0006215040397762585
sS'classic'
p394
F0.001243008079552517
sS'fury'
p395
F0.0006215040397762585
sS'evidence'
p396
F0.0006215040397762585
sS'promised'
p397
F0.0006215040397762585
sS'check'
p398
F0.001243008079552517
sS'no'
p399
F0.012430080795525171
sS'when'
p400
F0.0099440646364201361
sS'test'
p401
F0.0006215040397762585
sS'holly'
p402
F0.0031075201988812928
sS'volatilities'
p403
F0.0006215040397762585
sS'models'
p404
F0.0006215040397762585
sS'welcome'
p405
F0.0006215040397762585
sS'update'
p406
F0.0018645121193287756
sS'hurt'
p407
F0.0006215040397762585
sS'faster'
p408
F0.0006215040397762585
sS'assume'
p409
F0.0031075201988812928
sS'commenced'
p410
F0.0006215040397762585
sS'daily'
p411
F0.0055935363579863269
sS'time'
p412
F0.0099440646364201361
sS'serious'
p413
F0.0018645121193287756
sS'concept'
p414
F0.001243008079552517
sS'managed'
p415
F0.002486016159105034
sS'global'
p416
F0.0037290242386575512
sS'rod'
p417
F0.0006215040397762585
sS'focus'
p418
F0.001243008079552517
sS'leads'
p419
F0.0006215040397762585
sS'manager'
p420
F0.001243008079552517
sS'mill'
p421
F0.0006215040397762585
sS'certainly'
p422
F0.001243008079552517
sS'flash'
p423
F0.0043505282784338101
sS'megawatts'
p424
F0.0006215040397762585
sS'environment'
p425
F0.0006215040397762585
sS'marks'
p426
F0.001243008079552517
sS'circumstances'
p427
F0.002486016159105034
sS'sponsors'
p428
F0.001243008079552517
sS'congratulating'
p429
F0.0031075201988812928
sS'choice'
p430
F0.0006215040397762585
sS'advised'
p431
F0.0006215040397762585
sS'exact'
p432
F0.0006215040397762585
sS'level'
p433
F0.0018645121193287756
sS'did'
p434
F0.0062150403977625857
sS'leave'
p435
F0.001243008079552517
sS'item'
p436
F0.0006215040397762585
sS'team'
p437
F0.0031075201988812928
sS'guy'
p438
F0.0006215040397762585
sS'extenuating'
p439
F0.0006215040397762585
sS'dealing'
p440
F0.0006215040397762585
sS'sign'
p441
F0.0031075201988812928
sS'cost'
p442
F0.0087010565568676201
sS'port'
p443
F0.002486016159105034
sS'appear'
p444
F0.0006215040397762585
sS'agrees'
p445
F0.0006215040397762585
sS'current'
p446
F0.0006215040397762585
sS'goes'
p447
F0.0018645121193287756
sS'collateral'
p448
F0.004972032318210068
sS'changs'
p449
F0.0006215040397762585
sS'funeral'
p450
F0.0006215040397762585
sS'water'
p451
F0.001243008079552517
sS'address'
p452
F0.0018645121193287756
sS'along'
p453
F0.001243008079552517
sS'appears'
p454
F0.001243008079552517
sS'change'
p455
F0.004972032318210068
sS'wait'
p456
F0.004972032318210068
sS'accomplished'
p457
F0.0006215040397762585
sS'diagnosed'
p458
F0.0006215040397762585
sS'weird'
p459
F0.0006215040397762585
sS'bod'
p460
F0.001243008079552517
sS'regardless'
p461
F0.0006215040397762585
sS'fake'
p462
F0.001243008079552517
sS'rarely'
p463
F0.0006215040397762585
sS'market'
p464
F0.0080795525170913613
sS'overruns'
p465
F0.0006215040397762585
sS'working'
p466
F0.004972032318210068
sS'positive'
p467
F0.0006215040397762585
sS'live'
p468
F0.0006215040397762585
sS'opposed'
p469
F0.0006215040397762585
sS'criteria'
p470
F0.001243008079552517
sS'thru'
p471
F0.001243008079552517
sS'today'
p472
F0.0074580484773151025
sS'commissioned'
p473
F0.0006215040397762585
sS'cases'
p474
F0.0006215040397762585
sS'effort'
p475
F0.0043505282784338101
sS'fly'
p476
F0.0006215040397762585
sS'preponderance'
p477
F0.0006215040397762585
sS'can'
p478
F0.018023617153511497
sS'following'
p479
F0.0074580484773151025
sS'arrive'
p480
F0.0006215040397762585
sS'crazy'
p481
F0.0006215040397762585
sS'chip'
p482
F0.0006215040397762585
sS'heard'
p483
F0.002486016159105034
sS'incremental'
p484
F0.0006215040397762585
sS'occur'
p485
F0.0006215040397762585
sS'requirements'
p486
F0.0006215040397762585
sS'discussion'
p487
F0.001243008079552517
sS'vital'
p488
F0.001243008079552517
sS'plus'
p489
F0.0006215040397762585
sS'economy'
p490
F0.0006215040397762585
sS'huge'
p491
F0.0037290242386575512
sS'may'
p492
F0.0043505282784338101
sS'quantified'
p493
F0.001243008079552517
sS'spot'
p494
F0.001243008079552517
sS'improving'
p495
F0.0006215040397762585
sS'such'
p496
F0.0018645121193287756
sS'guys'
p497
F0.0043505282784338101
sS'outline'
p498
F0.0006215040397762585
sS'commodity'
p499
F0.0062150403977625857
sS'slightly'
p500
F0.0006215040397762585
sS'inform'
p501
F0.0006215040397762585
sS'so'
p502
F0.0099440646364201361
sS'mange'
p503
F0.001243008079552517
sS'talk'
p504
F0.0006215040397762585
sS'indeed'
p505
F0.0006215040397762585
sS'thresholds'
p506
F0.001243008079552517
sS'wishing'
p507
F0.0018645121193287756
sS'years'
p508
F0.002486016159105034
sS'course'
p509
F0.0006215040397762585
sS'still'
p510
F0.0055935363579863269
sS'group'
p511
F0.0037290242386575512
sS'thank'
p512
F0.0018645121193287756
sS'how'
p513
F0.0062150403977625857
sS'offers'
p514
F0.0006215040397762585
sS'listing'
p515
F0.0006215040397762585
sS'policy'
p516
F0.0006215040397762585
sS'mail'
p517
F0.0074580484773151025
sS'troubled'
p518
F0.0006215040397762585
sS'texas'
p519
F0.0006215040397762585
sS'finance'
p520
F0.0074580484773151025
sS'drilling'
p521
F0.0018645121193287756
sS'half'
p522
F0.0006215040397762585
sS'not'
p523
F0.029210689869484153
sS'now'
p524
F0.0055935363579863269
sS'discuss'
p525
F0.0080795525170913613
sS'expedite'
p526
F0.0006215040397762585
sS'wont'
p527
F0.0006215040397762585
sS'term'
p528
F0.0018645121193287756
sS'name'
p529
F0.0018645121193287756
sS'em'
p530
F0.0006215040397762585
sS'prompted'
p531
F0.001243008079552517
sS'revised'
p532
F0.0018645121193287756
sS'yeah'
p533
F0.0006215040397762585
sS'year'
p534
F0.0043505282784338101
sS'happen'
p535
F0.0006215040397762585
sS'worried'
p536
F0.0006215040397762585
sS'adequately'
p537
F0.0018645121193287756
sS'plans'
p538
F0.0018645121193287756
sS'living'
p539
F0.0006215040397762585
sS'accomplish'
p540
F0.001243008079552517
sS'space'
p541
F0.0037290242386575512
sS'looking'
p542
F0.0018645121193287756
sS'rational'
p543
F0.0006215040397762585
sS'receiving'
p544
F0.001243008079552517
sS'correct'
p545
F0.001243008079552517
sS'earlier'
p546
F0.001243008079552517
sS'million'
p547
F0.0087010565568676201
sS'possibility'
p548
F0.0006215040397762585
sS'quite'
p549
F0.0043505282784338101
sS'trademarks'
p550
F0.001243008079552517
sS'realignment'
p551
F0.001243008079552517
sS'care'
p552
F0.001243008079552517
sS'training'
p553
F0.0006215040397762585
sS'discussing'
p554
F0.0006215040397762585
sS'chevy'
p555
F0.0006215040397762585
sS'thing'
p556
F0.0006215040397762585
sS'place'
p557
F0.0055935363579863269
sS'think'
p558
F0.0087010565568676201
sS'frequent'
p559
F0.0006215040397762585
sS'first'
p560
F0.0031075201988812928
sS'spoken'
p561
F0.001243008079552517
sS'one'
p562
F0.0087010565568676201
sS'specifically'
p563
F0.0006215040397762585
sS'directly'
p564
F0.0018645121193287756
sS'message'
p565
F0.0006215040397762585
sS'open'
p566
F0.0006215040397762585
sS'tomorrow'
p567
F0.0006215040397762585
sS'size'
p568
F0.001243008079552517
sS'city'
p569
F0.001243008079552517
sS'little'
p570
F0.0006215040397762585
sS'sheet'
p571
F0.001243008079552517
sS'anyone'
p572
F0.001243008079552517
sS'indicate'
p573
F0.0006215040397762585
sS'draft'
p574
F0.0043505282784338101
sS'speaking'
p575
F0.0006215040397762585
sS'fraction'
p576
F0.0006215040397762585
sS'that'
p577
F0.06836544437538844
sS'memo'
p578
F0.002486016159105034
sS'eliminated'
p579
F0.0006215040397762585
sS'copy'
p580
F0.001243008079552517
sS'undoubtedly'
p581
F0.0006215040397762585
sS'than'
p582
F0.0087010565568676201
sS'impractical'
p583
F0.0006215040397762585
sS'third'
p584
F0.0018645121193287756
sS'require'
p585
F0.002486016159105034
sS'future'
p586
F0.001243008079552517
sS'venture'
p587
F0.0006215040397762585
sS'were'
p588
F0.0080795525170913613
sS'and'
p589
F0.1497824735860783
sS'contentious'
p590
F0.0006215040397762585
sS'argument'
p591
F0.0006215040397762585
sS'overnight'
p592
F0.0018645121193287756
sS'dash'
p593
F0.0074580484773151025
sS'say'
p594
F0.0018645121193287756
sS'saw'
p595
F0.0018645121193287756
sS'any'
p596
F0.011808576755748913
sS'form'
p597
F0.0006215040397762585
sS'offer'
p598
F0.0006215040397762585
sS'aside'
p599
F0.0006215040397762585
sS'note'
p600
F0.0062150403977625857
sS'potential'
p601
F0.001243008079552517
sS'take'
p602
F0.001243008079552517
sS'performance'
p603
F0.002486016159105034
sS'switching'
p604
F0.0006215040397762585
sS'surf'
p605
F0.0006215040397762585
sS'begin'
p606
F0.001243008079552517
sS'sure'
p607
F0.001243008079552517
sS'rereading'
p608
F0.0006215040397762585
sS'track'
p609
F0.001243008079552517
sS'price'
p610
F0.0031075201988812928
sS'enter'
p611
F0.0006215040397762585
sS'paid'
p612
F0.001243008079552517
sS'especially'
p613
F0.0006215040397762585
sS'considered'
p614
F0.001243008079552517
sS'seafood'
p615
F0.0006215040397762585
sS'later'
p616
F0.001243008079552517
sS'sale'
p617
F0.0018645121193287756
sS'managing'
p618
F0.0031075201988812928
sS'senior'
p619
F0.002486016159105034
sS'liquidity'
p620
F0.0037290242386575512
sS'shop'
p621
F0.0006215040397762585
sS'show'
p622
F0.002486016159105034
sS'cheap'
p623
F0.0006215040397762585
sS'threshold'
p624
F0.0031075201988812928
sS'behind'
p625
F0.001243008079552517
sS'overage'
p626
F0.0006215040397762585
sS'only'
p627
F0.0074580484773151025
sS'going'
p628
F0.004972032318210068
sS'concurrence'
p629
F0.0006215040397762585
sS'dispute'
p630
F0.001243008079552517
sS'get'
p631
F0.015537600994406464
sS'hedge'
p632
F0.0006215040397762585
sS'regarding'
p633
F0.0031075201988812928
sS'leather'
p634
F0.0006215040397762585
sS'summary'
p635
F0.001243008079552517
sS'embassy'
p636
F0.0006215040397762585
sS'worries'
p637
F0.0006215040397762585
sS'finishing'
p638
F0.0006215040397762585
sS'where'
p639
F0.0080795525170913613
sS'communicated'
p640
F0.001243008079552517
sS'physically'
p641
F0.001243008079552517
sS'elected'
p642
F0.0006215040397762585
sS'apologies'
p643
F0.0006215040397762585
sS'concern'
p644
F0.0006215040397762585
sS'detect'
p645
F0.0006215040397762585
sS'ways'
p646
F0.0018645121193287756
sS'review'
p647
F0.011808576755748913
sS'outside'
p648
F0.0018645121193287756
sS'between'
p649
F0.0031075201988812928
sS'import'
p650
F0.0006215040397762585
sS'across'
p651
F0.002486016159105034
sS'august'
p652
F0.0006215040397762585
sS'useful'
p653
F0.0006215040397762585
sS'originated'
p654
F0.0006215040397762585
sS'article'
p655
F0.001243008079552517
sS'come'
p656
F0.001243008079552517
sS'reaction'
p657
F0.0006215040397762585
sS'dates'
p658
F0.0006215040397762585
sS'efficiency'
p659
F0.002486016159105034
sS'many'
p660
F0.001243008079552517
sS'trades'
p661
F0.0006215040397762585
sS'according'
p662
F0.0006215040397762585
sS'contract'
p663
F0.0018645121193287756
sS'key'
p664
F0.001243008079552517
sS'cancer'
p665
F0.0006215040397762585
sS'overview'
p666
F0.0006215040397762585
sS'period'
p667
F0.001243008079552517
sS'boat'
p668
F0.002486016159105034
sS'considering'
p669
F0.0006215040397762585
sS'informed'
p670
F0.0006215040397762585
sS'mark'
p671
F0.011808576755748913
sS'attaching'
p672
F0.0006215040397762585
sS'reflective'
p673
F0.0006215040397762585
sS'hardly'
p674
F0.0006215040397762585
sS'direction'
p675
F0.001243008079552517
sS'thousand'
p676
F0.0006215040397762585
sS'those'
p677
F0.001243008079552517
sS'paying'
p678
F0.0006215040397762585
sS'myself'
p679
F0.0018645121193287756
sS'limits'
p680
F0.001243008079552517
sS'these'
p681
F0.013673088875077687
sS'cash'
p682
F0.0031075201988812928
sS'policies'
p683
F0.001243008079552517
sS'newspaper'
p684
F0.0006215040397762585
sS'situation'
p685
F0.002486016159105034
sS'invited'
p686
F0.0006215040397762585
sS'coupled'
p687
F0.0006215040397762585
sS'telephone'
p688
F0.0006215040397762585
sS'strain'
p689
F0.0006215040397762585
sS'someone'
p690
F0.0018645121193287756
sS'binary'
p691
F0.0006215040397762585
sS'different'
p692
F0.002486016159105034
sS'pay'
p693
F0.001243008079552517
sS'ya'
p694
F0.0006215040397762585
sS'inquiry'
p695
F0.0006215040397762585
sS'document'
p696
F0.004972032318210068
sS'pam'
p697
F0.0031075201988812928
sS'week'
p698
F0.0055935363579863269
sS'oil'
p699
F0.001243008079552517
sS'assist'
p700
F0.001243008079552517
sS'director'
p701
F0.0006215040397762585
sS'persons'
p702
F0.0006215040397762585
sS'running'
p703
F0.0006215040397762585
sS'totally'
p704
F0.001243008079552517
sS'objection'
p705
F0.0006215040397762585
sS'without'
p706
F0.0043505282784338101
sS'termination'
p707
F0.001243008079552517
sS'model'
p708
F0.0006215040397762585
sS'being'
p709
F0.0080795525170913613
sS'captures'
p710
F0.0006215040397762585
sS'rest'
p711
F0.0006215040397762585
sS'touch'
p712
F0.0006215040397762585
sS'speed'
p713
F0.001243008079552517
sS'captured'
p714
F0.001243008079552517
sS'weekly'
p715
F0.0006215040397762585
sS'seems'
p716
F0.001243008079552517
sS'lets'
p717
F0.0068365444375388437
sS'treatment'
p718
F0.0006215040397762585
sS'real'
p719
F0.002486016159105034
sS'around'
p720
F0.001243008079552517
sS'read'
p721
F0.001243008079552517
sS'early'
p722
F0.001243008079552517
sS'preference'
p723
F0.0006215040397762585
sS'world'
p724
F0.0006215040397762585
sS'underwriting'
p725
F0.0006215040397762585
sS'reduces'
p726
F0.0006215040397762585
sS'either'
p727
F0.0043505282784338101
sS'verbal'
p728
F0.0006215040397762585
sS'respect'
p729
F0.0006215040397762585
sS'thinks'
p730
F0.0018645121193287756
sS'provided'
p731
F0.0018645121193287756
sS'confirm'
p732
F0.0006215040397762585
sS'noon'
p733
F0.0006215040397762585
sS'legal'
p734
F0.0068365444375388437
sS'critical'
p735
F0.001243008079552517
sS'power'
p736
F0.0074580484773151025
sS'equivalent'
p737
F0.0006215040397762585
sS'strained'
p738
F0.0006215040397762585
sS'credits'
p739
F0.0006215040397762585
sS'leadership'
p740
F0.0006215040397762585
sS'willies'
p741
F0.0006215040397762585
sS'exciting'
p742
F0.001243008079552517
sS'on'
p743
F0.10068365444375388
sS'om'
p744
F0.001243008079552517
sS'of'
p745
F0.11435674331883157
sS'stand'
p746
F0.0006215040397762585
sS'luck'
p747
F0.001243008079552517
sS'or'
p748
F0.0254816656308266
sS'inclusion'
p749
F0.0006215040397762585
sS'instruments'
p750
F0.0006215040397762585
sS'accounts'
p751
F0.0006215040397762585
sS'determine'
p752
F0.0018645121193287756
sS'parties'
p753
F0.001243008079552517
sS'operator'
p754
F0.001243008079552517
sS'wade'
p755
F0.0006215040397762585
sS'your'
p756
F0.024238657551274082
sS'legacy'
p757
F0.0006215040397762585
sS'forwarded'
p758
F0.027967681789931635
sS'prepare'
p759
F0.0006215040397762585
sS'area'
p760
F0.0006215040397762585
sS'assumed'
p761
F0.0006215040397762585
sS'strictly'
p762
F0.0006215040397762585
sS'there'
p763
F0.020509633312616533
sS'deadlines'
p764
F0.0006215040397762585
sS'start'
p765
F0.0031075201988812928
sS'low'
p766
F0.002486016159105034
sS'lot'
p767
F0.0006215040397762585
sS'bubble'
p768
F0.0006215040397762585
sS'recommends'
p769
F0.001243008079552517
sS'complete'
p770
F0.002486016159105034
sS'enough'
p771
F0.001243008079552517
sS'delayed'
p772
F0.002486016159105034
sS'sophisticated'
p773
F0.0006215040397762585
sS'elimination'
p774
F0.0006215040397762585
sS'trying'
p775
F0.002486016159105034
sS'with'
p776
F0.053449347420758235
sS'longer'
p777
F0.0006215040397762585
sS'rush'
p778
F0.001243008079552517
sS'arranged'
p779
F0.0006215040397762585
sS'improved'
p780
F0.0006215040397762585
sS'embedded'
p781
F0.004972032318210068
sS'wholesale'
p782
F0.001243008079552517
sS'detailed'
p783
F0.0006215040397762585
sS'gone'
p784
F0.0006215040397762585
sS'money'
p785
F0.001243008079552517
sS'ad'
p786
F0.0006215040397762585
sS'certain'
p787
F0.0018645121193287756
sS'moved'
p788
F0.001243008079552517
sS'deep'
p789
F0.0006215040397762585
sS'general'
p790
F0.001243008079552517
sS'as'
p791
F0.039776258545680544
sS'senses'
p792
F0.001243008079552517
sS'at'
p793
F0.027967681789931635
sS'file'
p794
F0.001243008079552517
sS'inspections'
p795
F0.0006215040397762585
sS'fill'
p796
F0.0006215040397762585
sS'again'
p797
F0.0031075201988812928
sS'onerous'
p798
F0.0006215040397762585
sS'rubbed'
p799
F0.0006215040397762585
sS'personnel'
p800
F0.0018645121193287756
sS'someones'
p801
F0.001243008079552517
sS'initialled'
p802
F0.001243008079552517
sS'you'
p803
F0.049098819142324425
sS'poor'
p804
F0.0006215040397762585
sS'briefly'
p805
F0.001243008079552517
sS'annex'
p806
F0.002486016159105034
sS'gifts'
p807
F0.0006215040397762585
sS'suited'
p808
F0.0006215040397762585
sS'included'
p809
F0.0037290242386575512
sS'prudent'
p810
F0.001243008079552517
sS'pool'
p811
F0.0006215040397762585
sS'building'
p812
F0.0006215040397762585
sS'assets'
p813
F0.0037290242386575512
sS'calls'
p814
F0.0006215040397762585
sS'wife'
p815
F0.001243008079552517
sS'curve'
p816
F0.009322560596643879
sS'having'
p817
F0.0018645121193287756
sS'original'
p818
F0.0006215040397762585
sS'all'
p819
F0.01305158483530143
sS'consider'
p820
F0.001243008079552517
sS'month'
p821
F0.0006215040397762585
sS'causey'
p822
F0.0006215040397762585
sS'follow'
p823
F0.0031075201988812928
sS'pornographic'
p824
F0.0006215040397762585
sS'opportunities'
p825
F0.0006215040397762585
sS'to'
p826
F0.26351771286513365
sS'program'
p827
F0.0018645121193287756
sS'presentation'
p828
F0.0037290242386575512
sS'activities'
p829
F0.001243008079552517
sS'fax'
p830
F0.0031075201988812928
sS'straightforward'
p831
F0.0006215040397762585
sS'very'
p832
F0.0062150403977625857
sS'decide'
p833
F0.0018645121193287756
sS'got'
p834
F0.0006215040397762585
sS'manageable'
p835
F0.0006215040397762585
sS'condition'
p836
F0.0006215040397762585
sS'list'
p837
F0.0006215040397762585
sS'large'
p838
F0.001243008079552517
sS'small'
p839
F0.001243008079552517
sS'abbreviated'
p840
F0.0037290242386575512
sS'ted'
p841
F0.01305158483530143
sS'past'
p842
F0.0018645121193287756
sS'rate'
p843
F0.011187072715972654
sS'pass'
p844
F0.001243008079552517
sS'further'
p845
F0.002486016159105034
sS'investment'
p846
F0.0006215040397762585
sS'what'
p847
F0.01305158483530143
sS'sub'
p848
F0.0006215040397762585
sS'section'
p849
F0.0006215040397762585
sS'brief'
p850
F0.0018645121193287756
sS'version'
p851
F0.0018645121193287756
sS'learned'
p852
F0.001243008079552517
sS'method'
p853
F0.002486016159105034
sS'full'
p854
F0.0037290242386575512
sS'hours'
p855
F0.002486016159105034
sS'operating'
p856
F0.0006215040397762585
sS'strong'
p857
F0.002486016159105034
sS'personable'
p858
F0.0006215040397762585
sS'compliance'
p859
F0.0006215040397762585
sS'experience'
p860
F0.001243008079552517
sS'prior'
p861
F0.002486016159105034
sS'amount'
p862
F0.0018645121193287756
sS'published'
p863
F0.001243008079552517
sS'mentions'
p864
F0.0006215040397762585
sS'specialize'
p865
F0.0006215040397762585
sS'options'
p866
F0.0018645121193287756
sS'via'
p867
F0.0018645121193287756
sS'followed'
p868
F0.0006215040397762585
sS'family'
p869
F0.001243008079552517
sS'put'
p870
F0.0055935363579863269
sS'unapproved'
p871
F0.0006215040397762585
sS'memos'
p872
F0.0006215040397762585
sS'proceed'
p873
F0.0006215040397762585
sS'objectives'
p874
F0.0006215040397762585
sS'two'
p875
F0.0074580484773151025
sS'markets'
p876
F0.002486016159105034
sS'minor'
p877
F0.0031075201988812928
sS'more'
p878
F0.0099440646364201361
sS'flat'
p879
F0.0006215040397762585
sS'flaw'
p880
F0.0006215040397762585
sS'knows'
p881
F0.0006215040397762585
sS'initiated'
p882
F0.0006215040397762585
sS'company'
p883
F0.0068365444375388437
sS'problem'
p884
F0.0037290242386575512
sS'tested'
p885
F0.0006215040397762585
sS'flag'
p886
F0.0006215040397762585
sS'basically'
p887
F0.001243008079552517
sS'particular'
p888
F0.002486016159105034
sS'none'
p889
F0.0006215040397762585
sS'include'
p890
F0.0018645121193287756
sS'hour'
p891
F0.0006215040397762585
sS'paragraph'
p892
F0.0006215040397762585
sS'staffing'
p893
F0.001243008079552517
sS'learn'
p894
F0.0006215040397762585
sS'specialized'
p895
F0.0006215040397762585
sS'history'
p896
F0.0006215040397762585
sS'prompt'
p897
F0.0006215040397762585
sS'stated'
p898
F0.001243008079552517
sS'share'
p899
F0.001243008079552517
sS'minimum'
p900
F0.002486016159105034
sS'numbers'
p901
F0.0074580484773151025
sS'arise'
p902
F0.0006215040397762585
sS'sharp'
p903
F0.0006215040397762585
sS'information'
p904
F0.0031075201988812928
sS'needs'
p905
F0.0043505282784338101
sS'goal'
p906
F0.0018645121193287756
sS'rather'
p907
F0.0031075201988812928
sS'rapport'
p908
F0.0006215040397762585
sS'earnings'
p909
F0.0006215040397762585
sS'plant'
p910
F0.0018645121193287756
sS'intended'
p911
F0.0006215040397762585
sS'advice'
p912
F0.0006215040397762585
sS'coming'
p913
F0.0006215040397762585
sS'backyard'
p914
F0.001243008079552517
sS'response'
p915
F0.001243008079552517
sS'short'
p916
F0.001243008079552517
sS'documentation'
p917
F0.0018645121193287756
sS'departure'
p918
F0.0006215040397762585
sS'responsibility'
p919
F0.002486016159105034
sS'banks'
p920
F0.0006215040397762585
sS'feed'
p921
F0.0006215040397762585
sS'help'
p922
F0.0068365444375388437
sS'finalized'
p923
F0.0006215040397762585
sS'developed'
p924
F0.0006215040397762585
sS'soon'
p925
F0.0006215040397762585
sS'trade'
p926
F0.0018645121193287756
sS'held'
p927
F0.001243008079552517
sS'paper'
p928
F0.0006215040397762585
sS'through'
p929
F0.0018645121193287756
sS'committee'
p930
F0.0018645121193287756
sS'committed'
p931
F0.0006215040397762585
sS'turbine'
p932
F0.0006215040397762585
sS'its'
p933
F0.0062150403977625857
sS'developer'
p934
F0.001243008079552517
sS'style'
p935
F0.0006215040397762585
sS'slipped'
p936
F0.0006215040397762585
sS'reluctance'
p937
F0.001243008079552517
sS'actually'
p938
F0.002486016159105034
sS'late'
p939
F0.002486016159105034
sS'absence'
p940
F0.0006215040397762585
sS'systems'
p941
F0.002486016159105034
sS'might'
p942
F0.0006215040397762585
sS'good'
p943
F0.004972032318210068
sS'return'
p944
F0.0037290242386575512
sS'food'
p945
F0.0006215040397762585
sS'anticipated'
p946
F0.0006215040397762585
sS'foot'
p947
F0.002486016159105034
sS'easily'
p948
F0.0006215040397762585
sS'always'
p949
F0.0018645121193287756
sS'presented'
p950
F0.0018645121193287756
sS'capability'
p951
F0.0006215040397762585
sS'stopped'
p952
F0.0006215040397762585
sS'repayment'
p953
F0.0006215040397762585
sS'knight'
p954
F0.0006215040397762585
sS'found'
p955
F0.001243008079552517
sS'everyone'
p956
F0.001243008079552517
sS'tilted'
p957
F0.0006215040397762585
sS'house'
p958
F0.0006215040397762585
sS'energy'
p959
F0.0043505282784338101
sS'hard'
p960
F0.001243008079552517
sS'reduce'
p961
F0.0006215040397762585
sS'idea'
p962
F0.002486016159105034
sS'orally'
p963
F0.0006215040397762585
sS'expect'
p964
F0.0037290242386575512
sS'measurement'
p965
F0.0006215040397762585
sS'operation'
p966
F0.0006215040397762585
sS'beyond'
p967
F0.0006215040397762585
sS'event'
p968
F0.0018645121193287756
sS'really'
p969
F0.0043505282784338101
sS'deals'
p970
F0.009322560596643879
sS'funding'
p971
F0.0006215040397762585
sS'missed'
p972
F0.0006215040397762585
sS'since'
p973
F0.0037290242386575512
sS'print'
p974
F0.0006215040397762585
sS'issue'
p975
F0.009322560596643879
sS'confidence'
p976
F0.0006215040397762585
sS'story'
p977
F0.0006215040397762585
sS'pleasant'
p978
F0.0006215040397762585
sS'base'
p979
F0.001243008079552517
sS'brightest'
p980
F0.0006215040397762585
sS'members'
p981
F0.0006215040397762585
sS'ask'
p982
F0.002486016159105034
sS'owners'
p983
F0.0006215040397762585
sS'launch'
p984
F0.0006215040397762585
sS'contingency'
p985
F0.0006215040397762585
sS'fallen'
p986
F0.0006215040397762585
sS'ding'
p987
F0.0006215040397762585
sS'copper'
p988
F0.0006215040397762585
sS'probability'
p989
F0.0006215040397762585
sS'feel'
p990
F0.0006215040397762585
sS'done'
p991
F0.001243008079552517
sS'regret'
p992
F0.0006215040397762585
sS'guess'
p993
F0.0018645121193287756
sS'heads'
p994
F0.001243008079552517
sS'together'
p995
F0.004972032318210068
sS'financed'
p996
F0.0006215040397762585
sS'lease'
p997
F0.0018645121193287756
sS'audit'
p998
F0.001243008079552517
sS'option'
p999
F0.0037290242386575512
sS'relationship'
p1000
F0.0006215040397762585
sS'checklist'
p1001
F0.0006215040397762585
sS'helpful'
p1002
F0.0006215040397762585
sS'immediate'
p1003
F0.0006215040397762585
sS'part'
p1004
F0.0006215040397762585
sS'jordan'
p1005
F0.0037290242386575512
sS'discounted'
p1006
F0.0006215040397762585
sS'believe'
p1007
F0.001243008079552517
sS'ungrateful'
p1008
F0.0006215040397762585
sS'financing'
p1009
F0.0043505282784338101
sS'double'
p1010
F0.0006215040397762585
sS'instruction'
p1011
F0.0006215040397762585
sS'risks'
p1012
F0.0006215040397762585
sS'cleaner'
p1013
F0.0006215040397762585
sS'ratings'
p1014
F0.0006215040397762585
sS'depending'
p1015
F0.0006215040397762585
sS'also'
p1016
F0.010565568676196395
sS'recognizing'
p1017
F0.0006215040397762585
sS'internal'
p1018
F0.0006215040397762585
sS'build'
p1019
F0.002486016159105034
sS'electric'
p1020
F0.001243008079552517
sS'reach'
p1021
F0.0006215040397762585
sS'most'
p1022
F0.009322560596643879
sS'plan'
p1023
F0.001243008079552517
sS'significant'
p1024
F0.0031075201988812928
sS'services'
p1025
F0.001243008079552517
sS'extremely'
p1026
F0.0006215040397762585
sS'approved'
p1027
F0.0018645121193287756
sS'goodwill'
p1028
F0.001243008079552517
sS'clear'
p1029
F0.001243008079552517
sS'sometimes'
p1030
F0.0006215040397762585
sS'cover'
p1031
F0.0006215040397762585
sS'particularly'
p1032
F0.0006215040397762585
sS'businesses'
p1033
F0.0031075201988812928
sS'degraded'
p1034
F0.0006215040397762585
sS'fine'
p1035
F0.0018645121193287756
sS'find'
p1036
F0.0018645121193287756
sS'impact'
p1037
F0.0037290242386575512
sS'cell'
p1038
F0.001243008079552517
sS'parameters'
p1039
F0.0006215040397762585
sS'condor'
p1040
F0.0006215040397762585
sS'failed'
p1041
F0.001243008079552517
sS'pretty'
p1042
F0.001243008079552517
sS'equity'
p1043
F0.001243008079552517
sS'his'
p1044
F0.0099440646364201361
sS'template'
p1045
F0.0006215040397762585
sS'kind'
p1046
F0.001243008079552517
sS'closely'
p1047
F0.0006215040397762585
sS'adhered'
p1048
F0.0018645121193287756
sS'during'
p1049
F0.002486016159105034
sS'him'
p1050
F0.0099440646364201361
sS'glover'
p1051
F0.001243008079552517
sS'activity'
p1052
F0.0043505282784338101
sS'approaching'
p1053
F0.0006215040397762585
sS'set'
p1054
F0.0018645121193287756
sS'see'
p1055
F0.004972032318210068
sS'are'
p1056
F0.037290242386575516
sS'close'
p1057
F0.0055935363579863269
sS'contour'
p1058
F0.0006215040397762585
sS'wow'
p1059
F0.0018645121193287756
sS'currently'
p1060
F0.0037290242386575512
sS'please'
p1061
F0.02113113735239279
sS'case'
p1062
F0.001243008079552517
sS'fans'
p1063
F0.0006215040397762585
sS'won'
p1064
F0.001243008079552517
sS'various'
p1065
F0.0006215040397762585
sS'probably'
p1066
F0.0031075201988812928
sS'numerous'
p1067
F0.0006215040397762585
sS'available'
p1068
F0.0018645121193287756
sS'solo'
p1069
F0.0006215040397762585
sS'recently'
p1070
F0.0006215040397762585
sS'complementary'
p1071
F0.0006215040397762585
sS'sold'
p1072
F0.001243008079552517
sS'attention'
p1073
F0.0006215040397762585
sS'incident'
p1074
F0.0006215040397762585
sS'succeed'
p1075
F0.0006215040397762585
sS'both'
p1076
F0.0043505282784338101
sS'last'
p1077
F0.0043505282784338101
sS'annual'
p1078
F0.001243008079552517
sS'foreign'
p1079
F0.0006215040397762585
sS'connection'
p1080
F0.0006215040397762585
sS'focused'
p1081
F0.0006215040397762585
sS'approve'
p1082
F0.0018645121193287756
sS'point'
p1083
F0.0006215040397762585
sS'reasons'
p1084
F0.0006215040397762585
sS'loan'
p1085
F0.0006215040397762585
sS'church'
p1086
F0.0006215040397762585
sS'publishing'
p1087
F0.0006215040397762585
sS'originators'
p1088
F0.0006215040397762585
sS'due'
p1089
F0.0074580484773151025
sS'strategy'
p1090
F0.0006215040397762585
sS'whom'
p1091
F0.0006215040397762585
sS'meeting'
p1092
F0.012430080795525171
sS'firm'
p1093
F0.0006215040397762585
sS'dialogue'
p1094
F0.0006215040397762585
sS'gas'
p1095
F0.002486016159105034
sS'spudded'
p1096
F0.0018645121193287756
sS'else'
p1097
F0.001243008079552517
sS'fund'
p1098
F0.001243008079552517
sS'understand'
p1099
F0.002486016159105034
sS'demand'
p1100
F0.0006215040397762585
sS'handling'
p1101
F0.0006215040397762585
sS'look'
p1102
F0.0031075201988812928
sS'solid'
p1103
F0.0006215040397762585
sS'bill'
p1104
F0.0055935363579863269
sS'batch'
p1105
F0.0018645121193287756
sS'pace'
p1106
F0.0006215040397762585
sS'pressed'
p1107
F0.0006215040397762585
sS'scheduled'
p1108
F0.0018645121193287756
sS'hoping'
p1109
F0.001243008079552517
sS'reads'
p1110
F0.0006215040397762585
sS'rig'
p1111
F0.0018645121193287756
sS'grant'
p1112
F0.001243008079552517
sS'resulting'
p1113
F0.0006215040397762585
sS'resources'
p1114
F0.001243008079552517
sS'higher'
p1115
F0.002486016159105034
sS'used'
p1116
F0.0018645121193287756
sS'assignment'
p1117
F0.001243008079552517
sS'yesterday'
p1118
F0.001243008079552517
sS'flows'
p1119
F0.0006215040397762585
sS'desks'
p1120
F0.0006215040397762585
sS'levels'
p1121
F0.001243008079552517
sS'moving'
p1122
F0.001243008079552517
sS'bob'
p1123
F0.0006215040397762585
sS'recent'
p1124
F0.001243008079552517
sS'lower'
p1125
F0.001243008079552517
sS'task'
p1126
F0.001243008079552517
sS'person'
p1127
F0.004972032318210068
sS'organization'
p1128
F0.0006215040397762585
sS'reviewed'
p1129
F0.001243008079552517
sS'notional'
p1130
F0.0006215040397762585
sS'questions'
p1131
F0.001243008079552517
sS'love'
p1132
F0.001243008079552517
sS'alternative'
p1133
F0.0006215040397762585
sS'letting'
p1134
F0.0006215040397762585
sS'input'
p1135
F0.0006215040397762585
sS'guarantees'
p1136
F0.0018645121193287756
sS'remaining'
p1137
F0.0006215040397762585
sS'chairman'
p1138
F0.0006215040397762585
sS'customers'
p1139
F0.0006215040397762585
sS'march'
p1140
F0.0006215040397762585
sS'finalize'
p1141
F0.001243008079552517
sS'demands'
p1142
F0.0006215040397762585
sS'big'
p1143
F0.001243008079552517
sS'couple'
p1144
F0.0006215040397762585
sS'matters'
p1145
F0.0006215040397762585
sS'dockage'
p1146
F0.001243008079552517
sS'projects'
p1147
F0.0018645121193287756
sS'formal'
p1148
F0.001243008079552517
sS'submission'
p1149
F0.0074580484773151025
sS'follows'
p1150
F0.001243008079552517
sS'communications'
p1151
F0.0006215040397762585
sS'continue'
p1152
F0.002486016159105034
sS'often'
p1153
F0.001243008079552517
sS'spring'
p1154
F0.0006215040397762585
sS'some'
p1155
F0.0087010565568676201
sS'back'
p1156
F0.0055935363579863269
sS'nor'
p1157
F0.0006215040397762585
sS'economic'
p1158
F0.0006215040397762585
sS'pricing'
p1159
F0.0006215040397762585
sS'contacts'
p1160
F0.0006215040397762585
sS'decision'
p1161
F0.0018645121193287756
sS'though'
p1162
F0.001243008079552517
sS'per'
p1163
F0.0006215040397762585
sS'bonne'
p1164
F0.0031075201988812928
sS'pen'
p1165
F0.0006215040397762585
sS'be'
p1166
F0.062771908017402109
sS'effecting'
p1167
F0.0006215040397762585
sS'processing'
p1168
F0.0006215040397762585
sS'agreement'
p1169
F0.0074580484773151025
sS'carol'
p1170
F0.0006215040397762585
sS'by'
p1171
F0.053449347420758235
sS'pipeline'
p1172
F0.001243008079552517
sS'anything'
p1173
F0.004972032318210068
sS'straightened'
p1174
F0.0006215040397762585
sS'range'
p1175
F0.0006215040397762585
sS'involving'
p1176
F0.0006215040397762585
sS'consequently'
p1177
F0.001243008079552517
sS'seeing'
p1178
F0.0006215040397762585
sS'into'
p1179
F0.0068365444375388437
sS'within'
p1180
F0.0055935363579863269
sS'phase'
p1181
F0.001243008079552517
sS'appropriate'
p1182
F0.0055935363579863269
sS'primarily'
p1183
F0.0006215040397762585
sS'lesson'
p1184
F0.0006215040397762585
sS'rolls'
p1185
F0.0006215040397762585
sS'question'
p1186
F0.0006215040397762585
sS'long'
p1187
F0.0006215040397762585
sS'forward'
p1188
F0.0037290242386575512
sS'opens'
p1189
F0.0006215040397762585
sS'murphy'
p1190
F0.002486016159105034
sS'succumbed'
p1191
F0.0006215040397762585
sS'filed'
p1192
F0.0006215040397762585
sS'subsidiary'
p1193
F0.0006215040397762585
sS'line'
p1194
F0.002486016159105034
sS'info'
p1195
F0.002486016159105034
sS'up'
p1196
F0.0087010565568676201
sS'us'
p1197
F0.0080795525170913613
sS'exploration'
p1198
F0.0031075201988812928
sS'defined'
p1199
F0.001243008079552517
sS'specified'
p1200
F0.0006215040397762585
sS'phantom'
p1201
F0.0006215040397762585
sS'amounts'
p1202
F0.0006215040397762585
sS'preventing'
p1203
F0.0006215040397762585
sS'department'
p1204
F0.0006215040397762585
sS'elements'
p1205
F0.0006215040397762585
sS'problems'
p1206
F0.002486016159105034
sS'prepared'
p1207
F0.001243008079552517
sS'generated'
p1208
F0.0006215040397762585
sS'cater'
p1209
F0.0006215040397762585
sS'structure'
p1210
F0.001243008079552517
sS'ago'
p1211
F0.0006215040397762585
sS'land'
p1212
F0.0006215040397762585
sS'vice'
p1213
F0.0006215040397762585
sS'required'
p1214
F0.0043505282784338101
sS'turbines'
p1215
F0.0006215040397762585
sS'departments'
p1216
F0.0006215040397762585
sS'depth'
p1217
F0.001243008079552517
sS'inaccuracy'
p1218
F0.002486016159105034
sS'failures'
p1219
F0.0006215040397762585
sS'requires'
p1220
F0.0031075201988812928
sS'receive'
p1221
F0.001243008079552517
sS'once'
p1222
F0.0018645121193287756
sS'partial'
p1223
F0.0006215040397762585
sS'results'
p1224
F0.002486016159105034
sS'existing'
p1225
F0.0006215040397762585
sS'go'
p1226
F0.0055935363579863269
sS'gossip'
p1227
F0.0006215040397762585
sS'issues'
p1228
F0.004972032318210068
sS'excludes'
p1229
F0.0006215040397762585
sS'concerned'
p1230
F0.0006215040397762585
sS'young'
p1231
F0.0018645121193287756
sS'send'
p1232
F0.0037290242386575512
sS'helps'
p1233
F0.0006215040397762585
sS'stable'
p1234
F0.0006215040397762585
sS'fatal'
p1235
F0.0006215040397762585
sS'sent'
p1236
F0.004972032318210068
sS'presently'
p1237
F0.001243008079552517
sS'continues'
p1238
F0.001243008079552517
sS'schedule'
p1239
F0.002486016159105034
sS'acreage'
p1240
F0.001243008079552517
sS'continued'
p1241
F0.0018645121193287756
sS'arrange'
p1242
F0.001243008079552517
sS'timely'
p1243
F0.0037290242386575512
sS'transmission'
p1244
F0.0006215040397762585
sS'positions'
p1245
F0.01305158483530143
sS'notes'
p1246
F0.0006215040397762585
sS'try'
p1247
F0.0037290242386575512
sS'disbursements'
p1248
F0.0006215040397762585
sS'underscored'
p1249
F0.0006215040397762585
sS'concluded'
p1250
F0.002486016159105034
sS'compensated'
p1251
F0.0006215040397762585
sS'reconciliation'
p1252
F0.0018645121193287756
sS'business'
p1253
F0.009322560596643879
sS'slight'
p1254
F0.0006215040397762585
sS'availability'
p1255
F0.001243008079552517
sS'access'
p1256
F0.001243008079552517
sS'volatile'
p1257
F0.001243008079552517
sS'capital'
p1258
F0.0043505282784338101
sS'completion'
p1259
F0.001243008079552517
sS'led'
p1260
F0.001243008079552517
sS'exchange'
p1261
F0.001243008079552517
sS'commercial'
p1262
F0.001243008079552517
sS'delivering'
p1263
F0.0018645121193287756
sS'let'
p1264
F0.0062150403977625857
sS'others'
p1265
F0.002486016159105034
sS'great'
p1266
F0.0062150403977625857
sS'technical'
p1267
F0.0018645121193287756
sS'involved'
p1268
F0.001243008079552517
sS'products'
p1269
F0.0018645121193287756
sS'opinion'
p1270
F0.0006215040397762585
sS'involves'
p1271
F0.0006215040397762585
sS'initials'
p1272
F0.0006215040397762585
sS'manage'
p1273
F0.0043505282784338101
sS'bushman'
p1274
F0.0031075201988812928
sS'hardy'
p1275
F0.0006215040397762585
sS'addressed'
p1276
F0.001243008079552517
sS'names'
p1277
F0.0006215040397762585
sS'use'
p1278
F0.0037290242386575512
sS'from'
p1279
F0.028589185829707892
sS'next'
p1280
F0.0037290242386575512
sS'few'
p1281
F0.0006215040397762585
sS'doubt'
p1282
F0.0006215040397762585
sS'vehicle'
p1283
F0.0006215040397762585
sS'timetable'
p1284
F0.0006215040397762585
sS'historically'
p1285
F0.0006215040397762585
sS'reflects'
p1286
F0.0006215040397762585
sS'upcoming'
p1287
F0.0006215040397762585
sS'started'
p1288
F0.0006215040397762585
sS'becomes'
p1289
F0.0006215040397762585
sS'carrying'
p1290
F0.0006215040397762585
sS'this'
p1291
F0.0764449968924798
sS'saddle'
p1292
F0.0006215040397762585
sS'meet'
p1293
F0.001243008079552517
sS'control'
p1294
F0.004972032318210068
sS'plate'
p1295
F0.0006215040397762585
sS'process'
p1296
F0.009322560596643879
sS'inaccessible'
p1297
F0.0006215040397762585
sS'purposes'
p1298
F0.001243008079552517
sS'high'
p1299
F0.0037290242386575512
sS'something'
p1300
F0.002486016159105034
sS'sought'
p1301
F0.001243008079552517
sS'hesitate'
p1302
F0.0006215040397762585
sS'maturities'
p1303
F0.0006215040397762585
sS'arrangement'
p1304
F0.0006215040397762585
sS'traders'
p1305
F0.001243008079552517
sS'located'
p1306
F0.0006215040397762585
sS'stock'
p1307
F0.0006215040397762585
sS'attend'
p1308
F0.0062150403977625857
sS'tied'
p1309
F0.0006215040397762585
sS'billings'
p1310
F0.001243008079552517
sS'monitoring'
p1311
F0.0006215040397762585
sS'light'
p1312
F0.0018645121193287756
sS'move'
p1313
F0.004972032318210068
sS'whilst'
p1314
F0.0006215040397762585
sS'including'
p1315
F0.0018645121193287756
sS'looks'
p1316
F0.001243008079552517
sS'mentioned'
p1317
F0.0043505282784338101
sS'fortunate'
p1318
F0.001243008079552517
sS'warren'
p1319
F0.0006215040397762585
sS'perfect'
p1320
F0.0006215040397762585
sS'meantime'
p1321
F0.0006215040397762585
sS'willing'
p1322
F0.001243008079552517
sS'derivative'
p1323
F0.001243008079552517
sS'holiday'
p1324
F0.001243008079552517
sS'defining'
p1325
F0.0006215040397762585
sS'material'
p1326
F0.0006215040397762585
sS'commitment'
p1327
F0.002486016159105034
sS'cutting'
p1328
F0.0006215040397762585
sS'day'
p1329
F0.0055935363579863269
sS'edit'
p1330
F0.0006215040397762585
sS'identified'
p1331
F0.0006215040397762585
sS'slide'
p1332
F0.001243008079552517
sS'unwind'
p1333
F0.0006215040397762585
sS'doing'
p1334
F0.001243008079552517
sS'apologize'
p1335
F0.0006215040397762585
sS'related'
p1336
F0.0031075201988812928
sS'books'
p1337
F0.0037290242386575512
sS'our'
p1338
F0.024238657551274082
sS'special'
p1339
F0.0006215040397762585
sS'out'
p1340
F0.0055935363579863269
sS'hedges'
p1341
F0.0006215040397762585
sS'customary'
p1342
F0.0006215040397762585
sS'proviso'
p1343
F0.0006215040397762585
sS'approached'
p1344
F0.0006215040397762585
sS'frank'
p1345
F0.001243008079552517
sS'recommendations'
p1346
F0.0006215040397762585
sS'molly'
p1347
F0.0031075201988812928
sS'promptly'
p1348
F0.0006215040397762585
sS'completely'
p1349
F0.0006215040397762585
sS'advisor'
p1350
F0.0006215040397762585
sS'regulatory'
p1351
F0.0006215040397762585
sS'her'
p1352
F0.0006215040397762585
sS'determining'
p1353
F0.0006215040397762585
sS'could'
p1354
F0.010565568676196395
sS'times'
p1355
F0.0031075201988812928
sS'conversation'
p1356
F0.001243008079552517
sS'retail'
p1357
F0.0018645121193287756
sS'owned'
p1358
F0.0006215040397762585
sS'strategic'
p1359
F0.0006215040397762585
sS'date'
p1360
F0.002486016159105034
sS'submit'
p1361
F0.0006215040397762585
sS'owner'
p1362
F0.0018645121193287756
sS'quality'
p1363
F0.0006215040397762585
sS'covenants'
p1364
F0.001243008079552517
sS'management'
p1365
F0.0068365444375388437
sS'data'
p1366
F0.0062150403977625857
sS'system'
p1367
F0.0043505282784338101
sS'adopted'
p1368
F0.0006215040397762585
sS'their'
p1369
F0.0087010565568676201
sS'final'
p1370
F0.0068365444375388437
sS'painful'
p1371
F0.0006215040397762585
sS'circulate'
p1372
F0.0006215040397762585
sS'completed'
p1373
F0.0043505282784338101
sS'exactly'
p1374
F0.0006215040397762585
sS'regards'
p1375
F0.004972032318210068
sS'remember'
p1376
F0.0006215040397762585
sS'steel'
p1377
F0.001243008079552517
sS'ben'
p1378
F0.0018645121193287756
sS'submitted'
p1379
F0.0037290242386575512
sS'compensation'
p1380
F0.0006215040397762585
sS'maybe'
p1381
F0.002486016159105034
sS'providing'
p1382
F0.0006215040397762585
sS'curves'
p1383
F0.0037290242386575512
sS'comfortable'
p1384
F0.0006215040397762585
sS'unlikely'
p1385
F0.001243008079552517
sS'have'
p1386
F0.05593536357986327
sS'need'
p1387
F0.018023617153511497
sS'constrained'
p1388
F0.0006215040397762585
sS'apparently'
p1389
F0.0006215040397762585
sS'documents'
p1390
F0.001243008079552517
sS'able'
p1391
F0.004972032318210068
sS'battles'
p1392
F0.0006215040397762585
sS'concerns'
p1393
F0.0006215040397762585
sS'which'
p1394
F0.016159105034182723
sS'unless'
p1395
F0.0018645121193287756
sS'who'
p1396
F0.0055935363579863269
sS'sally'
p1397
F0.0006215040397762585
sS'why'
p1398
F0.0006215040397762585
sS'request'
p1399
F0.0006215040397762585
sS'face'
p1400
F0.001243008079552517
sS'looked'
p1401
F0.0006215040397762585
sS'diluted'
p1402
F0.0006215040397762585
sS'agreed'
p1403
F0.0018645121193287756
sS'terminate'
p1404
F0.0006215040397762585
sS'bring'
p1405
F0.0006215040397762585
sS'planning'
p1406
F0.0018645121193287756
sS'portfolio'
p1407
F0.0018645121193287756
sS'pleased'
p1408
F0.001243008079552517
sS'staff'
p1409
F0.0018645121193287756
sS'based'
p1410
F0.001243008079552517
sS'knowledge'
p1411
F0.0006215040397762585
sS'jay'
p1412
F0.0018645121193287756
sS'controls'
p1413
F0.0018645121193287756
sS'should'
p1414
F0.016159105034182723
sS'terminal'
p1415
F0.0006215040397762585
sS'fuel'
p1416
F0.0006215040397762585
sS'employed'
p1417
F0.0006215040397762585
sS'hope'
p1418
F0.0037290242386575512
sS'means'
p1419
F0.0018645121193287756
sS'spud'
p1420
F0.0006215040397762585
sS'overall'
p1421
F0.001243008079552517
sS'bear'
p1422
F0.0006215040397762585
sS'joint'
p1423
F0.0006215040397762585
sS'coordinating'
p1424
F0.0006215040397762585
sS'timing'
p1425
F0.0006215040397762585
sS'leases'
p1426
F0.0006215040397762585
sS'areas'
p1427
F0.0031075201988812928
sS'processes'
p1428
F0.0018645121193287756
sS'committees'
p1429
F0.0006215040397762585
sS'stuff'
p1430
F0.0006215040397762585
sS'she'
p1431
F0.001243008079552517
sS'tightening'
p1432
F0.0006215040397762585
sS'grab'
p1433
F0.0006215040397762585
sS'view'
p1434
F0.0006215040397762585
sS'requirement'
p1435
F0.001243008079552517
sS'exists'
p1436
F0.001243008079552517
sS'freeze'
p1437
F0.0006215040397762585
sS'computer'
p1438
F0.0006215040397762585
sS'clearing'
p1439
F0.0006215040397762585
sS'realign'
p1440
F0.001243008079552517
sS'written'
p1441
F0.001243008079552517
sS'closed'
p1442
F0.002486016159105034
sS'crude'
p1443
F0.0006215040397762585
sS'progress'
p1444
F0.001243008079552517
sS'neither'
p1445
F0.0006215040397762585
sS'frustrated'
p1446
F0.0006215040397762585
sS'ken'
p1447
F0.0043505282784338101
sS'ability'
p1448
F0.002486016159105034
sS'importance'
p1449
F0.0006215040397762585
sS'sorrow'
p1450
F0.0006215040397762585
sS'deliver'
p1451
F0.002486016159105034
sS'implementing'
p1452
F0.0018645121193287756
sS'job'
p1453
F0.0018645121193287756
sS'joe'
p1454
F0.001243008079552517
sS'merry'
p1455
F0.0006215040397762585
sS'approval'
p1456
F0.0062150403977625857
sS'nominations'
p1457
F0.0006215040397762585
sS'monitor'
p1458
F0.0006215040397762585
sS'diligent'
p1459
F0.0006215040397762585
sS'taking'
p1460
F0.0031075201988812928
sS'acknowledge'
p1461
F0.0006215040397762585
sS'equal'
p1462
F0.001243008079552517
sS'passing'
p1463
F0.001243008079552517
sS'otherwise'
p1464
F0.0006215040397762585
sS'aa'
p1465
F0.001243008079552517
sS'adjusted'
p1466
F0.0006215040397762585
sS'dial'
p1467
F0.0006215040397762585
sS'table'
p1468
F0.001243008079552517
sS'allocated'
p1469
F0.0006215040397762585
sS'addition'
p1470
F0.0006215040397762585
sS'copies'
p1471
F0.0006215040397762585
sS'seasoned'
p1472
F0.0006215040397762585
sS'agreements'
p1473
F0.0037290242386575512
sS'reservations'
p1474
F0.0006215040397762585
sS'kitchen'
p1475
F0.0006215040397762585
sS'mike'
p1476
F0.0080795525170913613
sS'arises'
p1477
F0.0006215040397762585
sS'controlled'
p1478
F0.001243008079552517
sS'valuations'
p1479
F0.001243008079552517
sS'am'
p1480
F0.039776258545680544
sS'cypress'
p1481
F0.0062150403977625857
sS'decreased'
p1482
F0.0006215040397762585
sS'tangible'
p1483
F0.002486016159105034
sS'an'
p1484
F0.018645121193287758
sS'present'
p1485
F0.001243008079552517
sS'value'
p1486
F0.0037290242386575512
sS'will'
p1487
F0.053449347420758235
sS'promoted'
p1488
F0.0006215040397762585
sS'site'
p1489
F0.001243008079552517
sS'partner'
p1490
F0.0006215040397762585
sS'perhaps'
p1491
F0.0006215040397762585
sS'cross'
p1492
F0.0006215040397762585
sS'highlighted'
p1493
F0.0006215040397762585
sS'speaker'
p1494
F0.0006215040397762585
sS'party'
p1495
F0.0031075201988812928
sS'difficult'
p1496
F0.0018645121193287756
sS'reporting'
p1497
F0.0037290242386575512
sS'upon'
p1498
F0.001243008079552517
sS'frequently'
p1499
F0.0006215040397762585
sS'expand'
p1500
F0.001243008079552517
sS'insure'
p1501
F0.0006215040397762585
sS'transaction'
p1502
F0.0031075201988812928
sS'off'
p1503
F0.002486016159105034
sS'obstacles'
p1504
F0.0018645121193287756
sS'well'
p1505
F0.0087010565568676201
sS'thought'
p1506
F0.0006215040397762585
sS'position'
p1507
F0.002486016159105034
sS'arising'
p1508
F0.0006215040397762585
sS'routinely'
p1509
F0.0006215040397762585
sS'less'
p1510
F0.0018645121193287756
sS'increasingly'
p1511
F0.0006215040397762585
sS'accurate'
p1512
F0.002486016159105034
sS'executive'
p1513
F0.0031075201988812928
sS'obtain'
p1514
F0.001243008079552517
sS'underlying'
p1515
F0.0018645121193287756
sS'coordination'
p1516
F0.0006215040397762585
sS'wed'
p1517
F0.0006215040397762585
sS'guts'
p1518
F0.0006215040397762585
sS'smith'
p1519
F0.002486016159105034
sS'capabilities'
p1520
F0.0006215040397762585
sS'add'
p1521
F0.0018645121193287756
sS'maintaining'
p1522
F0.0006215040397762585
sS'smart'
p1523
F0.0006215040397762585
sS'kick'
p1524
F0.0006215040397762585
sS'tests'
p1525
F0.0006215040397762585
sS'increased'
p1526
F0.0006215040397762585
sS'provisions'
p1527
F0.001243008079552517
sS'checking'
p1528
F0.001243008079552517
sS'know'
p1529
F0.014916096954630205
sS'desk'
p1530
F0.0006215040397762585
sS'immediately'
p1531
F0.001243008079552517
sS'necessary'
p1532
F0.002486016159105034
sS'like'
p1533
F0.0087010565568676201
sS'success'
p1534
F0.001243008079552517
sS'sized'
p1535
F0.0006215040397762585
sS'martin'
p1536
F0.0018645121193287756
sS'become'
p1537
F0.0006215040397762585
sS'works'
p1538
F0.001243008079552517
sS'replacement'
p1539
F0.0006215040397762585
sS'because'
p1540
F0.0043505282784338101
sS'foreseeable'
p1541
F0.0006215040397762585
sS'authority'
p1542
F0.0006215040397762585
sS'growth'
p1543
F0.002486016159105034
sS'choosing'
p1544
F0.0006215040397762585
sS'recommendation'
p1545
F0.0006215040397762585
sS'supportive'
p1546
F0.001243008079552517
sS'employment'
p1547
F0.0006215040397762585
sS'happens'
p1548
F0.001243008079552517
sS'lead'
p1549
F0.0006215040397762585
sS'broad'
p1550
F0.0006215040397762585
sS'avoid'
p1551
F0.0006215040397762585
sS'does'
p1552
F0.002486016159105034
sS'assuming'
p1553
F0.0006215040397762585
sS'reaching'
p1554
F0.001243008079552517
sS'monetary'
p1555
F0.0006215040397762585
sS'pressure'
p1556
F0.0006215040397762585
sS'expire'
p1557
F0.0006215040397762585
sS'although'
p1558
F0.001243008079552517
sS'marketable'
p1559
F0.001243008079552517
sS'about'
p1560
F0.0074580484773151025
sS'actual'
p1561
F0.001243008079552517
sS'extension'
p1562
F0.0006215040397762585
sS'getting'
p1563
F0.0018645121193287756
sS'own'
p1564
F0.0006215040397762585
sS'coverage'
p1565
F0.0006215040397762585
sS'functional'
p1566
F0.0006215040397762585
sS'assess'
p1567
F0.0006215040397762585
sS'significantly'
p1568
F0.0031075201988812928
sS'additional'
p1569
F0.002486016159105034
sS'transfer'
p1570
F0.002486016159105034
sS'justifying'
p1571
F0.0006215040397762585
sS'cantina'
p1572
F0.0006215040397762585
sS'imperial'
p1573
F0.002486016159105034
sS'solidify'
p1574
F0.0006215040397762585
sS'buy'
p1575
F0.01305158483530143
sS'north'
p1576
F0.0031075201988812928
sS'funds'
p1577
F0.0018645121193287756
sS'but'
p1578
F0.023617153511497825
sS'reminds'
p1579
F0.0006215040397762585
sS'brant'
p1580
F0.001243008079552517
sS'valuation'
p1581
F0.002486016159105034
sS'he'
p1582
F0.014916096954630205
sS'count'
p1583
F0.0006215040397762585
sS'made'
p1584
F0.0043505282784338101
sS'places'
p1585
F0.0006215040397762585
sS'whether'
p1586
F0.0031075201988812928
sS'signed'
p1587
F0.001243008079552517
sS'record'
p1588
F0.0006215040397762585
sS'below'
p1589
F0.0006215040397762585
sS'intangible'
p1590
F0.001243008079552517
sS'limit'
p1591
F0.0006215040397762585
sS'inquired'
p1592
F0.0006215040397762585
sS'distribution'
p1593
F0.0018645121193287756
sS'recognize'
p1594
F0.0006215040397762585
sS'relates'
p1595
F0.001243008079552517
sS'shooting'
p1596
F0.0006215040397762585
sS'calibration'
p1597
F0.0006215040397762585
sS'corporation'
p1598
F0.0031075201988812928
sS'detail'
p1599
F0.0006215040397762585
sS'other'
p1600
F0.0055935363579863269
sS'details'
p1601
F0.001243008079552517
sS'lance'
p1602
F0.0006215040397762585
sS'repeat'
p1603
F0.0006215040397762585
sS'stay'
p1604
F0.0037290242386575512
sS'stab'
p1605
F0.0006215040397762585
sS'exposure'
p1606
F0.0074580484773151025
sS'appoint'
p1607
F0.0006215040397762585
sS'intentionally'
p1608
F0.0006215040397762585
sS'portion'
p1609
F0.001243008079552517
sS'validation'
p1610
F0.0006215040397762585
s.