(dp1
S'and'
p2
F0.013361735089078234
sS'that'
p3
F0.0077459333849728895
sS'this'
p4
F0.0073586367157242446
sS'mean_word_length'
p5
F3.6153846153846154
sS'however'
p6
F0
sS'but'
p7
F0.0052285050348567005
sS'very'
p8
F0.0013555383423702555
sS'must'
p9
F0.00019364833462432224
sS'type_token_ratio'
p10
F0.87311453533144534
sS'more'
p11
F0.00058094500387296665
sS'might'
p12
F0.00038729666924864449
sS'if'
p13
F0.0038729666924864447
s.