(dp1
S'and'
p2
F0.015420403415873404
sS'that'
p3
F0.0063848673135196354
sS'very'
p4
F0.00033056839398855255
sS'mean_word_length'
p5
F5.0053763440860219
sS'sentence_standard_deviation'
p6
F51.818687569163984
sS'however'
p7
F0.0004101496740228337
sS'but'
p8
F0.0016467203330170488
sS'this'
p9
F0.0098007407180680118
sS'type_token_ratio'
p10
F0.72108144232108906
sS'more'
p11
F0.00095497536041137397
sS'must'
p12
F0.00050197422790854271
sS'might'
p13
F0.00018364910777141807
sS'mean_sentence_length'
p14
F35.727362107953986
sS'if'
p15
F0.0047014171589483027
s.