(dp1
S'and'
p2
F0.01808979494764067
sS'that'
p3
F0.0073355084689077001
sS'this'
p4
F0.010122555759526128
sS'mean_word_length'
p5
F4.0966183574879231
sS'however'
p6
F0.00026755653989936904
sS'but'
p7
F0.0042363118817400095
sS'very'
p8
F0.00031214929654926383
sS'must'
p9
F0.00020066740492452677
sS'type_token_ratio'
p10
F0.68944888989253361
sS'if'
p11
F0.0056038230856701177
sS'might'
p12
F0.00063173071920684355
sS'more'
p13
F0.0015087215999881087
s.