(dp1
S'and'
p2
F0.015830381574308786
sS'that'
p3
F0.0072017324447279625
sS'this'
p4
F0.0077557118635531901
sS'mean_word_length'
p5
F5.0758293838862558
sS'however'
p6
F0.00013429804092732797
sS'but'
p7
F0.0016115764911279356
sS'very'
p8
F0.00067149020463663984
sS'more'
p9
F0.0008057882455639678
sS'if'
p10
F0.004549346136413235
sS'might'
p11
F0.00035253235743423593
sS'must'
p12
F0.00033574510231831992
s.