(dp1
S'limited'
p2
F0.0010822510822510823
sS'bossier'
p3
F0.00021645021645021645
sS'todays'
p4
F0.0004329004329004329
sS'represent'
p5
F0.00021645021645021645
sS'surrounding'
p6
F0.00021645021645021645
sS'consolidated'
p7
F0.0004329004329004329
sS'nets'
p8
F0.00021645021645021645
sS'saves'
p9
F0.00021645021645021645
sS'monte'
p10
F0.00021645021645021645
sS'yellow'
p11
F0.0004329004329004329
sS'four'
p12
F0.003246753246753247
sS'facilities'
p13
F0.0008658008658008658
sS'protest'
p14
F0.00021645021645021645
sS'sleep'
p15
F0.0008658008658008658
sS'controversial'
p16
F0.00064935064935064935
sS'mirage'
p17
F0.00021645021645021645
sS'woody'
p18
F0.00064935064935064935
sS'appetite'
p19
F0.0004329004329004329
sS'captain'
p20
F0.0017316017316017316
sS'saved'
p21
F0.0008658008658008658
sS'aggression'
p22
F0.00021645021645021645
sS'consider'
p23
F0.00064935064935064935
sS'relationships'
p24
F0.0004329004329004329
sS'whose'
p25
F0.0004329004329004329
sS'votes'
p26
F0.0012987012987012987
sS'voter'
p27
F0.0021645021645021645
sS'violate'
p28
F0.00021645021645021645
sS'granting'
p29
F0.00021645021645021645
sS'spew'
p30
F0.0004329004329004329
sS'swan'
p31
F0.00021645021645021645
sS'originality'
p32
F0.00021645021645021645
sS'bike'
p33
F0.0004329004329004329
sS'indicate'
p34
F0.00021645021645021645
sS'swap'
p35
F0.0017316017316017316
sS'under'
p36
F0.005411255411255411
sS'lord'
p37
F0.0004329004329004329
sS'sorry'
p38
F0.011038961038961039
sS'dependency'
p39
F0.00021645021645021645
sS'worth'
p40
F0.0036796536796536799
sS'updated'
p41
F0.0030303030303030303
sS'lack'
p42
F0.0008658008658008658
sS'cruising'
p43
F0.0004329004329004329
sS'risk'
p44
F0.0088744588744588751
sS'aurora'
p45
F0.0010822510822510823
sS'regional'
p46
F0.00021645021645021645
sS'vitreous'
p47
F0.00021645021645021645
sS'smack'
p48
F0.00021645021645021645
sS'every'
p49
F0.0069264069264069264
sS'jack'
p50
F0.00021645021645021645
sS'kick'
p51
F0.00064935064935064935
sS'unify'
p52
F0.00021645021645021645
sS'asphalt'
p53
F0.00021645021645021645
sS'ala'
p54
F0.00021645021645021645
sS'bringing'
p55
F0.0008658008658008658
sS'courageous'
p56
F0.0004329004329004329
sS'special'
p57
F0.0017316017316017316
sS'tickets'
p58
F0.0047619047619047623
sS'believed'
p59
F0.0004329004329004329
sS'school'
p60
F0.0047619047619047623
sS'baking'
p61
F0.00021645021645021645
sS'skills'
p62
F0.00064935064935064935
sS'loneliness'
p63
F0.00021645021645021645
sS'companies'
p64
F0.00021645021645021645
sS'wednesday'
p65
F0.0047619047619047623
sS'loof'
p66
F0.00021645021645021645
sS'convenience'
p67
F0.0004329004329004329
sS'notifying'
p68
F0.00021645021645021645
sS'sexton'
p69
F0.00021645021645021645
sS'enhance'
p70
F0.00021645021645021645
sS'shows'
p71
F0.0004329004329004329
sS'glued'
p72
F0.00021645021645021645
sS'commented'
p73
F0.0004329004329004329
sS'clothes'
p74
F0.0012987012987012987
sS'enjoy'
p75
F0.0023809523809523812
sS'force'
p76
F0.0004329004329004329
sS'leaders'
p77
F0.0017316017316017316
sS'bo'
p78
F0.00064935064935064935
sS'tired'
p79
F0.0004329004329004329
sS'miller'
p80
F0.0008658008658008658
sS'consistent'
p81
F0.00021645021645021645
sS'guidelines'
p82
F0.00021645021645021645
sS'direct'
p83
F0.0023809523809523812
sS'batch'
p84
F0.00021645021645021645
sS'nail'
p85
F0.00021645021645021645
sS'across'
p86
F0.0017316017316017316
sS'likely'
p87
F0.00064935064935064935
sS'street'
p88
F0.0015151515151515152
sS'pans'
p89
F0.00021645021645021645
sS'currie'
p90
F0.00064935064935064935
sS'implemented'
p91
F0.0004329004329004329
sS'machines'
p92
F0.0004329004329004329
sS'institute'
p93
F0.00021645021645021645
sS'even'
p94
F0.0049783549783549786
sS'errors'
p95
F0.0012987012987012987
sS'relieving'
p96
F0.00021645021645021645
sS'preferences'
p97
F0.00021645021645021645
sS'tiered'
p98
F0.00021645021645021645
sS'ruthless'
p99
F0.00021645021645021645
sS'hate'
p100
F0.0008658008658008658
sS'panama'
p101
F0.00021645021645021645
sS'selected'
p102
F0.0004329004329004329
sS'fingers'
p103
F0.0008658008658008658
sS'poison'
p104
F0.00021645021645021645
sS'explain'
p105
F0.0004329004329004329
sS'haze'
p106
F0.00021645021645021645
sS'cotes'
p107
F0.00021645021645021645
sS'above'
p108
F0.0017316017316017316
sS'conduct'
p109
F0.00021645021645021645
sS'new'
p110
F0.030735930735930735
sS'net'
p111
F0.0004329004329004329
sS'increasing'
p112
F0.00021645021645021645
sS'ever'
p113
F0.003246753246753247
sS'consisting'
p114
F0.0004329004329004329
sS'told'
p115
F0.0047619047619047623
sS'disappoint'
p116
F0.00021645021645021645
sS'agreement'
p117
F0.0008658008658008658
sS'million'
p118
F0.0008658008658008658
sS'evaluating'
p119
F0.00021645021645021645
sS'reporter'
p120
F0.00021645021645021645
sS'deadbeat'
p121
F0.00021645021645021645
sS'never'
p122
F0.0034632034632034632
sS'personnel'
p123
F0.0004329004329004329
sS'richest'
p124
F0.0004329004329004329
sS'here'
p125
F0.022077922077922078
sS'reported'
p126
F0.0004329004329004329
sS'pate'
p127
F0.0010822510822510823
sS'possibility'
p128
F0.00021645021645021645
sS'humility'
p129
F0.00021645021645021645
sS'active'
p130
F0.0008658008658008658
sS'buddy'
p131
F0.0056277056277056281
sS'kids'
p132
F0.0034632034632034632
sS'daughter'
p133
F0.0004329004329004329
sS'forum'
p134
F0.0004329004329004329
sS'items'
p135
F0.0012987012987012987
sS'leaves'
p136
F0.0012987012987012987
sS'changed'
p137
F0.0034632034632034632
sS'typically'
p138
F0.00021645021645021645
sS'reports'
p139
F0.004329004329004329
sS'guide'
p140
F0.00021645021645021645
sS'credit'
p141
F0.013852813852813853
sS'jill'
p142
F0.0004329004329004329
sS'personify'
p143
F0.00021645021645021645
sS'repair'
p144
F0.00021645021645021645
sS'complicated'
p145
F0.00021645021645021645
sS'permission'
p146
F0.0004329004329004329
sS'aura'
p147
F0.00021645021645021645
sS'changes'
p148
F0.005411255411255411
sS'criticism'
p149
F0.00021645021645021645
sS'accountings'
p150
F0.00021645021645021645
sS'prints'
p151
F0.00021645021645021645
sS'besides'
p152
F0.00064935064935064935
sS'campaign'
p153
F0.00021645021645021645
sS'grumbled'
p154
F0.00021645021645021645
sS'touchdowns'
p155
F0.0004329004329004329
sS'explained'
p156
F0.00021645021645021645
sS'infield'
p157
F0.00021645021645021645
sS'visibly'
p158
F0.00021645021645021645
sS'excuse'
p159
F0.0004329004329004329
sS'feelings'
p160
F0.00064935064935064935
sS'brought'
p161
F0.0012987012987012987
sS'visible'
p162
F0.00021645021645021645
sS'cranium'
p163
F0.00021645021645021645
sS'steno'
p164
F0.00021645021645021645
sS'guests'
p165
F0.00021645021645021645
sS'total'
p166
F0.0045454545454545452
sS'missile'
p167
F0.00021645021645021645
sS'derivatives'
p168
F0.0004329004329004329
sS'sexual'
p169
F0.00021645021645021645
sS'scarred'
p170
F0.00021645021645021645
sS'spoke'
p171
F0.0015151515151515152
sS'would'
p172
F0.029004329004329005
sS'army'
p173
F0.0004329004329004329
sS'marine'
p174
F0.0021645021645021645
sS'hospital'
p175
F0.0004329004329004329
sS'achieve'
p176
F0.00021645021645021645
sS'negative'
p177
F0.0049783549783549786
sS'discrepancies'
p178
F0.00021645021645021645
sS'chargers'
p179
F0.00021645021645021645
sS'asses'
p180
F0.00021645021645021645
sS'noting'
p181
F0.0004329004329004329
sS'call'
p182
F0.012121212121212121
sS'therefore'
p183
F0.0017316017316017316
sS'typo'
p184
F0.0004329004329004329
sS'recommend'
p185
F0.00021645021645021645
sS'survive'
p186
F0.00064935064935064935
sS'type'
p187
F0.0025974025974025974
sS'tell'
p188
F0.005411255411255411
sS'voted'
p189
F0.00021645021645021645
sS'separated'
p190
F0.0004329004329004329
sS'preparation'
p191
F0.0004329004329004329
sS'paperwork'
p192
F0.0004329004329004329
sS'posting'
p193
F0.0012987012987012987
sS'lungs'
p194
F0.00021645021645021645
sS'relax'
p195
F0.0004329004329004329
sS'successful'
p196
F0.0004329004329004329
sS'holt'
p197
F0.0004329004329004329
sS'watts'
p198
F0.00021645021645021645
sS'muse'
p199
F0.0025974025974025974
sS'aware'
p200
F0.0015151515151515152
sS'melba'
p201
F0.0034632034632034632
sS'phone'
p202
F0.0041125541125541128
sS'corrosion'
p203
F0.00021645021645021645
sS'adult'
p204
F0.00021645021645021645
sS'tying'
p205
F0.00021645021645021645
sS'excellent'
p206
F0.0004329004329004329
sS'hold'
p207
F0.0034632034632034632
sS'must'
p208
F0.0051948051948051948
sS'shoot'
p209
F0.00064935064935064935
sS'springer'
p210
F0.00021645021645021645
sS'pride'
p211
F0.00021645021645021645
sS'word'
p212
F0.0023809523809523812
sS'room'
p213
F0.0041125541125541128
sS'reed'
p214
F0.00021645021645021645
sS'rights'
p215
F0.00021645021645021645
sS'work'
p216
F0.010173160173160173
sS'worn'
p217
F0.00021645021645021645
sS'unprovoked'
p218
F0.00021645021645021645
sS'groves'
p219
F0.0010822510822510823
sS'solitaire'
p220
F0.00021645021645021645
sS'sweeter'
p221
F0.00021645021645021645
sS'henry'
p222
F0.0004329004329004329
sS'elbow'
p223
F0.00021645021645021645
sS'revenues'
p224
F0.0004329004329004329
sS'giron'
p225
F0.0062770562770562768
sS'example'
p226
F0.0015151515151515152
sS'gloria'
p227
F0.00021645021645021645
sS'shook'
p228
F0.00021645021645021645
sS'decorative'
p229
F0.00021645021645021645
sS'defer'
p230
F0.00021645021645021645
sS'loosen'
p231
F0.0004329004329004329
sS'indicated'
p232
F0.0004329004329004329
sS'give'
p233
F0.015584415584415584
sS'husband'
p234
F0.0004329004329004329
sS'involve'
p235
F0.0008658008658008658
sS'mayhem'
p236
F0.00021645021645021645
sS'overheard'
p237
F0.00021645021645021645
sS'reviewing'
p238
F0.00064935064935064935
sS'want'
p239
F0.012121212121212121
sS'scheduling'
p240
F0.00021645021645021645
sS'organizer'
p241
F0.00021645021645021645
sS'times'
p242
F0.0028138528138528141
sS'guarantee'
p243
F0.00021645021645021645
sS'sought'
p244
F0.0004329004329004329
sS'end'
p245
F0.0064935064935064939
sS'turn'
p246
F0.0015151515151515152
sS'provide'
p247
F0.0036796536796536799
sS'verify'
p248
F0.0030303030303030303
sS'travel'
p249
F0.0010822510822510823
sS'machine'
p250
F0.0008658008658008658
sS'how'
p251
F0.018831168831168831
sS'hot'
p252
F0.00064935064935064935
sS'accusations'
p253
F0.0008658008658008658
sS'answer'
p254
F0.0008658008658008658
sS'gate'
p255
F0.0017316017316017316
sS'ordinary'
p256
F0.00021645021645021645
sS'trustee'
p257
F0.0008658008658008658
sS'beach'
p258
F0.00064935064935064935
sS'offshore'
p259
F0.0008658008658008658
sS'lam'
p260
F0.00021645021645021645
sS'fever'
p261
F0.00021645021645021645
sS'description'
p262
F0.0004329004329004329
sS'beauty'
p263
F0.0012987012987012987
sS'replacing'
p264
F0.0004329004329004329
sS'after'
p265
F0.0090909090909090905
sS'memorial'
p266
F0.00064935064935064935
sS'demanding'
p267
F0.0004329004329004329
sS'customs'
p268
F0.00021645021645021645
sS'possum'
p269
F0.00021645021645021645
sS'wrong'
p270
F0.0023809523809523812
sS'lay'
p271
F0.0004329004329004329
sS'president'
p272
F0.0067099567099567102
sS'summarize'
p273
F0.00021645021645021645
sS'law'
p274
F0.0004329004329004329
sS'arch'
p275
F0.00021645021645021645
sS'excited'
p276
F0.00021645021645021645
sS'types'
p277
F0.0004329004329004329
sS'bucks'
p278
F0.00021645021645021645
sS'purchase'
p279
F0.0038961038961038961
sS'concannon'
p280
F0.00064935064935064935
sS'retail'
p281
F0.00021645021645021645
sS'attempt'
p282
F0.00064935064935064935
sS'splendid'
p283
F0.00021645021645021645
sS'effective'
p284
F0.0017316017316017316
sS'sets'
p285
F0.00021645021645021645
sS'wins'
p286
F0.00021645021645021645
sS'appreciate'
p287
F0.0019480519480519481
sS'season'
p288
F0.0017316017316017316
sS'complaining'
p289
F0.00021645021645021645
sS'maintain'
p290
F0.0010822510822510823
sS'upside'
p291
F0.00021645021645021645
sS'teammates'
p292
F0.00064935064935064935
sS'enter'
p293
F0.00064935064935064935
sS'elementary'
p294
F0.00021645021645021645
sS'democratic'
p295
F0.00021645021645021645
sS'athletes'
p296
F0.00021645021645021645
sS'order'
p297
F0.0056277056277056281
sS'updates'
p298
F0.00021645021645021645
sS'operations'
p299
F0.0004329004329004329
sS'executed'
p300
F0.0004329004329004329
sS'feedback'
p301
F0.00064935064935064935
sS'office'
p302
F0.004329004329004329
sS'over'
p303
F0.011255411255411256
sS'polytechnic'
p304
F0.00021645021645021645
sS'satisfied'
p305
F0.00021645021645021645
sS'affect'
p306
F0.00021645021645021645
sS'panthers'
p307
F0.0008658008658008658
sS'hook'
p308
F0.0004329004329004329
sS'before'
p309
F0.0093073593073593076
sS'fir'
p310
F0.0008658008658008658
sS'fit'
p311
F0.0008658008658008658
sS'somewhere'
p312
F0.00064935064935064935
sS'screaming'
p313
F0.00021645021645021645
sS'fix'
p314
F0.00021645021645021645
sS'striking'
p315
F0.00021645021645021645
sS'christie'
p316
F0.00021645021645021645
sS'writing'
p317
F0.00064935064935064935
sS'better'
p318
F0.0036796536796536799
sS'imp'
p319
F0.00021645021645021645
sS'production'
p320
F0.003246753246753247
sS'descend'
p321
F0.00021645021645021645
sS'approve'
p322
F0.00021645021645021645
sS'enlisted'
p323
F0.00021645021645021645
sS'omitted'
p324
F0.00021645021645021645
sS'weeks'
p325
F0.0036796536796536799
sS'fin'
p326
F0.00064935064935064935
sS'easier'
p327
F0.0008658008658008658
sS'split'
p328
F0.0010822510822510823
sS'versus'
p329
F0.00021645021645021645
sS'then'
p330
F0.013203463203463203
sS'them'
p331
F0.017965367965367966
sS'lambert'
p332
F0.00021645021645021645
sS'slate'
p333
F0.0030303030303030303
sS'grand'
p334
F0.00021645021645021645
sS'accrual'
p335
F0.0004329004329004329
sS'finish'
p336
F0.00064935064935064935
sS'break'
p337
F0.00064935064935064935
sS'academics'
p338
F0.0004329004329004329
sS'bang'
p339
F0.00021645021645021645
sS'therapy'
p340
F0.00021645021645021645
sS'they'
p341
F0.035064935064935063
sS'flotation'
p342
F0.00021645021645021645
sS'schools'
p343
F0.0008658008658008658
sS'internally'
p344
F0.00021645021645021645
sS'sixteen'
p345
F0.00021645021645021645
sS'bank'
p346
F0.0012987012987012987
sS'bread'
p347
F0.00021645021645021645
sS'represents'
p348
F0.00021645021645021645
sS'meat'
p349
F0.0004329004329004329
sS'oxygen'
p350
F0.00021645021645021645
sS'notified'
p351
F0.0012987012987012987
sS'chuck'
p352
F0.003246753246753247
sS'explode'
p353
F0.0004329004329004329
sS'luce'
p354
F0.00021645021645021645
sS'filling'
p355
F0.00021645021645021645
sS'victories'
p356
F0.00021645021645021645
sS'capricious'
p357
F0.0004329004329004329
sS'victory'
p358
F0.0012987012987012987
sS'reasonable'
p359
F0.0008658008658008658
sS'each'
p360
F0.00974025974025974
sS'went'
p361
F0.0041125541125541128
sS'mad'
p362
F0.00021645021645021645
sS'side'
p363
F0.0015151515151515152
sS'mean'
p364
F0.0021645021645021645
sS'hank'
p365
F0.00064935064935064935
sS'bright'
p366
F0.00021645021645021645
sS'financial'
p367
F0.0080086580086580084
sS'series'
p368
F0.00021645021645021645
sS'stronger'
p369
F0.00021645021645021645
sS'rally'
p370
F0.00021645021645021645
sS'marital'
p371
F0.00021645021645021645
sS'carry'
p372
F0.0004329004329004329
sS'taught'
p373
F0.00021645021645021645
sS'trading'
p374
F0.0038961038961038961
sS'forgot'
p375
F0.0010822510822510823
sS'navy'
p376
F0.00064935064935064935
sS'dawn'
p377
F0.012121212121212121
sS'unexplained'
p378
F0.0004329004329004329
sS'sounds'
p379
F0.0051948051948051948
sS'whip'
p380
F0.00021645021645021645
sS'reminding'
p381
F0.00021645021645021645
sS'driving'
p382
F0.0004329004329004329
sS'god'
p383
F0.0010822510822510823
sS'passengers'
p384
F0.0008658008658008658
sS'mason'
p385
F0.0012987012987012987
sS'content'
p386
F0.0004329004329004329
sS're'
p387
F0.015367965367965367
sS'branch'
p388
F0.00021645021645021645
sS'weighted'
p389
F0.00021645021645021645
sS'adapt'
p390
F0.00021645021645021645
sS'teeter'
p391
F0.00021645021645021645
sS'medicine'
p392
F0.0021645021645021645
sS'got'
p393
F0.011688311688311689
sS'perturbed'
p394
F0.00021645021645021645
sS'size'
p395
F0.00021645021645021645
sS'strategist'
p396
F0.00021645021645021645
sS'hogan'
p397
F0.0008658008658008658
sS'foundation'
p398
F0.0010822510822510823
sS'kip'
p399
F0.0004329004329004329
sS'turning'
p400
F0.00064935064935064935
sS'assured'
p401
F0.00021645021645021645
sS'resume'
p402
F0.004329004329004329
sS'leftovers'
p403
F0.00021645021645021645
sS'threatened'
p404
F0.00021645021645021645
sS'given'
p405
F0.0012987012987012987
sS'free'
p406
F0.0084415584415584409
sS'syn'
p407
F0.0004329004329004329
sS'inactivated'
p408
F0.00021645021645021645
sS'carried'
p409
F0.00021645021645021645
sS'corrects'
p410
F0.0004329004329004329
sS'checked'
p411
F0.0008658008658008658
sS'wanted'
p412
F0.0082251082251082255
sS'fret'
p413
F0.00021645021645021645
sS'aisle'
p414
F0.0004329004329004329
sS'ate'
p415
F0.00021645021645021645
sS'created'
p416
F0.0012987012987012987
sS'starts'
p417
F0.0008658008658008658
sS'days'
p418
F0.0060606060606060606
sS'tolerant'
p419
F0.0004329004329004329
sS'filter'
p420
F0.00021645021645021645
sS'shipped'
p421
F0.00021645021645021645
sS'levels'
p422
F0.00021645021645021645
sS'awaiting'
p423
F0.00021645021645021645
sS'signature'
p424
F0.0004329004329004329
sS'corrections'
p425
F0.0004329004329004329
sS'uses'
p426
F0.0004329004329004329
sS'louie'
p427
F0.0004329004329004329
sS'onto'
p428
F0.0010822510822510823
sS'cleaning'
p429
F0.00021645021645021645
sS'already'
p430
F0.0038961038961038961
sS'spindler'
p431
F0.0004329004329004329
sS'grade'
p432
F0.00064935064935064935
sS'redneck'
p433
F0.00021645021645021645
sS'coding'
p434
F0.00021645021645021645
sS'primary'
p435
F0.00021645021645021645
sS'thereof'
p436
F0.00021645021645021645
sS'hearing'
p437
F0.00021645021645021645
sS'fantasy'
p438
F0.00021645021645021645
sS'alarm'
p439
F0.00021645021645021645
sS'another'
p440
F0.0028138528138528141
sS'categorize'
p441
F0.00021645021645021645
sS'clarity'
p442
F0.00021645021645021645
sS'hood'
p443
F0.0010822510822510823
sS'illustrate'
p444
F0.00021645021645021645
sS'seizures'
p445
F0.00021645021645021645
sS'timothy'
p446
F0.0034632034632034632
sS'basketball'
p447
F0.0012987012987012987
sS'service'
p448
F0.0056277056277056281
sS'attach'
p449
F0.00064935064935064935
sS'top'
p450
F0.0023809523809523812
sS'girls'
p451
F0.0010822510822510823
sS'approximately'
p452
F0.0004329004329004329
sS'fabrication'
p453
F0.00021645021645021645
sS'needed'
p454
F0.0015151515151515152
sS'however'
p455
F0.0028138528138528141
sS'rates'
p456
F0.00021645021645021645
sS'too'
p457
F0.0056277056277056281
sS'burgess'
p458
F0.0034632034632034632
sS'tom'
p459
F0.013852813852813853
sS'trend'
p460
F0.00021645021645021645
sS'john'
p461
F0.021428571428571429
sS'bitter'
p462
F0.00021645021645021645
sS'dogs'
p463
F0.00021645021645021645
sS'tod'
p464
F0.0004329004329004329
sS'listen'
p465
F0.00021645021645021645
sS'asset'
p466
F0.00021645021645021645
sS'grandchildren'
p467
F0.0008658008658008658
sS'cushions'
p468
F0.00021645021645021645
sS'luncheon'
p469
F0.0004329004329004329
sS'serve'
p470
F0.0004329004329004329
sS'took'
p471
F0.0036796536796536799
sS'negotiating'
p472
F0.00021645021645021645
sS'wisdom'
p473
F0.0004329004329004329
sS'somewhat'
p474
F0.00021645021645021645
sS'hazelnut'
p475
F0.00064935064935064935
sS'practiced'
p476
F0.00021645021645021645
sS'crawl'
p477
F0.00021645021645021645
sS'golden'
p478
F0.00064935064935064935
sS'sticker'
p479
F0.0008658008658008658
sS'awarded'
p480
F0.00021645021645021645
sS'showed'
p481
F0.0008658008658008658
sS'elegant'
p482
F0.00021645021645021645
sS'older'
p483
F0.0008658008658008658
sS'tree'
p484
F0.015151515151515152
sS'second'
p485
F0.0041125541125541128
sS'seated'
p486
F0.00021645021645021645
sS'project'
p487
F0.0041125541125541128
sS'matter'
p488
F0.0019480519480519481
sS'perplexed'
p489
F0.00021645021645021645
sS'classes'
p490
F0.00021645021645021645
sS'speaking'
p491
F0.0010822510822510823
sS'historical'
p492
F0.00064935064935064935
sS'profitable'
p493
F0.0004329004329004329
sS'beard'
p494
F0.00021645021645021645
sS'solely'
p495
F0.0017316017316017316
sS'bridge'
p496
F0.0010822510822510823
sS'sees'
p497
F0.00021645021645021645
sS'ran'
p498
F0.00064935064935064935
sS'boston'
p499
F0.00021645021645021645
sS'tipper'
p500
F0.0008658008658008658
sS'mind'
p501
F0.0045454545454545452
sS'mine'
p502
F0.0008658008658008658
sS'ginger'
p503
F0.0012987012987012987
sS'drip'
p504
F0.00021645021645021645
sS'talking'
p505
F0.0038961038961038961
sS'seed'
p506
F0.00021645021645021645
sS'manner'
p507
F0.00021645021645021645
sS'seltzer'
p508
F0.0004329004329004329
sS'seen'
p509
F0.0017316017316017316
sS'seem'
p510
F0.0008658008658008658
sS'picks'
p511
F0.00064935064935064935
sS'seek'
p512
F0.00021645021645021645
sS'tells'
p513
F0.00021645021645021645
sS'contents'
p514
F0.0004329004329004329
sS'ray'
p515
F0.0030303030303030303
sS'craves'
p516
F0.00021645021645021645
sS'strength'
p517
F0.00021645021645021645
sS'secure'
p518
F0.0008658008658008658
sS'mostly'
p519
F0.0004329004329004329
sS'harper'
p520
F0.00021645021645021645
sS'convenient'
p521
F0.00021645021645021645
sS'cope'
p522
F0.00021645021645021645
sS'indexes'
p523
F0.00021645021645021645
sS'purchases'
p524
F0.0008658008658008658
sS'floppy'
p525
F0.00021645021645021645
sS'chest'
p526
F0.0004329004329004329
sS'causing'
p527
F0.00064935064935064935
sS'luxury'
p528
F0.00021645021645021645
sS'doors'
p529
F0.0004329004329004329
sS'hatch'
p530
F0.00021645021645021645
sS'topside'
p531
F0.00064935064935064935
sS'quarterback'
p532
F0.00021645021645021645
sS'memory'
p533
F0.0004329004329004329
sS'nobody'
p534
F0.0008658008658008658
sS'jammed'
p535
F0.0004329004329004329
sS'though'
p536
F0.0004329004329004329
sS'thrilled'
p537
F0.00021645021645021645
sS'mystique'
p538
F0.0004329004329004329
sS'dial'
p539
F0.0025974025974025974
sS'wells'
p540
F0.0004329004329004329
sS'landmark'
p541
F0.00021645021645021645
sS'regular'
p542
F0.0008658008658008658
sS'mouth'
p543
F0.00064935064935064935
sS'alan'
p544
F0.0004329004329004329
sS'letter'
p545
F0.0010822510822510823
sS'organization'
p546
F0.00021645021645021645
sS'phase'
p547
F0.00021645021645021645
sS'utilize'
p548
F0.0004329004329004329
sS'jean'
p549
F0.010822510822510822
sS'maria'
p550
F0.0015151515151515152
sS'reimbursement'
p551
F0.0004329004329004329
sS'assisting'
p552
F0.0004329004329004329
sS'don'
p553
F0.0012987012987012987
sS'rogers'
p554
F0.0004329004329004329
sS'pressurized'
p555
F0.00021645021645021645
sS'elections'
p556
F0.00021645021645021645
sS'calculated'
p557
F0.0004329004329004329
sS'lose'
p558
F0.0004329004329004329
sS'flow'
p559
F0.00064935064935064935
sS'dog'
p560
F0.0030303030303030303
sS'passes'
p561
F0.0004329004329004329
sS'spend'
p562
F0.0012987012987012987
sS'orderly'
p563
F0.00021645021645021645
sS'definitely'
p564
F0.0028138528138528141
sS'aunt'
p565
F0.0004329004329004329
sS'traded'
p566
F0.00021645021645021645
sS'voting'
p567
F0.0021645021645021645
sS'mailing'
p568
F0.00021645021645021645
sS'responded'
p569
F0.00021645021645021645
sS'came'
p570
F0.004329004329004329
sS'reserve'
p571
F0.0004329004329004329
sS'renting'
p572
F0.0004329004329004329
sS'saying'
p573
F0.0012987012987012987
sS'signatures'
p574
F0.0004329004329004329
sS'contacted'
p575
F0.00021645021645021645
sS'disciplined'
p576
F0.00021645021645021645
sS'lewis'
p577
F0.00064935064935064935
sS'meetings'
p578
F0.0008658008658008658
sS'queen'
p579
F0.0004329004329004329
sS'bonnie'
p580
F0.0010822510822510823
sS'nominated'
p581
F0.00021645021645021645
sS'levy'
p582
F0.00064935064935064935
sS'fennel'
p583
F0.00021645021645021645
sS'solutions'
p584
F0.0010822510822510823
sS'keywords'
p585
F0.00021645021645021645
sS'earth'
p586
F0.00021645021645021645
sS'endowment'
p587
F0.00021645021645021645
sS'enjoyed'
p588
F0.0012987012987012987
sS'egoistic'
p589
F0.00021645021645021645
sS'airlines'
p590
F0.0010822510822510823
sS'busy'
p591
F0.0021645021645021645
sS'just'
p592
F0.025324675324675326
sS'menu'
p593
F0.00021645021645021645
sS'weekends'
p594
F0.00021645021645021645
sS'apologist'
p595
F0.00021645021645021645
sS'bush'
p596
F0.0034632034632034632
sS'rick'
p597
F0.0017316017316017316
sS'matters'
p598
F0.00021645021645021645
sS'photo'
p599
F0.0008658008658008658
sS'folks'
p600
F0.0008658008658008658
sS'announce'
p601
F0.00021645021645021645
sS'folder'
p602
F0.00064935064935064935
sS'rice'
p603
F0.00021645021645021645
sS'scripture'
p604
F0.00021645021645021645
sS'innovation'
p605
F0.00021645021645021645
sS'do'
p606
F0.039826839826839829
sS'tiles'
p607
F0.00021645021645021645
sS'gores'
p608
F0.00021645021645021645
sS'de'
p609
F0.005411255411255411
sS'stop'
p610
F0.0017316017316017316
sS'preferred'
p611
F0.00064935064935064935
sS'coast'
p612
F0.00021645021645021645
sS'amazon'
p613
F0.00021645021645021645
sS'tammy'
p614
F0.00021645021645021645
sS'maintaining'
p615
F0.00021645021645021645
sS'wedding'
p616
F0.0010822510822510823
sS'report'
p617
F0.0060606060606060606
sS'nasty'
p618
F0.00021645021645021645
sS'undressed'
p619
F0.00021645021645021645
sS'barlow'
p620
F0.00021645021645021645
sS'bumpy'
p621
F0.00021645021645021645
sS'unfortunately'
p622
F0.0028138528138528141
sS'earl'
p623
F0.00021645021645021645
sS'vicariously'
p624
F0.00021645021645021645
sS'runs'
p625
F0.0012987012987012987
sS'bar'
p626
F0.0004329004329004329
sS'greens'
p627
F0.0008658008658008658
sS'legislation'
p628
F0.0004329004329004329
sS'hello'
p629
F0.00021645021645021645
sS'exited'
p630
F0.00021645021645021645
sS'egoism'
p631
F0.00021645021645021645
sS'public'
p632
F0.0010822510822510823
sS'bag'
p633
F0.0010822510822510823
sS'bad'
p634
F0.0036796536796536799
sS'softly'
p635
F0.00021645021645021645
sS'coke'
p636
F0.0025974025974025974
sS'shots'
p637
F0.00021645021645021645
sS'analytical'
p638
F0.00021645021645021645
sS'bal'
p639
F0.00021645021645021645
sS'brick'
p640
F0.00021645021645021645
sS'automatic'
p641
F0.00021645021645021645
sS'steam'
p642
F0.00064935064935064935
sS'thanks'
p643
F0.036363636363636362
sS'respond'
p644
F0.0023809523809523812
sS'blew'
p645
F0.00021645021645021645
sS'mandatory'
p646
F0.00021645021645021645
sS'human'
p647
F0.0004329004329004329
sS'reference'
p648
F0.0004329004329004329
sS'specialist'
p649
F0.0004329004329004329
sS'generally'
p650
F0.00021645021645021645
sS'sensitivity'
p651
F0.00021645021645021645
sS'testing'
p652
F0.00021645021645021645
sS'recruit'
p653
F0.00064935064935064935
sS'unexpectedly'
p654
F0.0004329004329004329
sS'checks'
p655
F0.0004329004329004329
sS'depends'
p656
F0.00021645021645021645
sS'decided'
p657
F0.00064935064935064935
sS'flashed'
p658
F0.0047619047619047623
sS'holding'
p659
F0.00021645021645021645
sS'discussions'
p660
F0.00021645021645021645
sS'weird'
p661
F0.0004329004329004329
sS'tommy'
p662
F0.00064935064935064935
sS'best'
p663
F0.0023809523809523812
sS'subject'
p664
F0.12229437229437229
sS'said'
p665
F0.011688311688311689
sS'capacity'
p666
F0.0008658008658008658
sS'duff'
p667
F0.00021645021645021645
sS'inappropriate'
p668
F0.0008658008658008658
sS'lots'
p669
F0.00021645021645021645
sS'away'
p670
F0.0019480519480519481
sS'meta'
p671
F0.00021645021645021645
sS'rings'
p672
F0.00021645021645021645
sS'shaved'
p673
F0.0004329004329004329
sS'upgraded'
p674
F0.00021645021645021645
sS'rushing'
p675
F0.0004329004329004329
sS'grandmother'
p676
F0.0004329004329004329
sS'score'
p677
F0.0015151515151515152
sS'finger'
p678
F0.00021645021645021645
sS'cooperation'
p679
F0.0004329004329004329
sS'hopefully'
p680
F0.0038961038961038961
sS'approach'
p681
F0.0004329004329004329
sS'mailings'
p682
F0.00021645021645021645
sS'letting'
p683
F0.00064935064935064935
sS'we'
p684
F0.10649350649350649
sS'men'
p685
F0.00064935064935064935
sS'terms'
p686
F0.0015151515151515152
sS'wears'
p687
F0.00021645021645021645
sS'nature'
p688
F0.0010822510822510823
sS'wo'
p689
F0.0004329004329004329
sS'handful'
p690
F0.00021645021645021645
sS'inextricable'
p691
F0.00021645021645021645
sS'vitamin'
p692
F0.00021645021645021645
sS'retirement'
p693
F0.0004329004329004329
sS'drew'
p694
F0.0034632034632034632
sS'news'
p695
F0.00064935064935064935
sS'electing'
p696
F0.00021645021645021645
sS'faced'
p697
F0.00021645021645021645
sS'received'
p698
F0.011471861471861472
sS'essentially'
p699
F0.00021645021645021645
sS'counselor'
p700
F0.0004329004329004329
sS'met'
p701
F0.00021645021645021645
sS'country'
p702
F0.0012987012987012987
sS'ill'
p703
F0.0017316017316017316
sS'eyeball'
p704
F0.00021645021645021645
sS'against'
p705
F0.0012987012987012987
sS'gotten'
p706
F0.00021645021645021645
sS'regions'
p707
F0.0012987012987012987
sS'players'
p708
F0.0017316017316017316
sS'cob'
p709
F0.0004329004329004329
sS'games'
p710
F0.0023809523809523812
sS'iron'
p711
F0.0004329004329004329
sS'receives'
p712
F0.0004329004329004329
sS'brad'
p713
F0.0023809523809523812
sS'greater'
p714
F0.00021645021645021645
sS'variance'
p715
F0.0090909090909090905
sS'requests'
p716
F0.0017316017316017316
sS'expense'
p717
F0.0019480519480519481
sS'asked'
p718
F0.0038961038961038961
sS'negotiation'
p719
F0.0004329004329004329
sS'ingenious'
p720
F0.00021645021645021645
sS'standings'
p721
F0.0004329004329004329
sS'tough'
p722
F0.0008658008658008658
sS'tong'
p723
F0.00021645021645021645
sS'josh'
p724
F0.0008658008658008658
sS'improving'
p725
F0.00021645021645021645
sS'excess'
p726
F0.00021645021645021645
sS'gathering'
p727
F0.00021645021645021645
sS'seizure'
p728
F0.00021645021645021645
sS'height'
p729
F0.00021645021645021645
sS'tons'
p730
F0.00021645021645021645
sS'written'
p731
F0.0017316017316017316
sS'initiative'
p732
F0.00021645021645021645
sS'tony'
p733
F0.0021645021645021645
sS'trust'
p734
F0.00064935064935064935
sS'smith'
p735
F0.003246753246753247
sS'bingo'
p736
F0.00021645021645021645
sS'bathroom'
p737
F0.0004329004329004329
sS'strong'
p738
F0.0012987012987012987
sS'abdominal'
p739
F0.0004329004329004329
sS'engines'
p740
F0.00021645021645021645
sS'basis'
p741
F0.0049783549783549786
sS'union'
p742
F0.0012987012987012987
sS'ya'
p743
F0.00064935064935064935
sS'three'
p744
F0.0051948051948051948
sS'been'
p745
F0.017532467532467531
sS'quickly'
p746
F0.00021645021645021645
sS'confident'
p747
F0.00021645021645021645
sS'beer'
p748
F0.0012987012987012987
sS'trigger'
p749
F0.00021645021645021645
sS'interest'
p750
F0.00064935064935064935
sS'expected'
p751
F0.0008658008658008658
sS'punter'
p752
F0.00021645021645021645
sS'entered'
p753
F0.0017316017316017316
sS'lovely'
p754
F0.0004329004329004329
sS'warmth'
p755
F0.00021645021645021645
sS'riley'
p756
F0.00021645021645021645
sS'teenager'
p757
F0.00021645021645021645
sS'life'
p758
F0.0049783549783549786
sS'families'
p759
F0.00021645021645021645
sS'beloved'
p760
F0.00021645021645021645
sS'eastern'
p761
F0.00064935064935064935
sS'drugs'
p762
F0.0012987012987012987
sS'government'
p763
F0.0004329004329004329
sS'republicans'
p764
F0.0004329004329004329
sS'uncommon'
p765
F0.00021645021645021645
sS'enterprises'
p766
F0.00021645021645021645
sS'lift'
p767
F0.00021645021645021645
sS'benefits'
p768
F0.00021645021645021645
sS'child'
p769
F0.003246753246753247
sS'catch'
p770
F0.0021645021645021645
sS'worked'
p771
F0.0010822510822510823
sS'spin'
p772
F0.00021645021645021645
sS'sender'
p773
F0.0017316017316017316
sS'tide'
p774
F0.00021645021645021645
sS'east'
p775
F0.0030303030303030303
sS'presidency'
p776
F0.00021645021645021645
sS'cracker'
p777
F0.00021645021645021645
sS'tastes'
p778
F0.0004329004329004329
sS'air'
p779
F0.0008658008658008658
sS'ugly'
p780
F0.0012987012987012987
sS'coaching'
p781
F0.0008658008658008658
sS'unloading'
p782
F0.0004329004329004329
sS'applies'
p783
F0.00021645021645021645
sS'balance'
p784
F0.0017316017316017316
sS'moan'
p785
F0.00021645021645021645
sS'procedure'
p786
F0.00064935064935064935
sS'mistake'
p787
F0.0008658008658008658
sS'veronica'
p788
F0.024458874458874458
sS'seven'
p789
F0.0012987012987012987
sS'economics'
p790
F0.0015151515151515152
sS'metropolitan'
p791
F0.00021645021645021645
sS'brewer'
p792
F0.0008658008658008658
sS'is'
p793
F0.16406926406926406
sS'it'
p794
F0.084199134199134204
sS'expenses'
p795
F0.0004329004329004329
sS'player'
p796
F0.0004329004329004329
sS'cant'
p797
F0.0030303030303030303
sS'savvy'
p798
F0.00021645021645021645
sS'experts'
p799
F0.00021645021645021645
sS'cans'
p800
F0.00021645021645021645
sS'in'
p801
F0.18722943722943722
sS'shift'
p802
F0.00064935064935064935
sS'mouse'
p803
F0.00021645021645021645
sS'id'
p804
F0.017316017316017316
sS'if'
p805
F0.077272727272727271
sS'grown'
p806
F0.0004329004329004329
sS'containing'
p807
F0.0015151515151515152
sS'ignored'
p808
F0.00021645021645021645
sS'anybody'
p809
F0.00021645021645021645
sS'things'
p810
F0.0080086580086580084
sS'make'
p811
F0.018614718614718615
sS'demands'
p812
F0.00021645021645021645
sS'jerry'
p813
F0.0008658008658008658
sS'rebellion'
p814
F0.00021645021645021645
sS'beside'
p815
F0.00064935064935064935
sS'backed'
p816
F0.00021645021645021645
sS'crybaby'
p817
F0.00021645021645021645
sS'potentially'
p818
F0.0004329004329004329
sS'inventory'
p819
F0.00064935064935064935
sS'incorrectly'
p820
F0.0004329004329004329
sS'avoids'
p821
F0.00021645021645021645
sS'peters'
p822
F0.0004329004329004329
sS'several'
p823
F0.0030303030303030303
sS'bid'
p824
F0.0023809523809523812
sS'bells'
p825
F0.00021645021645021645
sS'templates'
p826
F0.0004329004329004329
sS'independent'
p827
F0.00064935064935064935
sS'advocate'
p828
F0.0004329004329004329
sS'smoke'
p829
F0.00064935064935064935
sS'governors'
p830
F0.00021645021645021645
sS'pick'
p831
F0.0017316017316017316
sS'hang'
p832
F0.0015151515151515152
sS'conversion'
p833
F0.0010822510822510823
sS'evil'
p834
F0.00021645021645021645
sS'hand'
p835
F0.0025974025974025974
sS'liberties'
p836
F0.00021645021645021645
sS'kept'
p837
F0.0010822510822510823
sS'nix'
p838
F0.00021645021645021645
sS'military'
p839
F0.0015151515151515152
sS'jealous'
p840
F0.0004329004329004329
sS'opportunity'
p841
F0.00064935064935064935
sS'blamed'
p842
F0.0004329004329004329
sS'thoughts'
p843
F0.0004329004329004329
sS'kid'
p844
F0.00064935064935064935
sS'postponed'
p845
F0.0004329004329004329
sS'shortly'
p846
F0.00021645021645021645
sS'intercompany'
p847
F0.00064935064935064935
sS'settled'
p848
F0.00064935064935064935
sS'suffering'
p849
F0.0004329004329004329
sS'compartments'
p850
F0.00021645021645021645
sS'academic'
p851
F0.00021645021645021645
sS'savings'
p852
F0.0004329004329004329
sS'contact'
p853
F0.0060606060606060606
sS'mother'
p854
F0.0012987012987012987
sS'hearts'
p855
F0.00021645021645021645
sS'the'
p856
F0.60108225108225111
sS'corporate'
p857
F0.00021645021645021645
sS'yours'
p858
F0.0010822510822510823
sS'dads'
p859
F0.0004329004329004329
sS'left'
p860
F0.0036796536796536799
sS'sleeps'
p861
F0.00021645021645021645
sS'sentence'
p862
F0.00021645021645021645
sS'athletic'
p863
F0.0008658008658008658
sS'mills'
p864
F0.0025974025974025974
sS'distribute'
p865
F0.0004329004329004329
sS'warheads'
p866
F0.0004329004329004329
sS'assigned'
p867
F0.0004329004329004329
sS'supervisory'
p868
F0.00021645021645021645
sS'grades'
p869
F0.00021645021645021645
sS'identify'
p870
F0.0015151515151515152
sS'battles'
p871
F0.00021645021645021645
sS'victim'
p872
F0.00021645021645021645
sS'facts'
p873
F0.00064935064935064935
sS'yes'
p874
F0.0025974025974025974
sS'heated'
p875
F0.00021645021645021645
sS'yet'
p876
F0.0021645021645021645
sS'previous'
p877
F0.0021645021645021645
sS'alum'
p878
F0.0008658008658008658
sS'burns'
p879
F0.00064935064935064935
sS'monitored'
p880
F0.00021645021645021645
sS'classification'
p881
F0.00021645021645021645
sS'candidate'
p882
F0.00064935064935064935
sS'elm'
p883
F0.0008658008658008658
sS'cherry'
p884
F0.0004329004329004329
sS'balances'
p885
F0.00021645021645021645
sS'had'
p886
F0.017099567099567101
sS'soaked'
p887
F0.00021645021645021645
sS'pharmacy'
p888
F0.00021645021645021645
sS'wright'
p889
F0.00021645021645021645
sS'shout'
p890
F0.0095238095238095247
sS'spread'
p891
F0.00064935064935064935
sS'board'
p892
F0.0036796536796536799
sS'easy'
p893
F0.0012987012987012987
sS'consideration'
p894
F0.00021645021645021645
sS'has'
p895
F0.022510822510822513
sS'gave'
p896
F0.0021645021645021645
sS'threatens'
p897
F0.00021645021645021645
sS'appreciated'
p898
F0.0004329004329004329
sS'carol'
p899
F0.00021645021645021645
sS'intercom'
p900
F0.0008658008658008658
sS'disagreement'
p901
F0.00021645021645021645
sS'possible'
p902
F0.0010822510822510823
sS'possibly'
p903
F0.0004329004329004329
sS'boxes'
p904
F0.00021645021645021645
sS'foss'
p905
F0.00021645021645021645
sS'birth'
p906
F0.00021645021645021645
sS'performance'
p907
F0.00064935064935064935
sS'judge'
p908
F0.0023809523809523812
sS'altitude'
p909
F0.0004329004329004329
sS'unique'
p910
F0.00064935064935064935
sS'detector'
p911
F0.00021645021645021645
sS'dreams'
p912
F0.0004329004329004329
sS'desire'
p913
F0.00064935064935064935
sS'dignity'
p914
F0.00021645021645021645
sS'gift'
p915
F0.0008658008658008658
sS'bobby'
p916
F0.0015151515151515152
sS'gifted'
p917
F0.00021645021645021645
sS'manual'
p918
F0.00021645021645021645
sS'zoom'
p919
F0.0004329004329004329
sS'specific'
p920
F0.0008658008658008658
sS'remind'
p921
F0.0008658008658008658
sS'misled'
p922
F0.00021645021645021645
sS'disillusioned'
p923
F0.00021645021645021645
sS'steps'
p924
F0.0010822510822510823
sS'officer'
p925
F0.00021645021645021645
sS'night'
p926
F0.0060606060606060606
sS'screeching'
p927
F0.00021645021645021645
sS'security'
p928
F0.0023809523809523812
sS'release'
p929
F0.00021645021645021645
sS'cancelled'
p930
F0.0004329004329004329
sS'creel'
p931
F0.0004329004329004329
sS'right'
p932
F0.0088744588744588751
sS'dean'
p933
F0.0010822510822510823
sS'envision'
p934
F0.00021645021645021645
sS'deal'
p935
F0.02748917748917749
sS'people'
p936
F0.011255411255411256
sS'frustrations'
p937
F0.00021645021645021645
sS'successfully'
p938
F0.0004329004329004329
sS'bases'
p939
F0.00021645021645021645
sS'handing'
p940
F0.0004329004329004329
sS'unnecessary'
p941
F0.00021645021645021645
sS'born'
p942
F0.00064935064935064935
sS'clubs'
p943
F0.0008658008658008658
sS'election'
p944
F0.0030303030303030303
sS'invoice'
p945
F0.00064935064935064935
sS'dear'
p946
F0.0008658008658008658
sS'pain'
p947
F0.0004329004329004329
sS'guess'
p948
F0.003246753246753247
sS'strategic'
p949
F0.0004329004329004329
sS'cooper'
p950
F0.0004329004329004329
sS'uncovered'
p951
F0.00021645021645021645
sS'for'
p952
F0.18939393939393939
sS'bottom'
p953
F0.0010822510822510823
sS'dropping'
p954
F0.0004329004329004329
sS'ear'
p955
F0.0004329004329004329
sS'outspoken'
p956
F0.0004329004329004329
sS'fox'
p957
F0.0010822510822510823
sS'microwave'
p958
F0.00021645021645021645
sS'creative'
p959
F0.00021645021645021645
sS'everything'
p960
F0.0060606060606060606
sS'asking'
p961
F0.0021645021645021645
sS'denied'
p962
F0.0010822510822510823
sS'booking'
p963
F0.0008658008658008658
sS'knew'
p964
F0.00064935064935064935
sS'bold'
p965
F0.00021645021645021645
sS'varicose'
p966
F0.00021645021645021645
sS'deleted'
p967
F0.0004329004329004329
sS'marketing'
p968
F0.004329004329004329
sS'burn'
p969
F0.00021645021645021645
sS'confer'
p970
F0.00021645021645021645
sS'graduates'
p971
F0.0004329004329004329
sS'hung'
p972
F0.00021645021645021645
sS'cheating'
p973
F0.00021645021645021645
sS'bolt'
p974
F0.0004329004329004329
sS'defensive'
p975
F0.00021645021645021645
sS'losing'
p976
F0.0012987012987012987
sS'post'
p977
F0.004329004329004329
sS'manufacturing'
p978
F0.00021645021645021645
sS'super'
p979
F0.00021645021645021645
sS'alliance'
p980
F0.00021645021645021645
sS'yelling'
p981
F0.0004329004329004329
sS'cowboy'
p982
F0.00021645021645021645
sS'coral'
p983
F0.0004329004329004329
sS'months'
p984
F0.0041125541125541128
sS'accepts'
p985
F0.00021645021645021645
sS'rolled'
p986
F0.0004329004329004329
sS'essential'
p987
F0.0010822510822510823
sS'trustworthy'
p988
F0.0004329004329004329
sS'dinner'
p989
F0.0012987012987012987
sS'airline'
p990
F0.00064935064935064935
sS'plus'
p991
F0.0036796536796536799
sS'afternoon'
p992
F0.0008658008658008658
sS'horizon'
p993
F0.00021645021645021645
sS'lapin'
p994
F0.00021645021645021645
sS'commit'
p995
F0.0004329004329004329
sS'efforts'
p996
F0.0010822510822510823
sS'sept'
p997
F0.0008658008658008658
sS'automatically'
p998
F0.0017316017316017316
sS'duke'
p999
F0.0010822510822510823
sS'consulting'
p1000
F0.0019480519480519481
sS'dozier'
p1001
F0.00021645021645021645
sS'whats'
p1002
F0.0008658008658008658
sS'publishing'
p1003
F0.00021645021645021645
sS'meningitis'
p1004
F0.00021645021645021645
sS'facility'
p1005
F0.0004329004329004329
sS'civil'
p1006
F0.00021645021645021645
sS'pays'
p1007
F0.0004329004329004329
sS'hornbeam'
p1008
F0.00064935064935064935
sS'son'
p1009
F0.0008658008658008658
sS'down'
p1010
F0.0058441558441558444
sS'remarks'
p1011
F0.00021645021645021645
sS'accomplishments'
p1012
F0.0008658008658008658
sS'formidable'
p1013
F0.00021645021645021645
sS'balanced'
p1014
F0.00021645021645021645
sS'old'
p1015
F0.0047619047619047623
sS'shoots'
p1016
F0.00021645021645021645
sS'reducing'
p1017
F0.0004329004329004329
sS'rounds'
p1018
F0.00021645021645021645
sS'particularly'
p1019
F0.00021645021645021645
sS'ole'
p1020
F0.00021645021645021645
sS'proxies'
p1021
F0.0004329004329004329
sS'crowd'
p1022
F0.00021645021645021645
sS'transcript'
p1023
F0.00064935064935064935
sS'support'
p1024
F0.0038961038961038961
sS'initial'
p1025
F0.00021645021645021645
sS'jealousy'
p1026
F0.00021645021645021645
sS'fight'
p1027
F0.0008658008658008658
sS'width'
p1028
F0.00021645021645021645
sS'accordingly'
p1029
F0.0004329004329004329
sS'joseph'
p1030
F0.00021645021645021645
sS'authorized'
p1031
F0.0004329004329004329
sS'way'
p1032
F0.0095238095238095247
sS'ballistic'
p1033
F0.00021645021645021645
sS'jane'
p1034
F0.0023809523809523812
sS'overhead'
p1035
F0.00064935064935064935
sS'unpretentious'
p1036
F0.00021645021645021645
sS'was'
p1037
F0.06082251082251082
sS'war'
p1038
F0.0008658008658008658
sS'leading'
p1039
F0.00021645021645021645
sS'happy'
p1040
F0.0036796536796536799
sS'selection'
p1041
F0.0008658008658008658
sS'head'
p1042
F0.0034632034632034632
sS'medium'
p1043
F0.00021645021645021645
sS'form'
p1044
F0.0021645021645021645
sS'offer'
p1045
F0.0008658008658008658
sS'tigers'
p1046
F0.0008658008658008658
sS'differences'
p1047
F0.00021645021645021645
sS'denoting'
p1048
F0.00021645021645021645
sS'landing'
p1049
F0.0017316017316017316
sS'ford'
p1050
F0.00021645021645021645
sS'payable'
p1051
F0.00064935064935064935
sS'heat'
p1052
F0.0004329004329004329
sS'hear'
p1053
F0.005411255411255411
sS'county'
p1054
F0.0010822510822510823
sS'beech'
p1055
F0.0004329004329004329
sS'removed'
p1056
F0.0004329004329004329
sS'true'
p1057
F0.0010822510822510823
sS'analyst'
p1058
F0.0008658008658008658
sS'absent'
p1059
F0.00021645021645021645
sS'congratulations'
p1060
F0.00021645021645021645
sS'responding'
p1061
F0.0004329004329004329
sS'looker'
p1062
F0.00021645021645021645
sS'urgent'
p1063
F0.00064935064935064935
sS'assessment'
p1064
F0.00021645021645021645
sS'inside'
p1065
F0.00021645021645021645
sS'morning'
p1066
F0.0041125541125541128
sS'attached'
p1067
F0.014285714285714285
sS'maximum'
p1068
F0.0004329004329004329
sS'until'
p1069
F0.0060606060606060606
sS'crystal'
p1070
F0.00021645021645021645
sS'complications'
p1071
F0.00021645021645021645
sS'torturing'
p1072
F0.00021645021645021645
sS'submitting'
p1073
F0.00021645021645021645
sS'emotional'
p1074
F0.0004329004329004329
sS'daddy'
p1075
F0.00021645021645021645
sS'delete'
p1076
F0.0019480519480519481
sS'chestnut'
p1077
F0.00064935064935064935
sS'shooter'
p1078
F0.00021645021645021645
sS'proved'
p1079
F0.00021645021645021645
sS'inclusive'
p1080
F0.00021645021645021645
sS'request'
p1081
F0.0034632034632034632
sS'tournament'
p1082
F0.0015151515151515152
sS'covers'
p1083
F0.00021645021645021645
sS'drive'
p1084
F0.0015151515151515152
sS'presented'
p1085
F0.00021645021645021645
sS'lumped'
p1086
F0.00021645021645021645
sS'exist'
p1087
F0.0004329004329004329
sS'promised'
p1088
F0.00064935064935064935
sS'potholes'
p1089
F0.00021645021645021645
sS'prayer'
p1090
F0.0004329004329004329
sS'rouge'
p1091
F0.00021645021645021645
sS'accounting'
p1092
F0.0028138528138528141
sS'floating'
p1093
F0.00021645021645021645
sS'annoying'
p1094
F0.00021645021645021645
sS'mold'
p1095
F0.00021645021645021645
sS'check'
p1096
F0.008658008658008658
sS'negotiations'
p1097
F0.00021645021645021645
sS'physical'
p1098
F0.010822510822510822
sS'simmer'
p1099
F0.00021645021645021645
sS'looked'
p1100
F0.0010822510822510823
sS'newsletter'
p1101
F0.00021645021645021645
sS'faithful'
p1102
F0.0008658008658008658
sS'no'
p1103
F0.018831168831168831
sS'na'
p1104
F0.0015151515151515152
sS'insane'
p1105
F0.00021645021645021645
sS'excel'
p1106
F0.0012987012987012987
sS'handed'
p1107
F0.00021645021645021645
sS'til'
p1108
F0.00064935064935064935
sS'iris'
p1109
F0.00021645021645021645
sS'setting'
p1110
F0.0023809523809523812
sS'role'
p1111
F0.0008658008658008658
sS'obliges'
p1112
F0.00021645021645021645
sS'ambitious'
p1113
F0.00064935064935064935
sS'papers'
p1114
F0.0004329004329004329
sS'test'
p1115
F0.0012987012987012987
sS'tie'
p1116
F0.0021645021645021645
sS'adjourning'
p1117
F0.0004329004329004329
sS'roll'
p1118
F0.00064935064935064935
sS'realize'
p1119
F0.0012987012987012987
sS'scored'
p1120
F0.0008658008658008658
sS'picture'
p1121
F0.0015151515151515152
sS'hereby'
p1122
F0.0004329004329004329
sS'reconsider'
p1123
F0.00021645021645021645
sS'brothers'
p1124
F0.00021645021645021645
sS'tasteful'
p1125
F0.00021645021645021645
sS'handicap'
p1126
F0.00021645021645021645
sS'liquidate'
p1127
F0.00021645021645021645
sS'felt'
p1128
F0.00064935064935064935
sS'stealing'
p1129
F0.00021645021645021645
sS'update'
p1130
F0.0023809523809523812
sS'diet'
p1131
F0.00021645021645021645
sS'yahoo'
p1132
F0.0019480519480519481
sS'tabs'
p1133
F0.0017316017316017316
sS'journey'
p1134
F0.00021645021645021645
sS'cup'
p1135
F0.0004329004329004329
sS'exported'
p1136
F0.00021645021645021645
sS'establish'
p1137
F0.0004329004329004329
sS'scores'
p1138
F0.0010822510822510823
sS'rolling'
p1139
F0.00021645021645021645
sS'cleaver'
p1140
F0.00021645021645021645
sS'hurt'
p1141
F0.0004329004329004329
sS'weekend'
p1142
F0.0038961038961038961
sS'tabulations'
p1143
F0.00021645021645021645
sS'prove'
p1144
F0.00021645021645021645
sS'younger'
p1145
F0.0008658008658008658
sS'rusty'
p1146
F0.00021645021645021645
sS'longer'
p1147
F0.0028138528138528141
sS'bullet'
p1148
F0.0004329004329004329
sS'glass'
p1149
F0.00021645021645021645
sS'assume'
p1150
F0.00021645021645021645
sS'annuity'
p1151
F0.0019480519480519481
sS'moved'
p1152
F0.0023809523809523812
sS'flag'
p1153
F0.0034632034632034632
sS'daily'
p1154
F0.0071428571428571426
sS'hooter'
p1155
F0.0004329004329004329
sS'proposed'
p1156
F0.0021645021645021645
sS'time'
p1157
F0.0183982683982684
sS'push'
p1158
F0.00021645021645021645
sS'lineup'
p1159
F0.00021645021645021645
sS'decision'
p1160
F0.0008658008658008658
sS'paced'
p1161
F0.00021645021645021645
sS'basically'
p1162
F0.00064935064935064935
sS'neighbors'
p1163
F0.00021645021645021645
sS'precise'
p1164
F0.00021645021645021645
sS'coach'
p1165
F0.0019480519480519481
sS'managed'
p1166
F0.0008658008658008658
sS'boomer'
p1167
F0.00021645021645021645
sS'corps'
p1168
F0.00021645021645021645
sS'whoever'
p1169
F0.0004329004329004329
sS'dance'
p1170
F0.00064935064935064935
sS'rob'
p1171
F0.0015151515151515152
sS'global'
p1172
F0.0019480519480519481
sS'focus'
p1173
F0.00021645021645021645
sS'laura'
p1174
F0.0017316017316017316
sS'manager'
p1175
F0.0019480519480519481
sS'mile'
p1176
F0.00021645021645021645
sS'snit'
p1177
F0.00021645021645021645
sS'ice'
p1178
F0.00021645021645021645
sS'skin'
p1179
F0.00021645021645021645
sS'chair'
p1180
F0.0004329004329004329
sS'milk'
p1181
F0.00021645021645021645
sS'row'
p1182
F0.00021645021645021645
sS'certainly'
p1183
F0.00021645021645021645
sS'zone'
p1184
F0.00064935064935064935
sS'producing'
p1185
F0.00021645021645021645
sS'flash'
p1186
F0.0017316017316017316
sS'father'
p1187
F0.0010822510822510823
sS'suspending'
p1188
F0.00021645021645021645
sS'answered'
p1189
F0.00021645021645021645
sS'landers'
p1190
F0.00021645021645021645
sS'trustees'
p1191
F0.0036796536796536799
sS'marks'
p1192
F0.00021645021645021645
sS'circumstances'
p1193
F0.0004329004329004329
sS'agreed'
p1194
F0.0010822510822510823
sS'southwest'
p1195
F0.0010822510822510823
sS'tenacious'
p1196
F0.00021645021645021645
sS'brown'
p1197
F0.0012987012987012987
sS'volatility'
p1198
F0.00021645021645021645
sS'advantage'
p1199
F0.0004329004329004329
sS'reconvene'
p1200
F0.0004329004329004329
sS'construction'
p1201
F0.0012987012987012987
sS'bulletin'
p1202
F0.00021645021645021645
sS'keeping'
p1203
F0.00064935064935064935
sS'seemingly'
p1204
F0.0004329004329004329
sS'choice'
p1205
F0.00021645021645021645
sS'uneventful'
p1206
F0.00021645021645021645
sS'entries'
p1207
F0.0019480519480519481
sS'cook'
p1208
F0.0010822510822510823
sS'join'
p1209
F0.0008658008658008658
sS'trouble'
p1210
F0.00064935064935064935
sS'blast'
p1211
F0.0004329004329004329
sS'exact'
p1212
F0.00021645021645021645
sS'minute'
p1213
F0.0015151515151515152
sS'cool'
p1214
F0.0015151515151515152
sS'prod'
p1215
F0.0008658008658008658
sS'clouds'
p1216
F0.00021645021645021645
sS'level'
p1217
F0.0010822510822510823
sS'did'
p1218
F0.016017316017316017
sS'turns'
p1219
F0.0008658008658008658
sS'dig'
p1220
F0.00021645021645021645
sS'posts'
p1221
F0.0008658008658008658
sS'brother'
p1222
F0.0012987012987012987
sS'gum'
p1223
F0.00021645021645021645
sS'leave'
p1224
F0.0034632034632034632
sS'item'
p1225
F0.0010822510822510823
sS'settle'
p1226
F0.00064935064935064935
sS'minimal'
p1227
F0.00021645021645021645
sS'team'
p1228
F0.0051948051948051948
sS'quick'
p1229
F0.0010822510822510823
sS'guy'
p1230
F0.0047619047619047623
sS'convince'
p1231
F0.00064935064935064935
sS'round'
p1232
F0.003246753246753247
sS'prevent'
p1233
F0.0004329004329004329
sS'spiritual'
p1234
F0.00021645021645021645
sS'talked'
p1235
F0.0021645021645021645
sS'says'
p1236
F0.0038961038961038961
sS'irritates'
p1237
F0.00021645021645021645
sS'dealing'
p1238
F0.0004329004329004329
sS'feeling'
p1239
F0.00064935064935064935
sS'sign'
p1240
F0.0010822510822510823
sS'blue'
p1241
F0.00021645021645021645
sS'professionalism'
p1242
F0.00021645021645021645
sS'thinker'
p1243
F0.00021645021645021645
sS'cost'
p1244
F0.0008658008658008658
sS'patient'
p1245
F0.00021645021645021645
sS'bake'
p1246
F0.00021645021645021645
sS'fear'
p1247
F0.00021645021645021645
sS'drinks'
p1248
F0.00021645021645021645
sS'bourne'
p1249
F0.00021645021645021645
sS'appear'
p1250
F0.00021645021645021645
sS'heres'
p1251
F0.0021645021645021645
sS'assistance'
p1252
F0.0019480519480519481
sS'celebrated'
p1253
F0.00021645021645021645
sS'hazardous'
p1254
F0.00021645021645021645
sS'outscore'
p1255
F0.00021645021645021645
sS'shares'
p1256
F0.00021645021645021645
sS'pleased'
p1257
F0.0004329004329004329
sS'current'
p1258
F0.0045454545454545452
sS'remembered'
p1259
F0.00021645021645021645
sS'suspect'
p1260
F0.0008658008658008658
sS'template'
p1261
F0.0028138528138528141
sS'reply'
p1262
F0.0010822510822510823
sS'appeal'
p1263
F0.0004329004329004329
sS'filled'
p1264
F0.0004329004329004329
sS'supporting'
p1265
F0.0008658008658008658
sS'palmer'
p1266
F0.0028138528138528141
sS'transportation'
p1267
F0.00064935064935064935
sS'install'
p1268
F0.00021645021645021645
sS'proceeded'
p1269
F0.00021645021645021645
sS'funeral'
p1270
F0.00064935064935064935
sS'blooming'
p1271
F0.0008658008658008658
sS'understanding'
p1272
F0.0019480519480519481
sS'water'
p1273
F0.0010822510822510823
sS'dispute'
p1274
F0.00021645021645021645
sS'coloring'
p1275
F0.00021645021645021645
sS'baseball'
p1276
F0.00021645021645021645
sS'groups'
p1277
F0.0030303030303030303
sS'congestion'
p1278
F0.00064935064935064935
sS'alone'
p1279
F0.00021645021645021645
sS'along'
p1280
F0.0017316017316017316
sS'disappeared'
p1281
F0.00021645021645021645
sS'teaches'
p1282
F0.00021645021645021645
sS'appears'
p1283
F0.0025974025974025974
sS'change'
p1284
F0.01038961038961039
sS'wait'
p1285
F0.0010822510822510823
sS'box'
p1286
F0.0015151515151515152
sS'sending'
p1287
F0.0017316017316017316
sS'kingwood'
p1288
F0.0010822510822510823
sS'beanbag'
p1289
F0.00021645021645021645
sS'china'
p1290
F0.0004329004329004329
sS'gulf'
p1291
F0.0004329004329004329
sS'thirty'
p1292
F0.00021645021645021645
sS'healthy'
p1293
F0.00021645021645021645
sS'my'
p1294
F0.050865800865800864
sS'title'
p1295
F0.00021645021645021645
sS'guilty'
p1296
F0.00021645021645021645
sS'proud'
p1297
F0.0008658008658008658
sS'chemical'
p1298
F0.0004329004329004329
sS'franklin'
p1299
F0.0004329004329004329
sS'pediatric'
p1300
F0.00021645021645021645
sS'boo'
p1301
F0.0030303030303030303
sS'usually'
p1302
F0.0015151515151515152
sS'priceless'
p1303
F0.00021645021645021645
sS'bob'
p1304
F0.015151515151515152
sS'homecoming'
p1305
F0.0004329004329004329
sS'pause'
p1306
F0.00021645021645021645
sS'tasks'
p1307
F0.00021645021645021645
sS'love'
p1308
F0.024891774891774892
sS'raise'
p1309
F0.00021645021645021645
sS'extra'
p1310
F0.0010822510822510823
sS'prefer'
p1311
F0.00064935064935064935
sS'unlocked'
p1312
F0.00021645021645021645
sS'marked'
p1313
F0.0008658008658008658
sS'modifying'
p1314
F0.0004329004329004329
sS'uphill'
p1315
F0.00021645021645021645
sS'sincerely'
p1316
F0.0004329004329004329
sS'flexibility'
p1317
F0.00021645021645021645
sS'infamous'
p1318
F0.00021645021645021645
sS'hydroelectric'
p1319
F0.00021645021645021645
sS'individuals'
p1320
F0.0004329004329004329
sS'fake'
p1321
F0.0012987012987012987
sS'marker'
p1322
F0.0004329004329004329
sS'scam'
p1323
F0.00021645021645021645
sS'operational'
p1324
F0.0010822510822510823
sS'pitchers'
p1325
F0.00021645021645021645
sS'market'
p1326
F0.0012987012987012987
sS'red'
p1327
F0.0008658008658008658
sS'everybody'
p1328
F0.00064935064935064935
sS'handled'
p1329
F0.00021645021645021645
sS'working'
p1330
F0.0045454545454545452
sS'hector'
p1331
F0.00021645021645021645
sS'positive'
p1332
F0.0008658008658008658
sS'visit'
p1333
F0.0019480519480519481
sS'papas'
p1334
F0.0004329004329004329
sS'sports'
p1335
F0.0010822510822510823
sS'live'
p1336
F0.0017316017316017316
sS'wood'
p1337
F0.0017316017316017316
sS'opposed'
p1338
F0.0015151515151515152
sS'wondering'
p1339
F0.0010822510822510823
sS'criteria'
p1340
F0.00064935064935064935
sS'believing'
p1341
F0.00064935064935064935
sS'thru'
p1342
F0.0004329004329004329
sS'today'
p1343
F0.0082251082251082255
sS'sharing'
p1344
F0.0019480519480519481
sS'teased'
p1345
F0.00021645021645021645
sS'club'
p1346
F0.0015151515151515152
sS'dislikes'
p1347
F0.00021645021645021645
sS'chocolate'
p1348
F0.00021645021645021645
sS'downtown'
p1349
F0.00021645021645021645
sS'fuel'
p1350
F0.0012987012987012987
sS'department'
p1351
F0.0008658008658008658
sS'ignorant'
p1352
F0.00021645021645021645
sS'adverts'
p1353
F0.0010822510822510823
sS'riding'
p1354
F0.00021645021645021645
sS'olive'
p1355
F0.0004329004329004329
sS'misreading'
p1356
F0.00021645021645021645
sS'cases'
p1357
F0.00064935064935064935
sS'effort'
p1358
F0.0010822510822510823
sS'capturing'
p1359
F0.00021645021645021645
sS'fly'
p1360
F0.0008658008658008658
sS'states'
p1361
F0.0008658008658008658
sS'graphic'
p1362
F0.00021645021645021645
sS'car'
p1363
F0.0012987012987012987
sS'originally'
p1364
F0.00064935064935064935
sS'cap'
p1365
F0.0010822510822510823
sS'flu'
p1366
F0.00064935064935064935
sS'modified'
p1367
F0.00021645021645021645
sS'believes'
p1368
F0.00021645021645021645
sS'reviews'
p1369
F0.00021645021645021645
sS'labeled'
p1370
F0.00021645021645021645
sS'sour'
p1371
F0.0004329004329004329
sS'values'
p1372
F0.00064935064935064935
sS'can'
p1373
F0.046320346320346317
sS'following'
p1374
F0.01038961038961039
sS'making'
p1375
F0.0010822510822510823
sS'metal'
p1376
F0.00064935064935064935
sS'arrive'
p1377
F0.00021645021645021645
sS'ivy'
p1378
F0.0004329004329004329
sS'dollars'
p1379
F0.00064935064935064935
sS'social'
p1380
F0.0008658008658008658
sS'heart'
p1381
F0.0004329004329004329
sS'crazy'
p1382
F0.0008658008658008658
sS'citizens'
p1383
F0.0004329004329004329
sS'desks'
p1384
F0.0004329004329004329
sS'figure'
p1385
F0.0019480519480519481
sS'recalled'
p1386
F0.00021645021645021645
sS'expanding'
p1387
F0.00021645021645021645
sS'awesome'
p1388
F0.00021645021645021645
sS'arise'
p1389
F0.0004329004329004329
sS'confused'
p1390
F0.00021645021645021645
sS'sample'
p1391
F0.0004329004329004329
sS'heard'
p1392
F0.0045454545454545452
sS'stroke'
p1393
F0.00021645021645021645
sS'incremental'
p1394
F0.0004329004329004329
sS'chin'
p1395
F0.00021645021645021645
sS'performed'
p1396
F0.00064935064935064935
sS'pond'
p1397
F0.0004329004329004329
sS'pinder'
p1398
F0.0004329004329004329
sS'capsules'
p1399
F0.00021645021645021645
sS'counting'
p1400
F0.0008658008658008658
sS'airplane'
p1401
F0.0004329004329004329
sS'nips'
p1402
F0.0004329004329004329
sS'pink'
p1403
F0.0004329004329004329
sS'requirements'
p1404
F0.0028138528138528141
sS'surroundings'
p1405
F0.00021645021645021645
sS'inability'
p1406
F0.00021645021645021645
sS'discussion'
p1407
F0.0004329004329004329
sS'watching'
p1408
F0.0008658008658008658
sS'poking'
p1409
F0.00021645021645021645
sS'pine'
p1410
F0.0008658008658008658
sS'write'
p1411
F0.0012987012987012987
sS'till'
p1412
F0.0008658008658008658
sS'vital'
p1413
F0.0004329004329004329
sS'contrasts'
p1414
F0.00021645021645021645
sS'fourth'
p1415
F0.00021645021645021645
sS'elephant'
p1416
F0.00021645021645021645
sS'ensure'
p1417
F0.0008658008658008658
sS'absolute'
p1418
F0.00064935064935064935
sS'climbing'
p1419
F0.00021645021645021645
sS'map'
p1420
F0.0015151515151515152
sS'product'
p1421
F0.0025974025974025974
sS'mar'
p1422
F0.0023809523809523812
sS'explorer'
p1423
F0.00064935064935064935
sS'huge'
p1424
F0.00064935064935064935
sS'strokes'
p1425
F0.00021645021645021645
sS'coworker'
p1426
F0.00021645021645021645
sS'sacrifice'
p1427
F0.00021645021645021645
sS'logistical'
p1428
F0.00021645021645021645
sS'southern'
p1429
F0.0012987012987012987
sS'needs'
p1430
F0.0058441558441558444
sS'applications'
p1431
F0.0010822510822510823
sS'birthday'
p1432
F0.0015151515151515152
sS'designed'
p1433
F0.00021645021645021645
sS'date'
p1434
F0.007575757575757576
sS'such'
p1435
F0.0021645021645021645
sS'guys'
p1436
F0.012770562770562771
sS'grow'
p1437
F0.00064935064935064935
sS'man'
p1438
F0.0056277056277056281
sS'classroom'
p1439
F0.00021645021645021645
sS'stress'
p1440
F0.00064935064935064935
sS'natural'
p1441
F0.0080086580086580084
sS'remember'
p1442
F0.0015151515151515152
sS'liquid'
p1443
F0.00021645021645021645
sS'beam'
p1444
F0.00021645021645021645
sS'maybe'
p1445
F0.0025974025974025974
sS'voice'
p1446
F0.00064935064935064935
sS'bean'
p1447
F0.00021645021645021645
sS'inform'
p1448
F0.0004329004329004329
sS'cannot'
p1449
F0.0015151515151515152
sS'so'
p1450
F0.035281385281385282
sS'tonights'
p1451
F0.00021645021645021645
sS'arrived'
p1452
F0.00021645021645021645
sS'increase'
p1453
F0.0004329004329004329
sS'pulled'
p1454
F0.0004329004329004329
sS'talk'
p1455
F0.011255411255411256
sS'typical'
p1456
F0.00021645021645021645
sS'acts'
p1457
F0.00021645021645021645
sS'shoes'
p1458
F0.0028138528138528141
sS'distributors'
p1459
F0.00021645021645021645
sS'nerve'
p1460
F0.00021645021645021645
sS'blocker'
p1461
F0.00021645021645021645
sS'pointed'
p1462
F0.0004329004329004329
sS'haircut'
p1463
F0.00021645021645021645
sS'mainly'
p1464
F0.0004329004329004329
sS'years'
p1465
F0.0051948051948051948
sS'brain'
p1466
F0.0004329004329004329
sS'tablets'
p1467
F0.00064935064935064935
sS'mistrusts'
p1468
F0.00021645021645021645
sS'shake'
p1469
F0.00021645021645021645
sS'unfavorable'
p1470
F0.00021645021645021645
sS'dilemma'
p1471
F0.00021645021645021645
sS'cold'
p1472
F0.004329004329004329
sS'still'
p1473
F0.011471861471861472
sS'worship'
p1474
F0.00021645021645021645
sS'cola'
p1475
F0.0004329004329004329
sS'avid'
p1476
F0.00021645021645021645
sS'bronco'
p1477
F0.00021645021645021645
sS'group'
p1478
F0.0067099567099567102
sS'thank'
p1479
F0.007575757575757576
sS'willow'
p1480
F0.00064935064935064935
sS'interesting'
p1481
F0.00021645021645021645
sS'specifics'
p1482
F0.00021645021645021645
sS'presence'
p1483
F0.00021645021645021645
sS'tori'
p1484
F0.0010822510822510823
sS'stupidity'
p1485
F0.00021645021645021645
sS'auburns'
p1486
F0.0021645021645021645
sS'forms'
p1487
F0.0023809523809523812
sS'attraction'
p1488
F0.00021645021645021645
sS'window'
p1489
F0.0004329004329004329
sS'offers'
p1490
F0.0008658008658008658
sS'ladies'
p1491
F0.0010822510822510823
sS'listing'
p1492
F0.0004329004329004329
sS'policy'
p1493
F0.0010822510822510823
sS'mail'
p1494
F0.0183982683982684
sS'main'
p1495
F0.0008658008658008658
sS'lauras'
p1496
F0.00021645021645021645
sS'texas'
p1497
F0.0082251082251082255
sS'happened'
p1498
F0.0015151515151515152
sS'correspondence'
p1499
F0.0004329004329004329
sS'lonely'
p1500
F0.00021645021645021645
sS'finance'
p1501
F0.0010822510822510823
sS'views'
p1502
F0.00021645021645021645
sS'moms'
p1503
F0.0004329004329004329
sS'grandson'
p1504
F0.00021645021645021645
sS'requisition'
p1505
F0.00021645021645021645
sS'hugs'
p1506
F0.00021645021645021645
sS'investigated'
p1507
F0.0004329004329004329
sS'nation'
p1508
F0.00021645021645021645
sS'tucker'
p1509
F0.00021645021645021645
sS'records'
p1510
F0.0004329004329004329
sS'announced'
p1511
F0.0004329004329004329
sS'touching'
p1512
F0.0004329004329004329
sS'hale'
p1513
F0.00021645021645021645
sS'half'
p1514
F0.0017316017316017316
sS'not'
p1515
F0.070562770562770563
sS'sorted'
p1516
F0.00021645021645021645
sS'now'
p1517
F0.012987012987012988
sS'discuss'
p1518
F0.0017316017316017316
sS'nor'
p1519
F0.00064935064935064935
sS'possess'
p1520
F0.0004329004329004329
sS'wont'
p1521
F0.0023809523809523812
sS'cop'
p1522
F0.00021645021645021645
sS'term'
p1523
F0.0021645021645021645
sS'shouted'
p1524
F0.00021645021645021645
sS'name'
p1525
F0.01341991341991342
sS'lies'
p1526
F0.00021645021645021645
sS'publication'
p1527
F0.0015151515151515152
sS'resignation'
p1528
F0.00021645021645021645
sS'drop'
p1529
F0.0015151515151515152
sS'gamble'
p1530
F0.00021645021645021645
sS'bowling'
p1531
F0.0019480519480519481
sS'entirely'
p1532
F0.0004329004329004329
sS'award'
p1533
F0.00064935064935064935
sS'concerts'
p1534
F0.00021645021645021645
sS'reminds'
p1535
F0.00021645021645021645
sS'em'
p1536
F0.00021645021645021645
sS'el'
p1537
F0.00064935064935064935
sS'domain'
p1538
F0.00021645021645021645
sS'differential'
p1539
F0.0008658008658008658
sS'fired'
p1540
F0.00021645021645021645
sS'divisional'
p1541
F0.00021645021645021645
sS'revised'
p1542
F0.0021645021645021645
sS'yeah'
p1543
F0.0012987012987012987
sS'penalty'
p1544
F0.00021645021645021645
sS'wrap'
p1545
F0.00021645021645021645
sS'catching'
p1546
F0.00064935064935064935
sS'resolving'
p1547
F0.00021645021645021645
sS'entering'
p1548
F0.00021645021645021645
sS'year'
p1549
F0.005411255411255411
sS'girl'
p1550
F0.0023809523809523812
sS'summary'
p1551
F0.0038961038961038961
sS'pills'
p1552
F0.00021645021645021645
sS'tried'
p1553
F0.00064935064935064935
sS'album'
p1554
F0.00021645021645021645
sS'living'
p1555
F0.0010822510822510823
sS'shown'
p1556
F0.0008658008658008658
sS'medications'
p1557
F0.00021645021645021645
sS'stitch'
p1558
F0.0004329004329004329
sS'micks'
p1559
F0.00064935064935064935
sS'profit'
p1560
F0.00021645021645021645
sS'factory'
p1561
F0.00021645021645021645
sS'abide'
p1562
F0.00021645021645021645
sS'looking'
p1563
F0.010173160173160173
sS'mess'
p1564
F0.0008658008658008658
sS'contained'
p1565
F0.0008658008658008658
sS'stupid'
p1566
F0.00064935064935064935
sS'cobb'
p1567
F0.00021645021645021645
sS'dutch'
p1568
F0.0004329004329004329
sS'suggesting'
p1569
F0.00021645021645021645
sS'receiving'
p1570
F0.00021645021645021645
sS'hemorrhagic'
p1571
F0.00021645021645021645
sS'correct'
p1572
F0.0062770562770562768
sS'predicted'
p1573
F0.00064935064935064935
sS'intended'
p1574
F0.0021645021645021645
sS'eagle'
p1575
F0.0004329004329004329
sS'earlier'
p1576
F0.00064935064935064935
sS'hull'
p1577
F0.005411255411255411
sS'contain'
p1578
F0.0028138528138528141
sS'material'
p1579
F0.00064935064935064935
sS'brooks'
p1580
F0.00021645021645021645
sS'quite'
p1581
F0.0010822510822510823
sS'california'
p1582
F0.0012987012987012987
sS'lab'
p1583
F0.00021645021645021645
sS'carl'
p1584
F0.0004329004329004329
sS'grandma'
p1585
F0.0021645021645021645
sS'marina'
p1586
F0.00021645021645021645
sS'cough'
p1587
F0.0015151515151515152
sS'remainder'
p1588
F0.00021645021645021645
sS'card'
p1589
F0.0010822510822510823
sS'care'
p1590
F0.0025974025974025974
sS'spouses'
p1591
F0.00021645021645021645
sS'advance'
p1592
F0.00064935064935064935
sS'training'
p1593
F0.0008658008658008658
sS'confidentiality'
p1594
F0.00021645021645021645
sS'language'
p1595
F0.00064935064935064935
sS'recon'
p1596
F0.0015151515151515152
sS'transition'
p1597
F0.0004329004329004329
sS'modest'
p1598
F0.00064935064935064935
sS'honest'
p1599
F0.00064935064935064935
sS'motion'
p1600
F0.00021645021645021645
sS'thing'
p1601
F0.0038961038961038961
sS'extinguisher'
p1602
F0.00021645021645021645
sS'punt'
p1603
F0.00021645021645021645
sS'place'
p1604
F0.004329004329004329
sS'aboard'
p1605
F0.00021645021645021645
sS'entrusted'
p1606
F0.00021645021645021645
sS'warning'
p1607
F0.0004329004329004329
sS'think'
p1608
F0.014502164502164502
sS'frequent'
p1609
F0.00064935064935064935
sS'first'
p1610
F0.01038961038961039
sS'origin'
p1611
F0.00021645021645021645
sS'intuition'
p1612
F0.00021645021645021645
sS'flying'
p1613
F0.0012987012987012987
sS'saving'
p1614
F0.00021645021645021645
sS'revenue'
p1615
F0.0025974025974025974
sS'bed'
p1616
F0.0008658008658008658
sS'question'
p1617
F0.0023809523809523812
sS'faculty'
p1618
F0.00021645021645021645
sS'flipping'
p1619
F0.00021645021645021645
sS'crib'
p1620
F0.00021645021645021645
sS'one'
p1621
F0.026623376623376622
sS'centrals'
p1622
F0.00021645021645021645
sS'submit'
p1623
F0.0004329004329004329
sS'directly'
p1624
F0.00064935064935064935
sS'vote'
p1625
F0.0051948051948051948
sS'message'
p1626
F0.011904761904761904
sS'forwarding'
p1627
F0.0008658008658008658
sS'open'
p1628
F0.0012987012987012987
sS'tomorrow'
p1629
F0.0045454545454545452
sS'ripping'
p1630
F0.00021645021645021645
sS'engineer'
p1631
F0.0004329004329004329
sS'sheep'
p1632
F0.00021645021645021645
sS'city'
p1633
F0.0008658008658008658
sS'little'
p1634
F0.012987012987012988
sS'sheet'
p1635
F0.0034632034632034632
sS'district'
p1636
F0.00021645021645021645
sS'caught'
p1637
F0.00021645021645021645
sS'trillion'
p1638
F0.00021645021645021645
sS'anyone'
p1639
F0.0041125541125541128
sS'encourages'
p1640
F0.00021645021645021645
sS'teacher'
p1641
F0.0017316017316017316
sS'draft'
p1642
F0.0008658008658008658
sS'yip'
p1643
F0.00021645021645021645
sS'typing'
p1644
F0.00064935064935064935
sS'legally'
p1645
F0.0004329004329004329
sS'white'
p1646
F0.0021645021645021645
sS'structures'
p1647
F0.00021645021645021645
sS'friend'
p1648
F0.0008658008658008658
sS'gives'
p1649
F0.0008658008658008658
sS'hug'
p1650
F0.00021645021645021645
sS'hub'
p1651
F0.00064935064935064935
sS'that'
p1652
F0.11969696969696969
sS'pittsburgh'
p1653
F0.00021645021645021645
sS'brains'
p1654
F0.00021645021645021645
sS'memo'
p1655
F0.0010822510822510823
sS'continuous'
p1656
F0.00021645021645021645
sS'huh'
p1657
F0.0010822510822510823
sS'accurately'
p1658
F0.00021645021645021645
sS'spoken'
p1659
F0.00064935064935064935
sS'released'
p1660
F0.00064935064935064935
sS'module'
p1661
F0.0004329004329004329
sS'inmates'
p1662
F0.00021645021645021645
sS'butt'
p1663
F0.0004329004329004329
sS'colter'
p1664
F0.00021645021645021645
sS'copy'
p1665
F0.0025974025974025974
sS'than'
p1666
F0.0064935064935064939
sS'wide'
p1667
F0.0004329004329004329
sS'television'
p1668
F0.00021645021645021645
sS'analyze'
p1669
F0.00021645021645021645
sS'third'
p1670
F0.0023809523809523812
sS'favors'
p1671
F0.00021645021645021645
sS'require'
p1672
F0.00064935064935064935
sS'transferred'
p1673
F0.0008658008658008658
sS'optimism'
p1674
F0.00021645021645021645
sS'future'
p1675
F0.0056277056277056281
sS'apples'
p1676
F0.00021645021645021645
sS'were'
p1677
F0.018831168831168831
sS'cards'
p1678
F0.0004329004329004329
sS'outcome'
p1679
F0.00021645021645021645
sS'tractor'
p1680
F0.00021645021645021645
sS'and'
p1681
F0.25216450216450215
sS'addressing'
p1682
F0.0004329004329004329
sS'illness'
p1683
F0.00021645021645021645
sS'angel'
p1684
F0.00021645021645021645
sS'sal'
p1685
F0.00021645021645021645
sS'sumptuous'
p1686
F0.00021645021645021645
sS'pro'
p1687
F0.00021645021645021645
sS'premier'
p1688
F0.00021645021645021645
sS'turned'
p1689
F0.0017316017316017316
sS'locations'
p1690
F0.003246753246753247
sS'slap'
p1691
F0.00021645021645021645
sS'sad'
p1692
F0.00021645021645021645
sS'happily'
p1693
F0.00021645021645021645
sS'say'
p1694
F0.0051948051948051948
sS'anytime'
p1695
F0.0004329004329004329
sS'nominating'
p1696
F0.0008658008658008658
sS'sells'
p1697
F0.00021645021645021645
sS'sap'
p1698
F0.0012987012987012987
sS'saw'
p1699
F0.0023809523809523812
sS'any'
p1700
F0.046320346320346317
sS'accounted'
p1701
F0.00021645021645021645
sS'sickening'
p1702
F0.00021645021645021645
sS'speakers'
p1703
F0.00021645021645021645
sS'postings'
p1704
F0.0004329004329004329
sS'offering'
p1705
F0.00021645021645021645
sS'efficient'
p1706
F0.00021645021645021645
sS'fucking'
p1707
F0.00021645021645021645
sS'diligence'
p1708
F0.00021645021645021645
sS'upgrading'
p1709
F0.00021645021645021645
sS'aside'
p1710
F0.0004329004329004329
sS'instructed'
p1711
F0.00021645021645021645
sS'note'
p1712
F0.0036796536796536799
sS'equipment'
p1713
F0.00021645021645021645
sS'ideal'
p1714
F0.00021645021645021645
sS'take'
p1715
F0.017532467532467531
sS'bailey'
p1716
F0.00021645021645021645
sS'wanting'
p1717
F0.0008658008658008658
sS'personalized'
p1718
F0.00021645021645021645
sS'paraphrase'
p1719
F0.00021645021645021645
sS'surf'
p1720
F0.00021645021645021645
sS'formulas'
p1721
F0.00021645021645021645
sS'begin'
p1722
F0.00021645021645021645
sS'sure'
p1723
F0.011688311688311689
sS'multiple'
p1724
F0.0010822510822510823
sS'normal'
p1725
F0.0010822510822510823
sS'track'
p1726
F0.0023809523809523812
sS'removes'
p1727
F0.00021645021645021645
sS'price'
p1728
F0.0095238095238095247
sS'keeps'
p1729
F0.0008658008658008658
sS'resulted'
p1730
F0.00021645021645021645
sS'paid'
p1731
F0.0028138528138528141
sS'falls'
p1732
F0.00021645021645021645
sS'boiling'
p1733
F0.0004329004329004329
sS'beta'
p1734
F0.00021645021645021645
sS'freshmen'
p1735
F0.00021645021645021645
sS'importantly'
p1736
F0.0008658008658008658
sS'sheets'
p1737
F0.0012987012987012987
sS'bowels'
p1738
F0.00021645021645021645
sS'knee'
p1739
F0.00021645021645021645
sS'beth'
p1740
F0.0012987012987012987
sS'pages'
p1741
F0.0012987012987012987
sS'gallons'
p1742
F0.00021645021645021645
sS'lawn'
p1743
F0.00021645021645021645
sS'geographic'
p1744
F0.00021645021645021645
sS'especially'
p1745
F0.0004329004329004329
sS'cloth'
p1746
F0.00021645021645021645
sS'diversity'
p1747
F0.00021645021645021645
sS'egg'
p1748
F0.00021645021645021645
sS'average'
p1749
F0.0008658008658008658
sS'later'
p1750
F0.0021645021645021645
sS'implications'
p1751
F0.00021645021645021645
sS'sale'
p1752
F0.0025974025974025974
sS'tooth'
p1753
F0.00021645021645021645
sS'ways'
p1754
F0.0008658008658008658
sS'nuclear'
p1755
F0.00021645021645021645
sS'omit'
p1756
F0.00021645021645021645
sS'professional'
p1757
F0.0008658008658008658
sS'senior'
p1758
F0.0028138528138528141
sS'wine'
p1759
F0.00021645021645021645
sS'salt'
p1760
F0.0008658008658008658
sS'laws'
p1761
F0.00021645021645021645
sS'shop'
p1762
F0.00021645021645021645
sS'rating'
p1763
F0.00021645021645021645
sS'walking'
p1764
F0.0004329004329004329
sS'shot'
p1765
F0.0008658008658008658
sS'show'
p1766
F0.0025974025974025974
sS'cheap'
p1767
F0.00021645021645021645
sS'discovered'
p1768
F0.0004329004329004329
sS'troy'
p1769
F0.0034632034632034632
sS'masks'
p1770
F0.0004329004329004329
sS'corner'
p1771
F0.0004329004329004329
sS'aggressive'
p1772
F0.00021645021645021645
sS'snider'
p1773
F0.0004329004329004329
sS'fifth'
p1774
F0.00021645021645021645
sS'ground'
p1775
F0.0004329004329004329
sS'slot'
p1776
F0.00021645021645021645
sS'fibre'
p1777
F0.00021645021645021645
sS'specifically'
p1778
F0.0004329004329004329
sS'supporters'
p1779
F0.00064935064935064935
sS'macros'
p1780
F0.00064935064935064935
sS'transact'
p1781
F0.00021645021645021645
sS'dick'
p1782
F0.0010822510822510823
sS'enough'
p1783
F0.0034632034632034632
sS'examples'
p1784
F0.0004329004329004329
sS'swamped'
p1785
F0.00021645021645021645
sS'only'
p1786
F0.019047619047619049
sS'going'
p1787
F0.020779220779220779
sS'black'
p1788
F0.0025974025974025974
sS'treasury'
p1789
F0.00064935064935064935
sS'interstate'
p1790
F0.00064935064935064935
sS'spirit'
p1791
F0.00021645021645021645
sS'directed'
p1792
F0.0004329004329004329
sS'guarded'
p1793
F0.00021645021645021645
sS'closed'
p1794
F0.00021645021645021645
sS'uncles'
p1795
F0.0004329004329004329
sS'get'
p1796
F0.03614718614718615
sS'contracts'
p1797
F0.00064935064935064935
sS'assistant'
p1798
F0.0008658008658008658
sS'jazz'
p1799
F0.0047619047619047623
sS'designated'
p1800
F0.0017316017316017316
sS'truly'
p1801
F0.00021645021645021645
sS'killers'
p1802
F0.0004329004329004329
sS'nearly'
p1803
F0.0004329004329004329
sS'theta'
p1804
F0.00021645021645021645
sS'hooper'
p1805
F0.0008658008658008658
sS'hedge'
p1806
F0.0017316017316017316
sS'trade'
p1807
F0.0015151515151515152
sS'juggle'
p1808
F0.00021645021645021645
sS'celebrate'
p1809
F0.00021645021645021645
sS'jokes'
p1810
F0.0004329004329004329
sS'regarding'
p1811
F0.0017316017316017316
sS'reading'
p1812
F0.00021645021645021645
sS'keenly'
p1813
F0.00021645021645021645
sS'tube'
p1814
F0.00021645021645021645
sS'seldom'
p1815
F0.0004329004329004329
sS'perdue'
p1816
F0.0008658008658008658
sS'storeys'
p1817
F0.00021645021645021645
sS'requesting'
p1818
F0.0004329004329004329
sS'decker'
p1819
F0.00021645021645021645
sS'miles'
p1820
F0.0004329004329004329
sS'roger'
p1821
F0.00064935064935064935
sS'deferral'
p1822
F0.00064935064935064935
sS'mapped'
p1823
F0.0008658008658008658
sS'tent'
p1824
F0.00021645021645021645
sS'where'
p1825
F0.0056277056277056281
sS'communicated'
p1826
F0.00021645021645021645
sS'vision'
p1827
F0.00021645021645021645
sS'reveals'
p1828
F0.00021645021645021645
sS'declared'
p1829
F0.00021645021645021645
sS'honesty'
p1830
F0.0004329004329004329
sS'physically'
p1831
F0.0004329004329004329
sS'station'
p1832
F0.0004329004329004329
sS'signs'
p1833
F0.00021645021645021645
sS'ends'
p1834
F0.00021645021645021645
sS'seat'
p1835
F0.0010822510822510823
sS'elected'
p1836
F0.0021645021645021645
sS'actively'
p1837
F0.00021645021645021645
sS'college'
p1838
F0.0019480519480519481
sS'considered'
p1839
F0.0004329004329004329
sS'eliminating'
p1840
F0.00021645021645021645
sS'seal'
p1841
F0.0010822510822510823
sS'calendar'
p1842
F0.00064935064935064935
sS'points'
p1843
F0.0028138528138528141
sS'loudspeaker'
p1844
F0.00021645021645021645
sS'fails'
p1845
F0.00021645021645021645
sS'leaning'
p1846
F0.0004329004329004329
sS'receipt'
p1847
F0.00021645021645021645
sS'pennsylvania'
p1848
F0.00021645021645021645
sS'mortgage'
p1849
F0.00021645021645021645
sS'generosity'
p1850
F0.00021645021645021645
sS'federal'
p1851
F0.0021645021645021645
sS'subsequent'
p1852
F0.00064935064935064935
sS'review'
p1853
F0.003246753246753247
sS'opening'
p1854
F0.00064935064935064935
sS'sites'
p1855
F0.00021645021645021645
sS'gage'
p1856
F0.00021645021645021645
sS'pump'
p1857
F0.00021645021645021645
sS'morales'
p1858
F0.00064935064935064935
sS'between'
p1859
F0.0041125541125541128
sS'simplifying'
p1860
F0.00021645021645021645
sS'justified'
p1861
F0.00021645021645021645
sS'dreamer'
p1862
F0.00021645021645021645
sS'slingshot'
p1863
F0.00021645021645021645
sS'lays'
p1864
F0.00021645021645021645
sS'arrival'
p1865
F0.00064935064935064935
sS'notice'
p1866
F0.0025974025974025974
sS'beverages'
p1867
F0.00021645021645021645
sS'jobs'
p1868
F0.0008658008658008658
sS'august'
p1869
F0.0017316017316017316
sS'originated'
p1870
F0.00064935064935064935
sS'farts'
p1871
F0.00021645021645021645
sS'screen'
p1872
F0.0015151515151515152
sS'killing'
p1873
F0.00021645021645021645
sS'concentrate'
p1874
F0.00021645021645021645
sS'article'
p1875
F0.0008658008658008658
sS'comb'
p1876
F0.00021645021645021645
sS'come'
p1877
F0.0062770562770562768
sS'coupons'
p1878
F0.00021645021645021645
sS'postage'
p1879
F0.00021645021645021645
sS'reaction'
p1880
F0.00021645021645021645
sS'dates'
p1881
F0.0010822510822510823
sS'inquiring'
p1882
F0.00021645021645021645
sS'rugby'
p1883
F0.00064935064935064935
sS'talented'
p1884
F0.0004329004329004329
sS'many'
p1885
F0.0045454545454545452
sS'region'
p1886
F0.0056277056277056281
sS'trades'
p1887
F0.0023809523809523812
sS'according'
p1888
F0.0012987012987012987
sS'contract'
p1889
F0.0021645021645021645
sS'flipped'
p1890
F0.0034632034632034632
sS'deduction'
p1891
F0.00021645021645021645
sS'personal'
p1892
F0.0036796536796536799
sS'dissolve'
p1893
F0.0004329004329004329
sS'jo'
p1894
F0.00021645021645021645
sS'berry'
p1895
F0.00021645021645021645
sS'sustain'
p1896
F0.00021645021645021645
sS'downtrodden'
p1897
F0.0004329004329004329
sS'senator'
p1898
F0.0004329004329004329
sS'holders'
p1899
F0.00021645021645021645
sS'expression'
p1900
F0.00021645021645021645
sS'vela'
p1901
F0.0004329004329004329
sS'comes'
p1902
F0.0019480519480519481
sS'comer'
p1903
F0.00021645021645021645
sS'concert'
p1904
F0.00021645021645021645
sS'among'
p1905
F0.0012987012987012987
sS'glazier'
p1906
F0.00021645021645021645
sS'passenger'
p1907
F0.0010822510822510823
sS'color'
p1908
F0.00064935064935064935
sS'annual'
p1909
F0.00021645021645021645
sS'pot'
p1910
F0.00021645021645021645
sS'period'
p1911
F0.0004329004329004329
sS'insist'
p1912
F0.0004329004329004329
sS'satisfaction'
p1913
F0.00021645021645021645
sS'pole'
p1914
F0.00021645021645021645
sS'anti'
p1915
F0.00021645021645021645
sS'confirmed'
p1916
F0.00021645021645021645
sS'learning'
p1917
F0.0004329004329004329
sS'cancel'
p1918
F0.0004329004329004329
sS'liberal'
p1919
F0.00021645021645021645
sS'crew'
p1920
F0.0004329004329004329
sS'considers'
p1921
F0.00021645021645021645
sS'boat'
p1922
F0.00021645021645021645
sS'adults'
p1923
F0.00021645021645021645
sS'turkey'
p1924
F0.0004329004329004329
sS'save'
p1925
F0.00064935064935064935
sS'unusual'
p1926
F0.0008658008658008658
sS'punishes'
p1927
F0.00021645021645021645
sS'cares'
p1928
F0.00064935064935064935
sS'west'
p1929
F0.0019480519480519481
sS'skew'
p1930
F0.00021645021645021645
sS'informed'
p1931
F0.00021645021645021645
sS'vacation'
p1932
F0.0030303030303030303
sS'mark'
p1933
F0.0088744588744588751
sS'attaching'
p1934
F0.0004329004329004329
sS'subscribes'
p1935
F0.00021645021645021645
sS'deposited'
p1936
F0.00021645021645021645
sS'motives'
p1937
F0.00021645021645021645
sS'acre'
p1938
F0.00021645021645021645
sS'partisanship'
p1939
F0.00021645021645021645
sS'dumps'
p1940
F0.00021645021645021645
sS'transactions'
p1941
F0.0004329004329004329
sS'hardly'
p1942
F0.0004329004329004329
sS'fig'
p1943
F0.00064935064935064935
sS'wants'
p1944
F0.0025974025974025974
sS'direction'
p1945
F0.00021645021645021645
sS'enable'
p1946
F0.00021645021645021645
sS'shopping'
p1947
F0.00064935064935064935
sS'recruiting'
p1948
F0.0021645021645021645
sS'offered'
p1949
F0.00021645021645021645
sS'formed'
p1950
F0.00021645021645021645
sS'wires'
p1951
F0.00021645021645021645
sS'tiger'
p1952
F0.0017316017316017316
sS'photos'
p1953
F0.00021645021645021645
sS'observe'
p1954
F0.00021645021645021645
sS'external'
p1955
F0.00064935064935064935
sS'asks'
p1956
F0.0015151515151515152
sS'suspected'
p1957
F0.00021645021645021645
sS'careful'
p1958
F0.00021645021645021645
sS'pattie'
p1959
F0.00021645021645021645
sS'those'
p1960
F0.0064935064935064939
sS'pilot'
p1961
F0.0010822510822510823
sS'case'
p1962
F0.0017316017316017316
sS'polly'
p1963
F0.00021645021645021645
sS'myself'
p1964
F0.0004329004329004329
sS'these'
p1965
F0.032900432900432902
sS'variances'
p1966
F0.0056277056277056281
sS'worried'
p1967
F0.00021645021645021645
sS'obligating'
p1968
F0.00021645021645021645
sS'single'
p1969
F0.0010822510822510823
sS'premature'
p1970
F0.00021645021645021645
sS'admired'
p1971
F0.00021645021645021645
sS'sometime'
p1972
F0.0004329004329004329
sS'ongoing'
p1973
F0.00021645021645021645
sS'crump'
p1974
F0.00021645021645021645
sS'newspaper'
p1975
F0.00021645021645021645
sS'situation'
p1976
F0.0012987012987012987
sS'trader'
p1977
F0.0060606060606060606
sS'operate'
p1978
F0.0004329004329004329
sS'technical'
p1979
F0.00021645021645021645
sS'noel'
p1980
F0.00021645021645021645
sS'alcoholic'
p1981
F0.00021645021645021645
sS'characteristics'
p1982
F0.0004329004329004329
sS'simulations'
p1983
F0.00021645021645021645
sS'duplicating'
p1984
F0.00021645021645021645
sS'couples'
p1985
F0.00064935064935064935
sS'canceled'
p1986
F0.00021645021645021645
sS'evening'
p1987
F0.0015151515151515152
sS'punched'
p1988
F0.00021645021645021645
sS'stewardess'
p1989
F0.00021645021645021645
sS'argue'
p1990
F0.00021645021645021645
sS'somebody'
p1991
F0.00064935064935064935
sS'technology'
p1992
F0.00064935064935064935
sS'shines'
p1993
F0.00021645021645021645
sS'worry'
p1994
F0.00064935064935064935
sS'comments'
p1995
F0.00064935064935064935
sS'bags'
p1996
F0.00021645021645021645
sS'different'
p1997
F0.0015151515151515152
sS'missiles'
p1998
F0.00021645021645021645
sS'verified'
p1999
F0.00021645021645021645
sS'projector'
p2000
F0.00021645021645021645
sS'author'
p2001
F0.00021645021645021645
sS'inquire'
p2002
F0.00021645021645021645
sS'pay'
p2003
F0.0034632034632034632
sS'granted'
p2004
F0.00064935064935064935
sS'expired'
p2005
F0.00021645021645021645
sS'tour'
p2006
F0.0004329004329004329
sS'same'
p2007
F0.0090909090909090905
sS'trip'
p2008
F0.0021645021645021645
sS'gentlemen'
p2009
F0.0010822510822510823
sS'motley'
p2010
F0.00021645021645021645
sS'poetic'
p2011
F0.00021645021645021645
sS'inquiry'
p2012
F0.00021645021645021645
sS'shit'
p2013
F0.0008658008658008658
sS'reminder'
p2014
F0.0010822510822510823
sS'document'
p2015
F0.00064935064935064935
sS'pam'
p2016
F0.0012987012987012987
sS'disappointment'
p2017
F0.00021645021645021645
sS'status'
p2018
F0.0012987012987012987
sS'noble'
p2019
F0.00021645021645021645
sS'pedantic'
p2020
F0.00021645021645021645
sS'oil'
p2021
F0.0021645021645021645
sS'assigns'
p2022
F0.00021645021645021645
sS'enjoyment'
p2023
F0.00021645021645021645
sS'nest'
p2024
F0.00021645021645021645
sS'assist'
p2025
F0.0004329004329004329
sS'driver'
p2026
F0.0004329004329004329
sS'earned'
p2027
F0.00021645021645021645
sS'companion'
p2028
F0.0004329004329004329
sS'director'
p2029
F0.0010822510822510823
sS'submarines'
p2030
F0.00021645021645021645
sS'running'
p2031
F0.0025974025974025974
sS'puke'
p2032
F0.00021645021645021645
sS'favorites'
p2033
F0.00021645021645021645
sS'butterfly'
p2034
F0.00021645021645021645
sS'arguments'
p2035
F0.00021645021645021645
sS'changing'
p2036
F0.0028138528138528141
sS'validate'
p2037
F0.00021645021645021645
sS'totally'
p2038
F0.00064935064935064935
sS'tradition'
p2039
F0.00021645021645021645
sS'band'
p2040
F0.00021645021645021645
sS'charges'
p2041
F0.0008658008658008658
sS'macro'
p2042
F0.0004329004329004329
sS'floor'
p2043
F0.0010822510822510823
sS'roughly'
p2044
F0.0019480519480519481
sS'severe'
p2045
F0.00021645021645021645
sS'without'
p2046
F0.0038961038961038961
sS'poplar'
p2047
F0.0008658008658008658
sS'relief'
p2048
F0.0010822510822510823
sS'very'
p2049
F0.0093073593073593076
sS'penetration'
p2050
F0.0004329004329004329
sS'model'
p2051
F0.0010822510822510823
sS'commercials'
p2052
F0.00021645021645021645
sS'scholarship'
p2053
F0.0008658008658008658
sS'gates'
p2054
F0.0004329004329004329
sS'sec'
p2055
F0.00064935064935064935
sS'idleness'
p2056
F0.0004329004329004329
sS'affair'
p2057
F0.0004329004329004329
sS'being'
p2058
F0.0067099567099567102
sS'money'
p2059
F0.0041125541125541128
sS'adjustments'
p2060
F0.0023809523809523812
sS'actions'
p2061
F0.0004329004329004329
sS'eagles'
p2062
F0.00021645021645021645
sS'inception'
p2063
F0.00021645021645021645
sS'kill'
p2064
F0.0008658008658008658
sS'greetings'
p2065
F0.0004329004329004329
sS'touch'
p2066
F0.00064935064935064935
sS'tomorrows'
p2067
F0.00021645021645021645
sS'captured'
p2068
F0.0004329004329004329
sS'weekly'
p2069
F0.0004329004329004329
sS'announcement'
p2070
F0.0008658008658008658
sS'alphabetical'
p2071
F0.00021645021645021645
sS'death'
p2072
F0.0004329004329004329
sS'dipped'
p2073
F0.00021645021645021645
sS'kirk'
p2074
F0.0004329004329004329
sS'thinking'
p2075
F0.0028138528138528141
sS'rose'
p2076
F0.00021645021645021645
sS'seems'
p2077
F0.0017316017316017316
sS'except'
p2078
F0.0004329004329004329
sS'improvement'
p2079
F0.00064935064935064935
sS'lets'
p2080
F0.0021645021645021645
sS'borax'
p2081
F0.0004329004329004329
sS'treatment'
p2082
F0.00021645021645021645
sS'samples'
p2083
F0.0004329004329004329
sS'hungers'
p2084
F0.00021645021645021645
sS'coded'
p2085
F0.00021645021645021645
sS'poised'
p2086
F0.00021645021645021645
sS'skies'
p2087
F0.00021645021645021645
sS'real'
p2088
F0.0036796536796536799
sS'jake'
p2089
F0.0004329004329004329
sS'clay'
p2090
F0.00021645021645021645
sS'around'
p2091
F0.0051948051948051948
sS'turndown'
p2092
F0.0010822510822510823
sS'read'
p2093
F0.0038961038961038961
sS'mow'
p2094
F0.00021645021645021645
sS'irrational'
p2095
F0.00021645021645021645
sS'early'
p2096
F0.0017316017316017316
sS'earnest'
p2097
F0.0008658008658008658
sS'mon'
p2098
F0.0030303030303030303
sS'mom'
p2099
F0.0030303030303030303
sS'schedules'
p2100
F0.0019480519480519481
sS'world'
p2101
F0.0017316017316017316
sS'execution'
p2102
F0.00021645021645021645
sS'recipient'
p2103
F0.0023809523809523812
sS'calculate'
p2104
F0.0010822510822510823
sS'rear'
p2105
F0.00021645021645021645
sS'fortune'
p2106
F0.0004329004329004329
sS'pounds'
p2107
F0.00021645021645021645
sS'clad'
p2108
F0.0004329004329004329
sS'strictly'
p2109
F0.0008658008658008658
sS'towed'
p2110
F0.00021645021645021645
sS'server'
p2111
F0.00021645021645021645
sS'sanity'
p2112
F0.00021645021645021645
sS'invention'
p2113
F0.00021645021645021645
sS'benefit'
p2114
F0.0004329004329004329
sS'donations'
p2115
F0.00021645021645021645
sS'either'
p2116
F0.0004329004329004329
sS'fully'
p2117
F0.0004329004329004329
sS'served'
p2118
F0.0004329004329004329
sS'voluntarily'
p2119
F0.00021645021645021645
sS'nice'
p2120
F0.0023809523809523812
sS'reduced'
p2121
F0.00021645021645021645
sS'grouping'
p2122
F0.00021645021645021645
sS'twelve'
p2123
F0.00021645021645021645
sS'doll'
p2124
F0.00021645021645021645
sS'pronounce'
p2125
F0.00021645021645021645
sS'pacific'
p2126
F0.0012987012987012987
sS'respect'
p2127
F0.0008658008658008658
sS'duration'
p2128
F0.00021645021645021645
sS'intend'
p2129
F0.00021645021645021645
sS'treatments'
p2130
F0.00021645021645021645
sS'thinks'
p2131
F0.00021645021645021645
sS'mustard'
p2132
F0.00021645021645021645
sS'provided'
p2133
F0.0004329004329004329
sS'regina'
p2134
F0.00021645021645021645
sS'swaps'
p2135
F0.0010822510822510823
sS'confirm'
p2136
F0.0010822510822510823
sS'cavity'
p2137
F0.00021645021645021645
sS'noon'
p2138
F0.0004329004329004329
sS'lotto'
p2139
F0.00021645021645021645
sS'seaman'
p2140
F0.00021645021645021645
sS'legal'
p2141
F0.0008658008658008658
sS'disciplinary'
p2142
F0.00021645021645021645
sS'toad'
p2143
F0.00021645021645021645
sS'critical'
p2144
F0.0004329004329004329
sS'exit'
p2145
F0.0004329004329004329
sS'bridges'
p2146
F0.0004329004329004329
sS'provides'
p2147
F0.0004329004329004329
sS'porter'
p2148
F0.00021645021645021645
sS'refer'
p2149
F0.0010822510822510823
sS'biased'
p2150
F0.00021645021645021645
sS'welcome'
p2151
F0.0017316017316017316
sS'scientific'
p2152
F0.00021645021645021645
sS'business'
p2153
F0.0036796536796536799
sS'sensible'
p2154
F0.00021645021645021645
sS'sixth'
p2155
F0.00064935064935064935
sS'equivalent'
p2156
F0.00021645021645021645
sS'writer'
p2157
F0.00021645021645021645
sS'notable'
p2158
F0.00021645021645021645
sS'broker'
p2159
F0.003246753246753247
sS'hunt'
p2160
F0.00021645021645021645
sS'broken'
p2161
F0.0004329004329004329
sS'calmer'
p2162
F0.00021645021645021645
sS'fractured'
p2163
F0.00021645021645021645
sS'leftover'
p2164
F0.00021645021645021645
sS'exciting'
p2165
F0.00064935064935064935
sS'throw'
p2166
F0.0008658008658008658
sS'raptor'
p2167
F0.0004329004329004329
sS'lock'
p2168
F0.00021645021645021645
sS'on'
p2169
F0.22186147186147187
sS'om'
p2170
F0.0012987012987012987
sS'central'
p2171
F0.014718614718614719
sS'oh'
p2172
F0.0008658008658008658
sS'roar'
p2173
F0.00021645021645021645
sS'of'
p2174
F0.16883116883116883
sS'violence'
p2175
F0.00021645021645021645
sS'discussed'
p2176
F0.0008658008658008658
sS'drag'
p2177
F0.00021645021645021645
sS'impervious'
p2178
F0.00021645021645021645
sS'thousands'
p2179
F0.00064935064935064935
sS'practical'
p2180
F0.00021645021645021645
sS'tremendous'
p2181
F0.0004329004329004329
sS'boldly'
p2182
F0.00021645021645021645
sS'stand'
p2183
F0.0023809523809523812
sS'neighbor'
p2184
F0.00021645021645021645
sS'act'
p2185
F0.00064935064935064935
sS'invested'
p2186
F0.00021645021645021645
sS'luck'
p2187
F0.00064935064935064935
sS'backup'
p2188
F0.00021645021645021645
sS'or'
p2189
F0.040259740259740259
sS'road'
p2190
F0.004329004329004329
sS'wire'
p2191
F0.00021645021645021645
sS'outlook'
p2192
F0.0017316017316017316
sS'lands'
p2193
F0.0004329004329004329
sS'route'
p2194
F0.0004329004329004329
sS'decreased'
p2195
F0.00021645021645021645
sS'reactions'
p2196
F0.00021645021645021645
sS'instruments'
p2197
F0.00021645021645021645
sS'image'
p2198
F0.00064935064935064935
sS'signing'
p2199
F0.00021645021645021645
sS'garner'
p2200
F0.0004329004329004329
sS'accounts'
p2201
F0.00021645021645021645
sS'determine'
p2202
F0.00064935064935064935
sS'strip'
p2203
F0.00064935064935064935
sS'burton'
p2204
F0.0010822510822510823
sS'wade'
p2205
F0.0015151515151515152
sS'your'
p2206
F0.087012987012987014
sS'fast'
p2207
F0.0008658008658008658
sS'forwarded'
p2208
F0.083333333333333329
sS'her'
p2209
F0.011471861471861472
sS'area'
p2210
F0.0017316017316017316
sS'treys'
p2211
F0.00021645021645021645
sS'there'
p2212
F0.026839826839826841
sS'relocation'
p2213
F0.00064935064935064935
sS'hey'
p2214
F0.005411255411255411
sS'deadlines'
p2215
F0.00021645021645021645
sS'start'
p2216
F0.003246753246753247
sS'forwarder'
p2217
F0.00021645021645021645
sS'missy'
p2218
F0.00021645021645021645
sS'low'
p2219
F0.0004329004329004329
sS'lot'
p2220
F0.0012987012987012987
sS'johns'
p2221
F0.00021645021645021645
sS'bubble'
p2222
F0.0012987012987012987
sS'energy'
p2223
F0.013636363636363636
sS'assumes'
p2224
F0.00021645021645021645
sS'chats'
p2225
F0.00021645021645021645
sS'bipartisan'
p2226
F0.00021645021645021645
sS'complete'
p2227
F0.0017316017316017316
sS'wits'
p2228
F0.00021645021645021645
sS'judging'
p2229
F0.00021645021645021645
sS'jun'
p2230
F0.0015151515151515152
sS'sophisticated'
p2231
F0.0004329004329004329
sS'suffers'
p2232
F0.00021645021645021645
sS'mick'
p2233
F0.00021645021645021645
sS'gore'
p2234
F0.0067099567099567102
sS'survived'
p2235
F0.00021645021645021645
sS'elimination'
p2236
F0.00021645021645021645
sS'fastened'
p2237
F0.00021645021645021645
sS'technologies'
p2238
F0.00021645021645021645
sS'trying'
p2239
F0.0023809523809523812
sS'with'
p2240
F0.097186147186147182
sS'buying'
p2241
F0.00064935064935064935
sS'faster'
p2242
F0.00021645021645021645
sS'football'
p2243
F0.0036796536796536799
sS'pull'
p2244
F0.0015151515151515152
sS'rush'
p2245
F0.00064935064935064935
sS'applying'
p2246
F0.00021645021645021645
sS'embedded'
p2247
F0.0004329004329004329
sS'contracting'
p2248
F0.0004329004329004329
sS'default'
p2249
F0.00021645021645021645
sS'wholesale'
p2250
F0.0004329004329004329
sS'mat'
p2251
F0.00021645021645021645
sS'turbines'
p2252
F0.0004329004329004329
sS'nearest'
p2253
F0.00021645021645021645
sS'dirty'
p2254
F0.00021645021645021645
sS'behalf'
p2255
F0.0004329004329004329
sS'grass'
p2256
F0.00021645021645021645
sS'agree'
p2257
F0.0017316017316017316
sS'rust'
p2258
F0.00021645021645021645
sS'detailed'
p2259
F0.0008658008658008658
sS'gone'
p2260
F0.0034632034632034632
sS'required'
p2261
F0.0021645021645021645
sS'ae'
p2262
F0.00021645021645021645
sS'ad'
p2263
F0.00021645021645021645
sS'taste'
p2264
F0.0010822510822510823
sS'certain'
p2265
F0.00064935064935064935
sS'describe'
p2266
F0.00021645021645021645
sS'am'
p2267
F0.14004329004329005
sS'sales'
p2268
F0.0025974025974025974
sS'deep'
p2269
F0.0004329004329004329
sS'fellow'
p2270
F0.00064935064935064935
sS'imagination'
p2271
F0.0004329004329004329
sS'as'
p2272
F0.056493506493506492
sS'arises'
p2273
F0.00021645021645021645
sS'at'
p2274
F0.050649350649350652
sS'file'
p2275
F0.018181818181818181
sS'watched'
p2276
F0.00021645021645021645
sS'deed'
p2277
F0.00021645021645021645
sS'chose'
p2278
F0.0004329004329004329
sS'fill'
p2279
F0.003246753246753247
sS'incorrect'
p2280
F0.00064935064935064935
sS'again'
p2281
F0.0077922077922077922
sS'managing'
p2282
F0.00021645021645021645
sS'heather'
p2283
F0.00064935064935064935
sS'drafts'
p2284
F0.00021645021645021645
sS'dated'
p2285
F0.0004329004329004329
sS'deserve'
p2286
F0.00021645021645021645
sS'storage'
p2287
F0.0045454545454545452
sS'green'
p2288
F0.00064935064935064935
sS'graduate'
p2289
F0.0010822510822510823
sS'field'
p2290
F0.003246753246753247
sS'trample'
p2291
F0.00021645021645021645
sS'valid'
p2292
F0.0004329004329004329
sS'someones'
p2293
F0.00021645021645021645
sS'mathematics'
p2294
F0.00021645021645021645
sS'you'
p2295
F0.22857142857142856
sS'incomprehensible'
p2296
F0.00021645021645021645
sS'poor'
p2297
F0.0004329004329004329
sS'requested'
p2298
F0.0017316017316017316
sS'championship'
p2299
F0.0010822510822510823
sS'standardize'
p2300
F0.00021645021645021645
sS'committed'
p2301
F0.00021645021645021645
sS'congress'
p2302
F0.00021645021645021645
sS'separate'
p2303
F0.0004329004329004329
sS'students'
p2304
F0.0008658008658008658
sS'teeth'
p2305
F0.0004329004329004329
sS'carpenter'
p2306
F0.0004329004329004329
sS'includes'
p2307
F0.00021645021645021645
sS'seriousness'
p2308
F0.00021645021645021645
sS'loading'
p2309
F0.00021645021645021645
sS'important'
p2310
F0.0030303030303030303
sS'peak'
p2311
F0.00021645021645021645
sS'coverage'
p2312
F0.0008658008658008658
sS'terry'
p2313
F0.0010822510822510823
sS'included'
p2314
F0.0017316017316017316
sS'prudent'
p2315
F0.00021645021645021645
sS'pool'
p2316
F0.0030303030303030303
sS'building'
p2317
F0.0004329004329004329
sS'booked'
p2318
F0.0030303030303030303
sS'subdivision'
p2319
F0.00021645021645021645
sS'assets'
p2320
F0.0004329004329004329
sS'calls'
p2321
F0.00064935064935064935
sS'wife'
p2322
F0.00064935064935064935
sS'controlled'
p2323
F0.00021645021645021645
sS'invest'
p2324
F0.00021645021645021645
sS'curve'
p2325
F0.0060606060606060606
sS'finished'
p2326
F0.0008658008658008658
sS'sounded'
p2327
F0.00021645021645021645
sS'directors'
p2328
F0.0004329004329004329
sS'ensuring'
p2329
F0.00021645021645021645
sS'thorp'
p2330
F0.00021645021645021645
sS'token'
p2331
F0.00021645021645021645
sS'directory'
p2332
F0.0004329004329004329
sS'sensibility'
p2333
F0.00021645021645021645
sS'evenly'
p2334
F0.00021645021645021645
sS'starting'
p2335
F0.0025974025974025974
sS'original'
p2336
F0.008658008658008658
sS'leal'
p2337
F0.0004329004329004329
sS'migrated'
p2338
F0.00021645021645021645
sS'all'
p2339
F0.043073593073593076
sS'since'
p2340
F0.0060606060606060606
sS'forget'
p2341
F0.0017316017316017316
sS'pointing'
p2342
F0.0004329004329004329
sS'marry'
p2343
F0.00021645021645021645
sS'allergy'
p2344
F0.0008658008658008658
sS'concern'
p2345
F0.0004329004329004329
sS'splitting'
p2346
F0.00021645021645021645
sS'month'
p2347
F0.0067099567099567102
sS'unrest'
p2348
F0.00021645021645021645
sS'commute'
p2349
F0.00021645021645021645
sS'deadline'
p2350
F0.00064935064935064935
sS'follow'
p2351
F0.0017316017316017316
sS'decisions'
p2352
F0.0010822510822510823
sS'children'
p2353
F0.0023809523809523812
sS'causes'
p2354
F0.00021645021645021645
sS'improperly'
p2355
F0.0008658008658008658
sS'synthetic'
p2356
F0.0047619047619047623
sS'griffin'
p2357
F0.00021645021645021645
sS'fits'
p2358
F0.00021645021645021645
sS'fletch'
p2359
F0.00021645021645021645
sS'cliff'
p2360
F0.00021645021645021645
sS'switched'
p2361
F0.00021645021645021645
sS'former'
p2362
F0.00064935064935064935
sS'to'
p2363
F0.5017316017316017
sS'program'
p2364
F0.0012987012987012987
sS'verse'
p2365
F0.00021645021645021645
sS'painter'
p2366
F0.0004329004329004329
sS'issued'
p2367
F0.00021645021645021645
sS'safety'
p2368
F0.00021645021645021645
sS'enjoying'
p2369
F0.0008658008658008658
sS'azaleas'
p2370
F0.0010822510822510823
sS'traditionally'
p2371
F0.0004329004329004329
sS'longtime'
p2372
F0.00021645021645021645
sS'sound'
p2373
F0.0008658008658008658
sS'fax'
p2374
F0.0015151515151515152
sS'woman'
p2375
F0.0019480519480519481
sS'premium'
p2376
F0.0008658008658008658
sS'worse'
p2377
F0.0004329004329004329
sS'confidential'
p2378
F0.0030303030303030303
sS'sitting'
p2379
F0.0012987012987012987
sS'far'
p2380
F0.003246753246753247
sS'ticked'
p2381
F0.0004329004329004329
sS'carefree'
p2382
F0.00021645021645021645
sS'billie'
p2383
F0.0004329004329004329
sS'me'
p2384
F0.067316017316017315
sS'scout'
p2385
F0.0004329004329004329
sS'fan'
p2386
F0.0015151515151515152
sS'decide'
p2387
F0.0010822510822510823
sS'fall'
p2388
F0.0015151515151515152
sS'winning'
p2389
F0.00021645021645021645
sS'ticket'
p2390
F0.00064935064935064935
sS'difference'
p2391
F0.0004329004329004329
sS'condition'
p2392
F0.00021645021645021645
sS'treating'
p2393
F0.00021645021645021645
sS'leads'
p2394
F0.0012987012987012987
sS'mothers'
p2395
F0.00021645021645021645
sS'louis'
p2396
F0.0028138528138528141
sS'list'
p2397
F0.0073593073593073597
sS'pack'
p2398
F0.00021645021645021645
sS'grandfather'
p2399
F0.0008658008658008658
sS'large'
p2400
F0.0023809523809523812
sS'boozer'
p2401
F0.00021645021645021645
sS'adjust'
p2402
F0.00021645021645021645
sS'independence'
p2403
F0.0012987012987012987
sS'harry'
p2404
F0.0028138528138528141
sS'small'
p2405
F0.0023809523809523812
sS'biological'
p2406
F0.00021645021645021645
sS'dodger'
p2407
F0.00021645021645021645
sS'relenting'
p2408
F0.00021645021645021645
sS'webster'
p2409
F0.0004329004329004329
sS'benjamin'
p2410
F0.00021645021645021645
sS'refers'
p2411
F0.00021645021645021645
sS'ten'
p2412
F0.0008658008658008658
sS'carriers'
p2413
F0.00021645021645021645
sS'skiing'
p2414
F0.00064935064935064935
sS'tee'
p2415
F0.0010822510822510823
sS'cash'
p2416
F0.0017316017316017316
sS'past'
p2417
F0.0017316017316017316
sS'rate'
p2418
F0.00064935064935064935
sS'grease'
p2419
F0.0004329004329004329
sS'design'
p2420
F0.0012987012987012987
sS'vivacious'
p2421
F0.00064935064935064935
sS'lawyer'
p2422
F0.00021645021645021645
sS'pass'
p2423
F0.0041125541125541128
sS'further'
p2424
F0.0038961038961038961
sS'returned'
p2425
F0.0004329004329004329
sS'belief'
p2426
F0.00021645021645021645
sS'toilet'
p2427
F0.0004329004329004329
sS'what'
p2428
F0.031168831168831169
sS'golfer'
p2429
F0.00021645021645021645
sS'stood'
p2430
F0.0004329004329004329
sS'sub'
p2431
F0.00021645021645021645
sS'consumers'
p2432
F0.0008658008658008658
sS'brackets'
p2433
F0.00064935064935064935
sS'sun'
p2434
F0.0019480519480519481
sS'section'
p2435
F0.0015151515151515152
sS'whimper'
p2436
F0.00021645021645021645
sS'caffeine'
p2437
F0.00021645021645021645
sS'crush'
p2438
F0.00021645021645021645
sS'version'
p2439
F0.0010822510822510823
sS'apologized'
p2440
F0.00021645021645021645
sS'fathoms'
p2441
F0.00021645021645021645
sS'undecided'
p2442
F0.0004329004329004329
sS'judicious'
p2443
F0.0004329004329004329
sS'womans'
p2444
F0.0004329004329004329
sS'guns'
p2445
F0.00021645021645021645
sS'handy'
p2446
F0.00021645021645021645
sS'movement'
p2447
F0.00021645021645021645
sS'full'
p2448
F0.0019480519480519481
sS'coca'
p2449
F0.00021645021645021645
sS'eligibility'
p2450
F0.00021645021645021645
sS'stages'
p2451
F0.00021645021645021645
sS'empower'
p2452
F0.00021645021645021645
sS'veterinary'
p2453
F0.00021645021645021645
sS'modify'
p2454
F0.00021645021645021645
sS'vet'
p2455
F0.00021645021645021645
sS'answers'
p2456
F0.00064935064935064935
sS'forgive'
p2457
F0.00021645021645021645
sS'hours'
p2458
F0.0025974025974025974
sS'smartest'
p2459
F0.0010822510822510823
sS'housel'
p2460
F0.00021645021645021645
sS'christy'
p2461
F0.00021645021645021645
sS'directions'
p2462
F0.0004329004329004329
sS'standard'
p2463
F0.00021645021645021645
sS'dill'
p2464
F0.00021645021645021645
sS'search'
p2465
F0.00064935064935064935
sS'bible'
p2466
F0.0004329004329004329
sS'colored'
p2467
F0.00021645021645021645
sS'ahead'
p2468
F0.0008658008658008658
sS'difficulty'
p2469
F0.00021645021645021645
sS'allows'
p2470
F0.00021645021645021645
sS'terminals'
p2471
F0.0004329004329004329
sS'experience'
p2472
F0.0038961038961038961
sS'pics'
p2473
F0.0008658008658008658
sS'prior'
p2474
F0.0008658008658008658
sS'amount'
p2475
F0.0047619047619047623
sS'supplements'
p2476
F0.00021645021645021645
sS'breakdown'
p2477
F0.00064935064935064935
sS'published'
p2478
F0.0004329004329004329
sS'action'
p2479
F0.0025974025974025974
sS'mentions'
p2480
F0.00021645021645021645
sS'moulds'
p2481
F0.00021645021645021645
sS'options'
p2482
F0.0010822510822510823
sS'intern'
p2483
F0.0004329004329004329
sS'via'
p2484
F0.0015151515151515152
sS'followed'
p2485
F0.0004329004329004329
sS'dire'
p2486
F0.00021645021645021645
sS'family'
p2487
F0.0015151515151515152
sS'suddenly'
p2488
F0.0004329004329004329
sS'barker'
p2489
F0.00021645021645021645
sS'screens'
p2490
F0.0004329004329004329
sS'put'
p2491
F0.011038961038961039
sS'semester'
p2492
F0.00021645021645021645
sS'trained'
p2493
F0.00021645021645021645
sS'resident'
p2494
F0.00021645021645021645
sS'herring'
p2495
F0.00021645021645021645
sS'teach'
p2496
F0.00021645021645021645
sS'select'
p2497
F0.0015151515151515152
sS'silva'
p2498
F0.00021645021645021645
sS'ash'
p2499
F0.0008658008658008658
sS'eye'
p2500
F0.0010822510822510823
sS'takes'
p2501
F0.0017316017316017316
sS'turnout'
p2502
F0.00021645021645021645
sS'contains'
p2503
F0.0015151515151515152
sS'petroleum'
p2504
F0.0010822510822510823
sS'two'
p2505
F0.017316017316017316
sS'comparing'
p2506
F0.00021645021645021645
sS'taken'
p2507
F0.0028138528138528141
sS'mora'
p2508
F0.00021645021645021645
sS'authorization'
p2509
F0.00021645021645021645
sS'more'
p2510
F0.013852813852813853
sS'horses'
p2511
F0.00021645021645021645
sS'flat'
p2512
F0.00064935064935064935
sS'diamond'
p2513
F0.0019480519480519481
sS'door'
p2514
F0.0008658008658008658
sS'knows'
p2515
F0.0010822510822510823
sS'incorporates'
p2516
F0.0004329004329004329
sS'division'
p2517
F0.00021645021645021645
sS'company'
p2518
F0.0082251082251082255
sS'corrected'
p2519
F0.0008658008658008658
sS'telephone'
p2520
F0.0004329004329004329
sS'tested'
p2521
F0.00021645021645021645
sS'landed'
p2522
F0.00021645021645021645
sS'gentleman'
p2523
F0.00021645021645021645
sS'stick'
p2524
F0.00021645021645021645
sS'broke'
p2525
F0.00021645021645021645
sS'particular'
p2526
F0.0010822510822510823
sS'known'
p2527
F0.0008658008658008658
sS'coyote'
p2528
F0.00021645021645021645
sS'hurry'
p2529
F0.0010822510822510823
sS'uncool'
p2530
F0.00021645021645021645
sS'glad'
p2531
F0.0012987012987012987
sS'town'
p2532
F0.0025974025974025974
sS'grill'
p2533
F0.00021645021645021645
sS'none'
p2534
F0.0017316017316017316
sS'shared'
p2535
F0.0004329004329004329
sS'debates'
p2536
F0.0004329004329004329
sS'hour'
p2537
F0.0019480519480519481
sS'middle'
p2538
F0.0012987012987012987
sS'recall'
p2539
F0.0008658008658008658
sS'sucks'
p2540
F0.0004329004329004329
sS'duty'
p2541
F0.00064935064935064935
sS'dew'
p2542
F0.00021645021645021645
sS'plea'
p2543
F0.00021645021645021645
sS'offended'
p2544
F0.00021645021645021645
sS'remain'
p2545
F0.0008658008658008658
sS'sudden'
p2546
F0.00021645021645021645
sS'nine'
p2547
F0.00021645021645021645
sS'resources'
p2548
F0.0015151515151515152
sS'learn'
p2549
F0.0015151515151515152
sS'male'
p2550
F0.00021645021645021645
sS'spontaneous'
p2551
F0.00021645021645021645
sS'history'
p2552
F0.00064935064935064935
sS'beautiful'
p2553
F0.0008658008658008658
sS'stubborn'
p2554
F0.00021645021645021645
sS'compare'
p2555
F0.0012987012987012987
sS'needing'
p2556
F0.0008658008658008658
sS'prompt'
p2557
F0.00064935064935064935
sS'stated'
p2558
F0.0004329004329004329
sS'share'
p2559
F0.0030303030303030303
sS'mainline'
p2560
F0.00021645021645021645
sS'accept'
p2561
F0.00064935064935064935
sS'autumn'
p2562
F0.00021645021645021645
sS'pushed'
p2563
F0.0004329004329004329
sS'minimum'
p2564
F0.00021645021645021645
sS'numbers'
p2565
F0.0069264069264069264
sS'purchased'
p2566
F0.00021645021645021645
sS'sense'
p2567
F0.0017316017316017316
sS'phrase'
p2568
F0.0004329004329004329
sS'talents'
p2569
F0.00064935064935064935
sS'hamburgers'
p2570
F0.00021645021645021645
sS'charged'
p2571
F0.00021645021645021645
sS'information'
p2572
F0.00974025974025974
sS'respective'
p2573
F0.0004329004329004329
sS'lingering'
p2574
F0.00021645021645021645
sS'unexpected'
p2575
F0.00021645021645021645
sS'shanked'
p2576
F0.00021645021645021645
sS'rather'
p2577
F0.0012987012987012987
sS'equities'
p2578
F0.00021645021645021645
sS'comfort'
p2579
F0.0004329004329004329
sS'ledger'
p2580
F0.00021645021645021645
sS'stayed'
p2581
F0.00021645021645021645
sS'abhors'
p2582
F0.00021645021645021645
sS'transfers'
p2583
F0.00021645021645021645
sS'occasionally'
p2584
F0.00021645021645021645
sS'perry'
p2585
F0.00021645021645021645
sS'reject'
p2586
F0.00021645021645021645
sS'explains'
p2587
F0.0004329004329004329
sS'plant'
p2588
F0.00021645021645021645
sS'okay'
p2589
F0.00021645021645021645
sS'plans'
p2590
F0.0012987012987012987
sS'advice'
p2591
F0.00021645021645021645
sS'derived'
p2592
F0.0004329004329004329
sS'mapping'
p2593
F0.0019480519480519481
sS'reflect'
p2594
F0.0008658008658008658
sS'replace'
p2595
F0.00064935064935064935
sS'tries'
p2596
F0.0004329004329004329
sS'plane'
p2597
F0.0015151515151515152
sS'blood'
p2598
F0.0004329004329004329
sS'coming'
p2599
F0.0051948051948051948
sS'pat'
p2600
F0.0012987012987012987
sS'ethics'
p2601
F0.00021645021645021645
sS'concentrating'
p2602
F0.00021645021645021645
sS'response'
p2603
F0.0010822510822510823
sS'harsh'
p2604
F0.00021645021645021645
sS'prevailing'
p2605
F0.00021645021645021645
sS'short'
p2606
F0.0034632034632034632
sS'rationalize'
p2607
F0.00021645021645021645
sS'loud'
p2608
F0.0004329004329004329
sS'prefers'
p2609
F0.00021645021645021645
sS'documentation'
p2610
F0.00064935064935064935
sS'offsets'
p2611
F0.00021645021645021645
sS'diets'
p2612
F0.00021645021645021645
sS'shore'
p2613
F0.00021645021645021645
sS'responsibility'
p2614
F0.0010822510822510823
sS'telephones'
p2615
F0.00064935064935064935
sS'media'
p2616
F0.00021645021645021645
sS'banks'
p2617
F0.00021645021645021645
sS'pleasure'
p2618
F0.00021645021645021645
sS'victors'
p2619
F0.0004329004329004329
sS'dream'
p2620
F0.0004329004329004329
sS'playing'
p2621
F0.0010822510822510823
sS'replied'
p2622
F0.0004329004329004329
sS'materialistic'
p2623
F0.00021645021645021645
sS'help'
p2624
F0.020562770562770564
sS'conversation'
p2625
F0.0008658008658008658
sS'september'
p2626
F0.0030303030303030303
sS'developed'
p2627
F0.00021645021645021645
sS'closeness'
p2628
F0.00021645021645021645
sS'soon'
p2629
F0.0023809523809523812
sS'auburn'
p2630
F0.016233766233766232
sS'stylus'
p2631
F0.00021645021645021645
sS'held'
p2632
F0.00021645021645021645
sS'logan'
p2633
F0.0010822510822510823
sS'paper'
p2634
F0.0019480519480519481
sS'through'
p2635
F0.0088744588744588751
sS'committee'
p2636
F0.0012987012987012987
sS'replies'
p2637
F0.00021645021645021645
sS'littles'
p2638
F0.00021645021645021645
sS'hell'
p2639
F0.0017316017316017316
sS'turbine'
p2640
F0.00021645021645021645
sS'its'
p2641
F0.011688311688311689
sS'planning'
p2642
F0.0012987012987012987
sS'highlighted'
p2643
F0.0012987012987012987
sS'beeper'
p2644
F0.00021645021645021645
sS'slipped'
p2645
F0.00021645021645021645
sS'adios'
p2646
F0.00021645021645021645
sS'shotts'
p2647
F0.00021645021645021645
sS'greatly'
p2648
F0.0010822510822510823
sS'complex'
p2649
F0.00021645021645021645
sS'actually'
p2650
F0.0028138528138528141
sS'late'
p2651
F0.003246753246753247
sS'strange'
p2652
F0.0004329004329004329
sS'systems'
p2653
F0.0010822510822510823
sS'messes'
p2654
F0.00021645021645021645
sS'redraft'
p2655
F0.00021645021645021645
sS'speech'
p2656
F0.0015151515151515152
sS'bout'
p2657
F0.00021645021645021645
sS'might'
p2658
F0.0060606060606060606
sS'lacey'
p2659
F0.00021645021645021645
sS'fool'
p2660
F0.00021645021645021645
sS'good'
p2661
F0.020995670995670995
sS'return'
p2662
F0.0019480519480519481
sS'calm'
p2663
F0.0008658008658008658
sS'food'
p2664
F0.0012987012987012987
sS'propose'
p2665
F0.00021645021645021645
sS'eulogy'
p2666
F0.00064935064935064935
sS'hunter'
p2667
F0.0051948051948051948
sS'palmers'
p2668
F0.00021645021645021645
sS'anticipated'
p2669
F0.00021645021645021645
sS'resigned'
p2670
F0.00021645021645021645
sS'wally'
p2671
F0.00021645021645021645
sS'speculate'
p2672
F0.0004329004329004329
sS'adventurous'
p2673
F0.00021645021645021645
sS'association'
p2674
F0.0028138528138528141
sS'instructions'
p2675
F0.0004329004329004329
sS'easily'
p2676
F0.0010822510822510823
sS'headroom'
p2677
F0.00021645021645021645
sS'wash'
p2678
F0.00021645021645021645
sS'collier'
p2679
F0.00021645021645021645
sS'always'
p2680
F0.0058441558441558444
sS'stiff'
p2681
F0.00021645021645021645
sS'eating'
p2682
F0.00021645021645021645
sS'capability'
p2683
F0.00021645021645021645
sS'strangling'
p2684
F0.00021645021645021645
sS'someone'
p2685
F0.0036796536796536799
sS'stopped'
p2686
F0.00021645021645021645
sS'found'
p2687
F0.0047619047619047623
sS'obligated'
p2688
F0.00021645021645021645
sS'notes'
p2689
F0.0008658008658008658
sS'referred'
p2690
F0.00021645021645021645
sS'week'
p2691
F0.008658008658008658
sS'everyone'
p2692
F0.005411255411255411
sS'readdress'
p2693
F0.0004329004329004329
sS'restless'
p2694
F0.00021645021645021645
sS'weight'
p2695
F0.00021645021645021645
sS'needless'
p2696
F0.0004329004329004329
sS'generation'
p2697
F0.0004329004329004329
sS'house'
p2698
F0.0034632034632034632
sS'tiffany'
p2699
F0.012121212121212121
sS'hard'
p2700
F0.0021645021645021645
sS'graduated'
p2701
F0.00064935064935064935
sS'idea'
p2702
F0.0010822510822510823
sS'gun'
p2703
F0.00021645021645021645
sS'extended'
p2704
F0.0004329004329004329
sS'cloudy'
p2705
F0.0019480519480519481
sS'quantum'
p2706
F0.0008658008658008658
sS'hanging'
p2707
F0.00021645021645021645
sS'blues'
p2708
F0.00021645021645021645
sS'event'
p2709
F0.0008658008658008658
sS'really'
p2710
F0.0093073593073593076
sS'try'
p2711
F0.0073593073593073597
sS'lovers'
p2712
F0.00021645021645021645
sS'divide'
p2713
F0.00021645021645021645
sS'missed'
p2714
F0.0015151515151515152
sS'walked'
p2715
F0.0004329004329004329
sS'surrounded'
p2716
F0.00021645021645021645
sS'publish'
p2717
F0.00021645021645021645
sS'research'
p2718
F0.0010822510822510823
sS'commemorative'
p2719
F0.00021645021645021645
sS'acting'
p2720
F0.0004329004329004329
sS'health'
p2721
F0.00021645021645021645
sS'flowed'
p2722
F0.0004329004329004329
sS'inquires'
p2723
F0.00021645021645021645
sS'print'
p2724
F0.0010822510822510823
sS'issue'
p2725
F0.0030303030303030303
sS'occurs'
p2726
F0.00064935064935064935
sS'highway'
p2727
F0.0004329004329004329
sS'esker'
p2728
F0.00021645021645021645
sS'ass'
p2729
F0.0004329004329004329
sS'drink'
p2730
F0.0008658008658008658
sS'bass'
p2731
F0.005411255411255411
sS'rumor'
p2732
F0.0004329004329004329
sS'dirt'
p2733
F0.00021645021645021645
sS'commits'
p2734
F0.00021645021645021645
sS'horse'
p2735
F0.00021645021645021645
sS'pub'
p2736
F0.0008658008658008658
sS'effect'
p2737
F0.0012987012987012987
sS'pleasant'
p2738
F0.00064935064935064935
sS'extraordinary'
p2739
F0.0004329004329004329
sS'reason'
p2740
F0.0015151515151515152
sS'proxy'
p2741
F0.0021645021645021645
sS'members'
p2742
F0.0017316017316017316
sS'ask'
p2743
F0.0045454545454545452
sS'attendant'
p2744
F0.0012987012987012987
sS'earliest'
p2745
F0.0004329004329004329
sS'beginning'
p2746
F0.0004329004329004329
sS'loads'
p2747
F0.00021645021645021645
sS'pur'
p2748
F0.00021645021645021645
sS'happier'
p2749
F0.00021645021645021645
sS'retained'
p2750
F0.00021645021645021645
sS'launch'
p2751
F0.00021645021645021645
sS'record'
p2752
F0.0015151515151515152
sS'airport'
p2753
F0.00021645021645021645
sS'computers'
p2754
F0.0004329004329004329
sS'success'
p2755
F0.00021645021645021645
sS'cheering'
p2756
F0.00021645021645021645
sS'uncle'
p2757
F0.00021645021645021645
sS'expecting'
p2758
F0.0010822510822510823
sS'threat'
p2759
F0.0004329004329004329
sS'bumper'
p2760
F0.0010822510822510823
sS'scheduled'
p2761
F0.00064935064935064935
sS'castle'
p2762
F0.00021645021645021645
sS'pilots'
p2763
F0.00021645021645021645
sS'habit'
p2764
F0.00021645021645021645
sS'assign'
p2765
F0.0004329004329004329
sS'major'
p2766
F0.0012987012987012987
sS'unhealthy'
p2767
F0.00021645021645021645
sS'forwards'
p2768
F0.0004329004329004329
sS'wilder'
p2769
F0.00021645021645021645
sS'feel'
p2770
F0.0058441558441558444
sS'radical'
p2771
F0.0004329004329004329
sS'netted'
p2772
F0.0008658008658008658
sS'patience'
p2773
F0.0004329004329004329
sS'number'
p2774
F0.010173160173160173
sS'bounces'
p2775
F0.00021645021645021645
sS'feet'
p2776
F0.00021645021645021645
sS'instances'
p2777
F0.00021645021645021645
sS'pop'
p2778
F0.0004329004329004329
sS'brave'
p2779
F0.00021645021645021645
sS'done'
p2780
F0.0045454545454545452
sS'notify'
p2781
F0.003246753246753247
sS'blank'
p2782
F0.0008658008658008658
sS'wages'
p2783
F0.00021645021645021645
sS'miss'
p2784
F0.0012987012987012987
sS'financing'
p2785
F0.0004329004329004329
sS'maple'
p2786
F0.00064935064935064935
sS'carter'
p2787
F0.0019480519480519481
sS'razor'
p2788
F0.00021645021645021645
sS'story'
p2789
F0.0028138528138528141
sS'fuller'
p2790
F0.00064935064935064935
sS'guest'
p2791
F0.00021645021645021645
sS'kinder'
p2792
F0.0004329004329004329
sS'blossom'
p2793
F0.00021645021645021645
sS'together'
p2794
F0.0017316017316017316
sS'bay'
p2795
F0.0004329004329004329
sS'threatening'
p2796
F0.00021645021645021645
sS'least'
p2797
F0.0025974025974025974
sS'belongs'
p2798
F0.00021645021645021645
sS'wonderful'
p2799
F0.00021645021645021645
sS'smile'
p2800
F0.0004329004329004329
sS'passed'
p2801
F0.0010822510822510823
sS'revel'
p2802
F0.00021645021645021645
sS'master'
p2803
F0.0008658008658008658
sS'scheme'
p2804
F0.00021645021645021645
sS'syrup'
p2805
F0.0004329004329004329
sS'store'
p2806
F0.0008658008658008658
sS'listed'
p2807
F0.0021645021645021645
sS'attendants'
p2808
F0.0010822510822510823
sS'selling'
p2809
F0.00021645021645021645
sS'pipelines'
p2810
F0.00021645021645021645
sS'option'
p2811
F0.0008658008658008658
sS'relationship'
p2812
F0.00064935064935064935
sS'behind'
p2813
F0.0004329004329004329
sS'panhandle'
p2814
F0.0004329004329004329
sS'uncommonly'
p2815
F0.00021645021645021645
sS'hotel'
p2816
F0.0012987012987012987
sS'interviewed'
p2817
F0.00021645021645021645
sS'immediate'
p2818
F0.00021645021645021645
sS'mini'
p2819
F0.00021645021645021645
sS'appreciation'
p2820
F0.00021645021645021645
sS'luckily'
p2821
F0.0004329004329004329
sS'part'
p2822
F0.0019480519480519481
sS'jordan'
p2823
F0.00021645021645021645
sS'differentiate'
p2824
F0.00021645021645021645
sS'consult'
p2825
F0.00021645021645021645
sS'believe'
p2826
F0.0051948051948051948
sS'rampant'
p2827
F0.00021645021645021645
sS'aluminum'
p2828
F0.0004329004329004329
sS'king'
p2829
F0.00064935064935064935
sS'kind'
p2830
F0.0008658008658008658
sS'legs'
p2831
F0.0010822510822510823
sS'kindly'
p2832
F0.0004329004329004329
sS'pickups'
p2833
F0.00021645021645021645
sS'double'
p2834
F0.00064935064935064935
sS'marshall'
p2835
F0.00021645021645021645
sS'acknowledgement'
p2836
F0.00021645021645021645
sS'colander'
p2837
F0.00021645021645021645
sS'headers'
p2838
F0.00021645021645021645
sS'determined'
p2839
F0.00021645021645021645
sS'marriage'
p2840
F0.00021645021645021645
sS'risks'
p2841
F0.00021645021645021645
sS'charger'
p2842
F0.00021645021645021645
sS'taxis'
p2843
F0.00021645021645021645
sS'lease'
p2844
F0.005411255411255411
sS'treated'
p2845
F0.00021645021645021645
sS'priority'
p2846
F0.00021645021645021645
sS'unrelenting'
p2847
F0.0004329004329004329
sS'shanks'
p2848
F0.00021645021645021645
sS'stains'
p2849
F0.00021645021645021645
sS'outstanding'
p2850
F0.0004329004329004329
sS'ages'
p2851
F0.00021645021645021645
sS'oracle'
p2852
F0.0004329004329004329
sS'substantial'
p2853
F0.0004329004329004329
sS'vitally'
p2854
F0.00021645021645021645
sS'categorized'
p2855
F0.00021645021645021645
sS'cleaned'
p2856
F0.0004329004329004329
sS'forth'
p2857
F0.0004329004329004329
sS'confirms'
p2858
F0.00021645021645021645
sS'organs'
p2859
F0.00021645021645021645
sS'orders'
p2860
F0.0004329004329004329
sS'sell'
p2861
F0.00021645021645021645
sS'mountain'
p2862
F0.00021645021645021645
sS'nights'
p2863
F0.00064935064935064935
sS'built'
p2864
F0.00021645021645021645
sS'zero'
p2865
F0.00064935064935064935
sS'self'
p2866
F0.0004329004329004329
sS'accountable'
p2867
F0.00021645021645021645
sS'client'
p2868
F0.0010822510822510823
sS'also'
p2869
F0.01774891774891775
sS'costs'
p2870
F0.00021645021645021645
sS'square'
p2871
F0.00021645021645021645
sS'build'
p2872
F0.0010822510822510823
sS'frail'
p2873
F0.00021645021645021645
sS'cream'
p2874
F0.00021645021645021645
sS'sherry'
p2875
F0.0028138528138528141
sS'contractual'
p2876
F0.00021645021645021645
sS'gym'
p2877
F0.00021645021645021645
sS'play'
p2878
F0.0060606060606060606
sS'added'
p2879
F0.0030303030303030303
sS'critics'
p2880
F0.0008658008658008658
sS'electric'
p2881
F0.0017316017316017316
sS'populate'
p2882
F0.00021645021645021645
sS'reconciliation'
p2883
F0.0004329004329004329
sS'eggs'
p2884
F0.00021645021645021645
sS'inconvenience'
p2885
F0.00021645021645021645
sS'nasal'
p2886
F0.00021645021645021645
sS'evaluation'
p2887
F0.0004329004329004329
sS'breaking'
p2888
F0.00021645021645021645
sS'most'
p2889
F0.0056277056277056281
sS'virus'
p2890
F0.00021645021645021645
sS'hired'
p2891
F0.0008658008658008658
sS'charm'
p2892
F0.0004329004329004329
sS'plan'
p2893
F0.0015151515151515152
sS'significant'
p2894
F0.0008658008658008658
sS'termination'
p2895
F0.0012987012987012987
sS'services'
p2896
F0.004329004329004329
sS'accepting'
p2897
F0.0004329004329004329
sS'kay'
p2898
F0.0004329004329004329
sS'digs'
p2899
F0.00021645021645021645
sS'extremely'
p2900
F0.00064935064935064935
sS'approved'
p2901
F0.00021645021645021645
sS'constitution'
p2902
F0.0004329004329004329
sS'understands'
p2903
F0.00021645021645021645
sS'wreckage'
p2904
F0.00021645021645021645
sS'chronicle'
p2905
F0.0004329004329004329
sS'goodwill'
p2906
F0.00021645021645021645
sS'windows'
p2907
F0.0008658008658008658
sS'clear'
p2908
F0.0021645021645021645
sS'sometimes'
p2909
F0.0012987012987012987
sS'cover'
p2910
F0.0023809523809523812
sS'traditional'
p2911
F0.00021645021645021645
sS'lounge'
p2912
F0.00021645021645021645
sS'artistic'
p2913
F0.0004329004329004329
sS'clean'
p2914
F0.0025974025974025974
sS'consisted'
p2915
F0.00021645021645021645
sS'jeopardy'
p2916
F0.00021645021645021645
sS'lying'
p2917
F0.0004329004329004329
sS'joining'
p2918
F0.00021645021645021645
sS'science'
p2919
F0.00021645021645021645
sS'rocker'
p2920
F0.0004329004329004329
sS'golf'
p2921
F0.0008658008658008658
sS'gold'
p2922
F0.00021645021645021645
sS'summer'
p2923
F0.00021645021645021645
sS'wailing'
p2924
F0.00021645021645021645
sS'league'
p2925
F0.0004329004329004329
sS'celebrities'
p2926
F0.00021645021645021645
sS'hugging'
p2927
F0.00021645021645021645
sS'defended'
p2928
F0.00021645021645021645
sS'booze'
p2929
F0.0004329004329004329
sS'paddle'
p2930
F0.00021645021645021645
sS'stoned'
p2931
F0.00021645021645021645
sS'carefully'
p2932
F0.00021645021645021645
sS'defender'
p2933
F0.00064935064935064935
sS'heavens'
p2934
F0.00021645021645021645
sS'fine'
p2935
F0.0010822510822510823
sS'find'
p2936
F0.0080086580086580084
sS'costing'
p2937
F0.00021645021645021645
sS'impact'
p2938
F0.0008658008658008658
sS'access'
p2939
F0.0077922077922077922
sS'northern'
p2940
F0.0036796536796536799
sS'humbly'
p2941
F0.00021645021645021645
sS'justice'
p2942
F0.0010822510822510823
sS'nervous'
p2943
F0.00064935064935064935
sS'writes'
p2944
F0.0004329004329004329
sS'offensive'
p2945
F0.00064935064935064935
sS'distributed'
p2946
F0.00021645021645021645
sS'unhappy'
p2947
F0.00021645021645021645
sS'grace'
p2948
F0.00021645021645021645
sS'starters'
p2949
F0.0004329004329004329
sS'failed'
p2950
F0.0004329004329004329
sS'idiots'
p2951
F0.00064935064935064935
sS'jills'
p2952
F0.00064935064935064935
sS'generators'
p2953
F0.00021645021645021645
sS'pretty'
p2954
F0.005411255411255411
sS'factor'
p2955
F0.0004329004329004329
sS'override'
p2956
F0.00021645021645021645
sS'turnaround'
p2957
F0.0038961038961038961
sS'insurance'
p2958
F0.00021645021645021645
sS'columns'
p2959
F0.00064935064935064935
sS'shepherd'
p2960
F0.0004329004329004329
sS'his'
p2961
F0.02012987012987013
sS'hit'
p2962
F0.0023809523809523812
sS'goes'
p2963
F0.0025974025974025974
sS'meanwhile'
p2964
F0.00021645021645021645
sS'dependent'
p2965
F0.0008658008658008658
sS'express'
p2966
F0.0008658008658008658
sS'sunny'
p2967
F0.0004329004329004329
sS'grocery'
p2968
F0.00021645021645021645
sS'trees'
p2969
F0.00021645021645021645
sS'kitchens'
p2970
F0.00021645021645021645
sS'feels'
p2971
F0.00021645021645021645
sS'courage'
p2972
F0.00021645021645021645
sS'rest'
p2973
F0.0010822510822510823
sS'nominee'
p2974
F0.0008658008658008658
sS'international'
p2975
F0.0015151515151515152
sS'during'
p2976
F0.0036796536796536799
sS'terminating'
p2977
F0.00021645021645021645
sS'him'
p2978
F0.011471861471861472
sS'resend'
p2979
F0.0004329004329004329
sS'gels'
p2980
F0.00021645021645021645
sS'medicines'
p2981
F0.00021645021645021645
sS'cry'
p2982
F0.00064935064935064935
sS'remove'
p2983
F0.0015151515151515152
sS'sacrifices'
p2984
F0.00021645021645021645
sS'underlying'
p2985
F0.00021645021645021645
sS'common'
p2986
F0.00021645021645021645
sS'activity'
p2987
F0.00021645021645021645
sS'creates'
p2988
F0.0004329004329004329
sS'river'
p2989
F0.0004329004329004329
sS'wrote'
p2990
F0.00021645021645021645
sS'fishing'
p2991
F0.00064935064935064935
sS'manger'
p2992
F0.00021645021645021645
sS'inferior'
p2993
F0.00021645021645021645
sS'set'
p2994
F0.0073593073593073597
sS'throwing'
p2995
F0.00021645021645021645
sS'topics'
p2996
F0.00021645021645021645
sS'tip'
p2997
F0.00021645021645021645
sS'see'
p2998
F0.02012987012987013
sS'defense'
p2999
F0.00064935064935064935
sS'dumb'
p3000
F0.0008658008658008658
sS'are'
p3001
F0.1038961038961039
sS'tender'
p3002
F0.00021645021645021645
sS'close'
p3003
F0.0021645021645021645
sS'expertise'
p3004
F0.00021645021645021645
sS'arm'
p3005
F0.00021645021645021645
sS'barn'
p3006
F0.00021645021645021645
sS'trey'
p3007
F0.00064935064935064935
sS'learns'
p3008
F0.00021645021645021645
sS'stance'
p3009
F0.00021645021645021645
sS'expert'
p3010
F0.00021645021645021645
sS'pneumonia'
p3011
F0.00021645021645021645
sS'movie'
p3012
F0.00021645021645021645
sS'user'
p3013
F0.0015151515151515152
sS'currently'
p3014
F0.0034632034632034632
sS'please'
p3015
F0.09004329004329005
sS'heading'
p3016
F0.00064935064935064935
sS'fans'
p3017
F0.0004329004329004329
sS'won'
p3018
F0.0019480519480519481
sS'various'
p3019
F0.0008658008658008658
sS'despair'
p3020
F0.00021645021645021645
sS'probably'
p3021
F0.0028138528138528141
sS'wifes'
p3022
F0.00021645021645021645
sS'conditions'
p3023
F0.00021645021645021645
sS'gathered'
p3024
F0.00021645021645021645
sS'supposed'
p3025
F0.00021645021645021645
sS'available'
p3026
F0.0010822510822510823
sS'recently'
p3027
F0.0004329004329004329
sS'responses'
p3028
F0.0004329004329004329
sS'missing'
p3029
F0.0028138528138528141
sS'initially'
p3030
F0.00021645021645021645
sS'sold'
p3031
F0.0010822510822510823
sS'attention'
p3032
F0.00064935064935064935
sS'sharpies'
p3033
F0.00021645021645021645
sS'brasher'
p3034
F0.00021645021645021645
sS'hill'
p3035
F0.00021645021645021645
sS'aircraft'
p3036
F0.00064935064935064935
sS'ranked'
p3037
F0.00021645021645021645
sS'coffee'
p3038
F0.0004329004329004329
sS'interface'
p3039
F0.00021645021645021645
sS'electrical'
p3040
F0.00021645021645021645
sS'pissed'
p3041
F0.00021645021645021645
sS'floats'
p3042
F0.00021645021645021645
sS'both'
p3043
F0.0045454545454545452
sS'toward'
p3044
F0.00021645021645021645
sS'last'
p3045
F0.013852813852813853
sS'wee'
p3046
F0.00021645021645021645
sS'restaurant'
p3047
F0.0004329004329004329
sS'thou'
p3048
F0.00021645021645021645
sS'powers'
p3049
F0.0004329004329004329
sS'wed'
p3050
F0.003246753246753247
sS'bachelor'
p3051
F0.0004329004329004329
sS'foreign'
p3052
F0.0015151515151515152
sS'sensitive'
p3053
F0.0008658008658008658
sS'roman'
p3054
F0.00021645021645021645
sS'became'
p3055
F0.0004329004329004329
sS'sterling'
p3056
F0.00021645021645021645
sS'fraternity'
p3057
F0.0004329004329004329
sS'forgotten'
p3058
F0.00021645021645021645
sS'bond'
p3059
F0.00021645021645021645
sS'whole'
p3060
F0.0019480519480519481
sS'finds'
p3061
F0.0004329004329004329
sS'patty'
p3062
F0.00021645021645021645
sS'curios'
p3063
F0.00021645021645021645
sS'liked'
p3064
F0.00021645021645021645
sS'words'
p3065
F0.00021645021645021645
sS'yards'
p3066
F0.0008658008658008658
sS'point'
p3067
F0.0049783549783549786
sS'reasons'
p3068
F0.0008658008658008658
sS'sweet'
p3069
F0.00021645021645021645
sS'celeste'
p3070
F0.011904761904761904
sS'address'
p3071
F0.0049783549783549786
sS'sweep'
p3072
F0.0004329004329004329
sS'whatever'
p3073
F0.0008658008658008658
sS'hollow'
p3074
F0.00021645021645021645
sS'dietary'
p3075
F0.00021645021645021645
sS'simply'
p3076
F0.0023809523809523812
sS'likes'
p3077
F0.0017316017316017316
sS'village'
p3078
F0.00064935064935064935
sS'throughout'
p3079
F0.00021645021645021645
sS'beats'
p3080
F0.00064935064935064935
sS'belt'
p3081
F0.0004329004329004329
sS'decline'
p3082
F0.0004329004329004329
sS'finally'
p3083
F0.0019480519480519481
sS'mikes'
p3084
F0.00021645021645021645
sS'enhancements'
p3085
F0.00021645021645021645
sS'originators'
p3086
F0.0004329004329004329
sS'instilled'
p3087
F0.00021645021645021645
sS'monthly'
p3088
F0.0008658008658008658
sS'anchoring'
p3089
F0.00021645021645021645
sS'create'
p3090
F0.0012987012987012987
sS'acceptance'
p3091
F0.0010822510822510823
sS'creativity'
p3092
F0.0004329004329004329
sS'due'
p3093
F0.0069264069264069264
sS'strategy'
p3094
F0.00021645021645021645
sS'hitting'
p3095
F0.00064935064935064935
sS'whom'
p3096
F0.0015151515151515152
sS'reduction'
p3097
F0.00021645021645021645
sS'pa'
p3098
F0.00021645021645021645
sS'damn'
p3099
F0.0015151515151515152
sS'maintenance'
p3100
F0.00021645021645021645
sS'collected'
p3101
F0.0004329004329004329
sS'nicol'
p3102
F0.00021645021645021645
sS'meeting'
p3103
F0.004329004329004329
sS'chandler'
p3104
F0.0004329004329004329
sS'empty'
p3105
F0.0004329004329004329
sS'dame'
p3106
F0.00021645021645021645
sS'firm'
p3107
F0.0017316017316017316
sS'sanders'
p3108
F0.0008658008658008658
sS'lived'
p3109
F0.00021645021645021645
sS'flight'
p3110
F0.0047619047619047623
sS'champion'
p3111
F0.00021645021645021645
sS'gay'
p3112
F0.00021645021645021645
sS'boy'
p3113
F0.0021645021645021645
sS'fire'
p3114
F0.00064935064935064935
sS'wet'
p3115
F0.00021645021645021645
sS'gas'
p3116
F0.025108225108225107
sS'else'
p3117
F0.0036796536796536799
sS'adaptable'
p3118
F0.00021645021645021645
sS'lives'
p3119
F0.00064935064935064935
sS'bidding'
p3120
F0.00021645021645021645
sS'demand'
p3121
F0.0012987012987012987
sS'prices'
p3122
F0.0028138528138528141
sS'affirmative'
p3123
F0.00021645021645021645
sS'extensive'
p3124
F0.00021645021645021645
sS'funk'
p3125
F0.00021645021645021645
sS'plants'
p3126
F0.00021645021645021645
sS'highest'
p3127
F0.00064935064935064935
sS'politician'
p3128
F0.00021645021645021645
sS'look'
p3129
F0.0088744588744588751
sS'frozen'
p3130
F0.00021645021645021645
sS'catfish'
p3131
F0.00021645021645021645
sS'reliable'
p3132
F0.0004329004329004329
sS'bill'
p3133
F0.0060606060606060606
sS'budget'
p3134
F0.0004329004329004329
sS'governor'
p3135
F0.0010822510822510823
sS'pace'
p3136
F0.0004329004329004329
sS'while'
p3137
F0.0041125541125541128
sS'replaced'
p3138
F0.0004329004329004329
sS'ought'
p3139
F0.00021645021645021645
sS'behavior'
p3140
F0.00021645021645021645
sS'error'
p3141
F0.0034632034632034632
sS'fun'
p3142
F0.0030303030303030303
sS'robin'
p3143
F0.0012987012987012987
sS'theres'
p3144
F0.0015151515151515152
sS'ami'
p3145
F0.0004329004329004329
sS'casino'
p3146
F0.0004329004329004329
sS'hoping'
p3147
F0.00064935064935064935
sS'employees'
p3148
F0.00021645021645021645
sS'voters'
p3149
F0.00064935064935064935
sS'cents'
p3150
F0.00021645021645021645
sS'itself'
p3151
F0.00021645021645021645
sS'ready'
p3152
F0.00064935064935064935
sS'stover'
p3153
F0.00021645021645021645
sS'underlining'
p3154
F0.00021645021645021645
sS'definitive'
p3155
F0.00021645021645021645
sS'funny'
p3156
F0.0017316017316017316
sS'churn'
p3157
F0.00021645021645021645
sS'shirt'
p3158
F0.00021645021645021645
sS'anymore'
p3159
F0.00064935064935064935
sS'grant'
p3160
F0.0012987012987012987
sS'maids'
p3161
F0.00021645021645021645
sS'belong'
p3162
F0.0004329004329004329
sS'port'
p3163
F0.00021645021645021645
sS'benign'
p3164
F0.0004329004329004329
sS'virtually'
p3165
F0.00021645021645021645
sS'copying'
p3166
F0.0010822510822510823
sS'peoples'
p3167
F0.0015151515151515152
sS'modification'
p3168
F0.00064935064935064935
sS'survey'
p3169
F0.0004329004329004329
sS'advise'
p3170
F0.00064935064935064935
sS'ruth'
p3171
F0.0021645021645021645
sS'spears'
p3172
F0.00021645021645021645
sS'prerequisite'
p3173
F0.00021645021645021645
sS'higher'
p3174
F0.0010822510822510823
sS'development'
p3175
F0.0021645021645021645
sS'calculation'
p3176
F0.0004329004329004329
sS'used'
p3177
F0.0034632034632034632
sS'suggestion'
p3178
F0.00064935064935064935
sS'lie'
p3179
F0.00021645021645021645
sS'bonus'
p3180
F0.0012987012987012987
sS'farmer'
p3181
F0.00021645021645021645
sS'yesterday'
p3182
F0.0023809523809523812
sS'alert'
p3183
F0.00064935064935064935
sS'flown'
p3184
F0.0004329004329004329
sS'moving'
p3185
F0.0010822510822510823
sS'purpose'
p3186
F0.00064935064935064935
sS'necessity'
p3187
F0.00021645021645021645
sS'birch'
p3188
F0.0004329004329004329
sS'robust'
p3189
F0.0004329004329004329
sS'yuan'
p3190
F0.00021645021645021645
sS'conveniently'
p3191
F0.00021645021645021645
sS'wheres'
p3192
F0.00021645021645021645
sS'recent'
p3193
F0.0004329004329004329
sS'dark'
p3194
F0.00021645021645021645
sS'task'
p3195
F0.00021645021645021645
sS'equalled'
p3196
F0.00064935064935064935
sS'rules'
p3197
F0.0023809523809523812
sS'copier'
p3198
F0.0004329004329004329
sS'chickens'
p3199
F0.003246753246753247
sS'spent'
p3200
F0.00021645021645021645
sS'analysis'
p3201
F0.0023809523809523812
sS'obviously'
p3202
F0.0004329004329004329
sS'underwear'
p3203
F0.00021645021645021645
sS'person'
p3204
F0.0058441558441558444
sS'consistency'
p3205
F0.0004329004329004329
sS'toil'
p3206
F0.00021645021645021645
sS'entry'
p3207
F0.0034632034632034632
sS'initials'
p3208
F0.00021645021645021645
sS'stating'
p3209
F0.00021645021645021645
sS'comprise'
p3210
F0.00021645021645021645
sS'weakest'
p3211
F0.00021645021645021645
sS'composed'
p3212
F0.00021645021645021645
sS'chore'
p3213
F0.00021645021645021645
sS'responsible'
p3214
F0.0015151515151515152
sS'listening'
p3215
F0.00021645021645021645
sS'reliant'
p3216
F0.0004329004329004329
sS'settlements'
p3217
F0.0019480519480519481
sS'reviewed'
p3218
F0.0004329004329004329
sS'questions'
p3219
F0.010822510822510822
sS'using'
p3220
F0.0012987012987012987
sS'regardless'
p3221
F0.00021645021645021645
sS'alternative'
p3222
F0.0015151515151515152
sS'couch'
p3223
F0.00064935064935064935
sS'unto'
p3224
F0.00021645021645021645
sS'addresses'
p3225
F0.0008658008658008658
sS'wage'
p3226
F0.00021645021645021645
sS'cut'
p3227
F0.00064935064935064935
sS'moist'
p3228
F0.00021645021645021645
sS'lady'
p3229
F0.0019480519480519481
sS'workers'
p3230
F0.0008658008658008658
sS'alternate'
p3231
F0.00021645021645021645
sS'advertisements'
p3232
F0.00021645021645021645
sS'recommended'
p3233
F0.00021645021645021645
sS'source'
p3234
F0.0004329004329004329
sS'internal'
p3235
F0.0015151515151515152
sS'parents'
p3236
F0.0015151515151515152
sS'location'
p3237
F0.0060606060606060606
sS'crying'
p3238
F0.00064935064935064935
sS'input'
p3239
F0.0004329004329004329
sS'ballots'
p3240
F0.00064935064935064935
sS'guarantees'
p3241
F0.00021645021645021645
sS'easter'
p3242
F0.0012987012987012987
sS'remaining'
p3243
F0.0023809523809523812
sS'hates'
p3244
F0.0008658008658008658
sS'bin'
p3245
F0.00021645021645021645
sS'customers'
p3246
F0.00021645021645021645
sS'march'
p3247
F0.0036796536796536799
sS'forces'
p3248
F0.00021645021645021645
sS'emergency'
p3249
F0.00021645021645021645
sS'format'
p3250
F0.0015151515151515152
sS'big'
p3251
F0.0017316017316017316
sS'couple'
p3252
F0.0012987012987012987
sS'saluted'
p3253
F0.00021645021645021645
sS'unlimited'
p3254
F0.00021645021645021645
sS'manatee'
p3255
F0.00021645021645021645
sS'selfish'
p3256
F0.00021645021645021645
sS'finding'
p3257
F0.0008658008658008658
sS'game'
p3258
F0.0082251082251082255
sS'baskets'
p3259
F0.00021645021645021645
sS'necessary'
p3260
F0.0008658008658008658
sS'bit'
p3261
F0.00064935064935064935
sS'wings'
p3262
F0.00021645021645021645
sS'projects'
p3263
F0.0004329004329004329
sS'moody'
p3264
F0.00064935064935064935
sS'modifications'
p3265
F0.00021645021645021645
sS'sorting'
p3266
F0.00021645021645021645
sS'pertinent'
p3267
F0.0004329004329004329
sS'inviting'
p3268
F0.00021645021645021645
sS'follows'
p3269
F0.0015151515151515152
sS'mint'
p3270
F0.00021645021645021645
sS'identifying'
p3271
F0.00021645021645021645
sS'associate'
p3272
F0.00021645021645021645
sS'ignore'
p3273
F0.00021645021645021645
sS'communications'
p3274
F0.0073593073593073597
sS'destination'
p3275
F0.00021645021645021645
sS'continue'
p3276
F0.0021645021645021645
sS'donna'
p3277
F0.0004329004329004329
sS'popular'
p3278
F0.00021645021645021645
sS'bump'
p3279
F0.00021645021645021645
sS'foolish'
p3280
F0.00021645021645021645
sS'reduces'
p3281
F0.00021645021645021645
sS'often'
p3282
F0.0021645021645021645
sS'sue'
p3283
F0.00021645021645021645
sS'senate'
p3284
F0.00021645021645021645
sS'horst'
p3285
F0.0004329004329004329
sS'creation'
p3286
F0.0004329004329004329
sS'some'
p3287
F0.018614718614718615
sS'back'
p3288
F0.013636363636363636
sS'understood'
p3289
F0.00021645021645021645
sS'towards'
p3290
F0.00064935064935064935
sS'palm'
p3291
F0.0004329004329004329
sS'pricing'
p3292
F0.0019480519480519481
sS'curious'
p3293
F0.0028138528138528141
sS'loses'
p3294
F0.0004329004329004329
sS'ups'
p3295
F0.0004329004329004329
sS'ourselves'
p3296
F0.00021645021645021645
sS'brent'
p3297
F0.0034632034632034632
sS'investigating'
p3298
F0.00021645021645021645
sS'delivered'
p3299
F0.0004329004329004329
sS'invoicing'
p3300
F0.00021645021645021645
sS'rarely'
p3301
F0.00021645021645021645
sS'describing'
p3302
F0.00021645021645021645
sS'tools'
p3303
F0.00021645021645021645
sS'absolutely'
p3304
F0.0021645021645021645
sS'exec'
p3305
F0.0004329004329004329
sS'per'
p3306
F0.008658008658008658
sS'seller'
p3307
F0.00021645021645021645
sS'tides'
p3308
F0.0004329004329004329
sS'efficiencies'
p3309
F0.00021645021645021645
sS'connecting'
p3310
F0.00021645021645021645
sS'eliminate'
p3311
F0.0019480519480519481
sS'tends'
p3312
F0.0008658008658008658
sS'prof'
p3313
F0.00021645021645021645
sS'dating'
p3314
F0.00021645021645021645
sS'commentator'
p3315
F0.00021645021645021645
sS'anna'
p3316
F0.0008658008658008658
sS'laughing'
p3317
F0.00021645021645021645
sS'be'
p3318
F0.088961038961038963
sS'tankers'
p3319
F0.00021645021645021645
sS'run'
p3320
F0.0028138528138528141
sS'resolve'
p3321
F0.0015151515151515152
sS'belts'
p3322
F0.00021645021645021645
sS'rub'
p3323
F0.00021645021645021645
sS'reach'
p3324
F0.00064935064935064935
sS'jumps'
p3325
F0.00021645021645021645
sS'processing'
p3326
F0.00021645021645021645
sS'continuing'
p3327
F0.00021645021645021645
sS'confidence'
p3328
F0.00064935064935064935
sS'cedar'
p3329
F0.0008658008658008658
sS'step'
p3330
F0.00064935064935064935
sS'electoral'
p3331
F0.00021645021645021645
sS'elixir'
p3332
F0.0004329004329004329
sS'everyday'
p3333
F0.0008658008658008658
sS'crap'
p3334
F0.00021645021645021645
sS'relating'
p3335
F0.00021645021645021645
sS'subtract'
p3336
F0.00021645021645021645
sS'by'
p3337
F0.12056277056277057
sS'fibula'
p3338
F0.00021645021645021645
sS'faith'
p3339
F0.00021645021645021645
sS'pipeline'
p3340
F0.0045454545454545452
sS'passionate'
p3341
F0.0008658008658008658
sS'gifts'
p3342
F0.0004329004329004329
sS'anything'
p3343
F0.0051948051948051948
sS'completing'
p3344
F0.00021645021645021645
sS'firing'
p3345
F0.0004329004329004329
sS'ids'
p3346
F0.003246753246753247
sS'drama'
p3347
F0.00064935064935064935
sS'deserves'
p3348
F0.00021645021645021645
sS'range'
p3349
F0.00021645021645021645
sS'agave'
p3350
F0.00064935064935064935
sS'pediatrician'
p3351
F0.00021645021645021645
sS'blocked'
p3352
F0.00021645021645021645
sS'experiences'
p3353
F0.00021645021645021645
sS'silence'
p3354
F0.00021645021645021645
sS'seeing'
p3355
F0.003246753246753247
sS'jimmy'
p3356
F0.0060606060606060606
sS'plenty'
p3357
F0.00021645021645021645
sS'into'
p3358
F0.012770562770562771
sS'within'
p3359
F0.003246753246753247
sS'consultant'
p3360
F0.0004329004329004329
sS'hammered'
p3361
F0.00021645021645021645
sS'nothing'
p3362
F0.0015151515151515152
sS'appropriate'
p3363
F0.0019480519480519481
sS'imbalance'
p3364
F0.0004329004329004329
sS'primarily'
p3365
F0.00021645021645021645
sS'seasons'
p3366
F0.0008658008658008658
sS'rolls'
p3367
F0.0008658008658008658
sS'stitches'
p3368
F0.00021645021645021645
sS'impressed'
p3369
F0.00021645021645021645
sS'sonny'
p3370
F0.00021645021645021645
sS'statistics'
p3371
F0.0004329004329004329
sS'computer'
p3372
F0.00064935064935064935
sS'mask'
p3373
F0.0004329004329004329
sS'spending'
p3374
F0.0004329004329004329
sS'mack'
p3375
F0.00021645021645021645
sS'apparently'
p3376
F0.00021645021645021645
sS'placing'
p3377
F0.00021645021645021645
sS'lone'
p3378
F0.0038961038961038961
sS'long'
p3379
F0.0058441558441558444
sS'custom'
p3380
F0.0004329004329004329
sS'ordered'
p3381
F0.00064935064935064935
sS'occupy'
p3382
F0.00021645021645021645
sS'doubt'
p3383
F0.0004329004329004329
sS'holy'
p3384
F0.0004329004329004329
sS'homemade'
p3385
F0.00021645021645021645
sS'suit'
p3386
F0.00021645021645021645
sS'forward'
p3387
F0.011038961038961039
sS'spas'
p3388
F0.00021645021645021645
sS'shalt'
p3389
F0.00021645021645021645
sS'opponent'
p3390
F0.00064935064935064935
sS'files'
p3391
F0.0036796536796536799
sS'considerably'
p3392
F0.00021645021645021645
sS'himself'
p3393
F0.00064935064935064935
sS'invite'
p3394
F0.0015151515151515152
sS'registered'
p3395
F0.00021645021645021645
sS'anywhere'
p3396
F0.00064935064935064935
sS'reiterated'
p3397
F0.00021645021645021645
sS'boys'
p3398
F0.0019480519480519481
sS'properly'
p3399
F0.0004329004329004329
sS'link'
p3400
F0.0015151515151515152
sS'delta'
p3401
F0.00064935064935064935
sS'line'
p3402
F0.0034632034632034632
sS'raising'
p3403
F0.00021645021645021645
sS'posted'
p3404
F0.0010822510822510823
sS'info'
p3405
F0.0017316017316017316
sS'travelling'
p3406
F0.00021645021645021645
sS'bumpers'
p3407
F0.00021645021645021645
sS'ut'
p3408
F0.00021645021645021645
sS'vacancies'
p3409
F0.00021645021645021645
sS'up'
p3410
F0.026190476190476191
sS'us'
p3411
F0.019047619047619049
sS'erica'
p3412
F0.00021645021645021645
sS'planet'
p3413
F0.00021645021645021645
sS'mobile'
p3414
F0.00021645021645021645
sS'growth'
p3415
F0.0004329004329004329
sS'exploration'
p3416
F0.00021645021645021645
sS'reorder'
p3417
F0.00064935064935064935
sS'played'
p3418
F0.0004329004329004329
sS'sum'
p3419
F0.0004329004329004329
sS'highlight'
p3420
F0.00021645021645021645
sS'stragglers'
p3421
F0.00021645021645021645
sS'similar'
p3422
F0.00064935064935064935
sS'called'
p3423
F0.0025974025974025974
sS'recognition'
p3424
F0.0004329004329004329
sS'yelled'
p3425
F0.00021645021645021645
sS'kits'
p3426
F0.00021645021645021645
sS'websters'
p3427
F0.00021645021645021645
sS'camp'
p3428
F0.00021645021645021645
sS'associated'
p3429
F0.0008658008658008658
sS'reconcile'
p3430
F0.00021645021645021645
sS'chad'
p3431
F0.0051948051948051948
sS'figured'
p3432
F0.0004329004329004329
sS'defined'
p3433
F0.00021645021645021645
sS'alumni'
p3434
F0.0093073593073593076
sS'influence'
p3435
F0.00021645021645021645
sS'coordinator'
p3436
F0.00064935064935064935
sS'engineering'
p3437
F0.0017316017316017316
sS'diverse'
p3438
F0.00021645021645021645
sS'chat'
p3439
F0.0004329004329004329
sS'kerry'
p3440
F0.0004329004329004329
sS'valance'
p3441
F0.00021645021645021645
sS'graham'
p3442
F0.00064935064935064935
sS'cotton'
p3443
F0.00021645021645021645
sS'rainy'
p3444
F0.00021645021645021645
sS'codes'
p3445
F0.0004329004329004329
sS'amounts'
p3446
F0.00064935064935064935
sS'fixing'
p3447
F0.00021645021645021645
sS'entity'
p3448
F0.0017316017316017316
sS'fears'
p3449
F0.00021645021645021645
sS'buckshot'
p3450
F0.00021645021645021645
sS'matching'
p3451
F0.00021645021645021645
sS'application'
p3452
F0.0008658008658008658
sS'bracket'
p3453
F0.00064935064935064935
sS'lusty'
p3454
F0.00021645021645021645
sS'drippings'
p3455
F0.00021645021645021645
sS'income'
p3456
F0.0004329004329004329
sS'moron'
p3457
F0.00021645021645021645
sS'lockbox'
p3458
F0.00021645021645021645
sS'revision'
p3459
F0.0008658008658008658
sS'dale'
p3460
F0.0008658008658008658
sS'smiles'
p3461
F0.00021645021645021645
sS'draw'
p3462
F0.00064935064935064935
sS'users'
p3463
F0.0008658008658008658
sS'reportedly'
p3464
F0.00021645021645021645
sS'earnings'
p3465
F0.00021645021645021645
sS'problems'
p3466
F0.0015151515151515152
sS'visits'
p3467
F0.0004329004329004329
sS'prepared'
p3468
F0.0010822510822510823
sS'helping'
p3469
F0.00021645021645021645
sS'meaning'
p3470
F0.00064935064935064935
sS'allowing'
p3471
F0.00021645021645021645
sS'ferries'
p3472
F0.00021645021645021645
sS'highlighting'
p3473
F0.00021645021645021645
sS'cooperate'
p3474
F0.00021645021645021645
sS'sides'
p3475
F0.00021645021645021645
sS'structure'
p3476
F0.0004329004329004329
sS'ago'
p3477
F0.0017316017316017316
sS'urged'
p3478
F0.00021645021645021645
sS'land'
p3479
F0.00064935064935064935
sS'fighter'
p3480
F0.00021645021645021645
sS'vice'
p3481
F0.0015151515151515152
sS'age'
p3482
F0.0010822510822510823
sS'teams'
p3483
F0.00064935064935064935
sS'humiliated'
p3484
F0.00021645021645021645
sS'departments'
p3485
F0.00021645021645021645
sS'heath'
p3486
F0.00064935064935064935
sS'impatient'
p3487
F0.00021645021645021645
sS'cooked'
p3488
F0.00021645021645021645
sS'circuit'
p3489
F0.00064935064935064935
sS'enrolled'
p3490
F0.00021645021645021645
sS'walker'
p3491
F0.0034632034632034632
sS'topsides'
p3492
F0.0008658008658008658
sS'having'
p3493
F0.004329004329004329
sS'once'
p3494
F0.0021645021645021645
sS'code'
p3495
F0.0025974025974025974
sS'receiver'
p3496
F0.0004329004329004329
sS'flirtatious'
p3497
F0.00021645021645021645
sS'scratch'
p3498
F0.00021645021645021645
sS'laziness'
p3499
F0.0004329004329004329
sS'resistance'
p3500
F0.00021645021645021645
sS'astronauts'
p3501
F0.00021645021645021645
sS'existing'
p3502
F0.00064935064935064935
sS'cheerful'
p3503
F0.00064935064935064935
sS'chewable'
p3504
F0.00021645021645021645
sS'windy'
p3505
F0.0004329004329004329
sS'groceries'
p3506
F0.00021645021645021645
sS'gang'
p3507
F0.00021645021645021645
sS'go'
p3508
F0.012987012987012988
sS'query'
p3509
F0.0015151515151515152
sS'adjustment'
p3510
F0.0021645021645021645
sS'contributions'
p3511
F0.0004329004329004329
sS'centers'
p3512
F0.00021645021645021645
sS'issues'
p3513
F0.0028138528138528141
sS'seemed'
p3514
F0.00021645021645021645
sS'penis'
p3515
F0.00021645021645021645
sS'graves'
p3516
F0.0004329004329004329
sS'baron'
p3517
F0.00021645021645021645
sS'osprey'
p3518
F0.00021645021645021645
sS'concerned'
p3519
F0.0015151515151515152
sS'young'
p3520
F0.0012987012987012987
sS'send'
p3521
F0.0090909090909090905
sS'nose'
p3522
F0.0004329004329004329
sS'corrosive'
p3523
F0.00021645021645021645
sS'alto'
p3524
F0.00021645021645021645
sS'helps'
p3525
F0.00064935064935064935
sS'visualizing'
p3526
F0.00021645021645021645
sS'officials'
p3527
F0.00021645021645021645
sS'include'
p3528
F0.0028138528138528141
sS'friendly'
p3529
F0.00064935064935064935
sS'sent'
p3530
F0.025108225108225107
sS'ingredient'
p3531
F0.0004329004329004329
sS'unwinding'
p3532
F0.00021645021645021645
sS'boatload'
p3533
F0.00021645021645021645
sS'confirmation'
p3534
F0.0015151515151515152
sS'belcher'
p3535
F0.00021645021645021645
sS'outside'
p3536
F0.0012987012987012987
sS'anxiously'
p3537
F0.00021645021645021645
sS'egotistic'
p3538
F0.0004329004329004329
sS'continues'
p3539
F0.00021645021645021645
sS'kitty'
p3540
F0.0004329004329004329
sS'stroud'
p3541
F0.00021645021645021645
sS'wishes'
p3542
F0.00021645021645021645
sS'putting'
p3543
F0.0025974025974025974
sS'cellular'
p3544
F0.0010822510822510823
sS'homework'
p3545
F0.00021645021645021645
sS'telling'
p3546
F0.00064935064935064935
sS'practicing'
p3547
F0.00021645021645021645
sS'drinking'
p3548
F0.00021645021645021645
sS'star'
p3549
F0.00021645021645021645
sS'categories'
p3550
F0.00021645021645021645
sS'arrange'
p3551
F0.00021645021645021645
sS'timely'
p3552
F0.0012987012987012987
sS'entire'
p3553
F0.0012987012987012987
sS'exits'
p3554
F0.00064935064935064935
sS'greasy'
p3555
F0.00021645021645021645
sS'transmission'
p3556
F0.00064935064935064935
sS'positions'
p3557
F0.0028138528138528141
sS'button'
p3558
F0.00064935064935064935
sS'shock'
p3559
F0.0004329004329004329
sS'eve'
p3560
F0.00021645021645021645
sS'deals'
p3561
F0.029653679653679654
sS'slaps'
p3562
F0.00021645021645021645
sS'race'
p3563
F0.00021645021645021645
sS'nuggets'
p3564
F0.00064935064935064935
sS'polling'
p3565
F0.00021645021645021645
sS'roscoe'
p3566
F0.00021645021645021645
sS'phoenix'
p3567
F0.00021645021645021645
sS'ride'
p3568
F0.00021645021645021645
sS'joey'
p3569
F0.0008658008658008658
sS'logistics'
p3570
F0.0012987012987012987
sS'limitations'
p3571
F0.0004329004329004329
sS'clients'
p3572
F0.0010822510822510823
sS'booty'
p3573
F0.00021645021645021645
sS'pledge'
p3574
F0.00021645021645021645
sS'bleeding'
p3575
F0.00021645021645021645
sS'crow'
p3576
F0.00021645021645021645
sS'frost'
p3577
F0.00021645021645021645
sS'yourself'
p3578
F0.0008658008658008658
sS'wrestling'
p3579
F0.0010822510822510823
sS'ham'
p3580
F0.00064935064935064935
sS'demonstrations'
p3581
F0.00021645021645021645
sS'licensed'
p3582
F0.0004329004329004329
sS'jump'
p3583
F0.00021645021645021645
sS'crook'
p3584
F0.0008658008658008658
sS'video'
p3585
F0.00021645021645021645
sS'traveling'
p3586
F0.00064935064935064935
sS'picked'
p3587
F0.0004329004329004329
sS'reunion'
p3588
F0.0008658008658008658
sS'growing'
p3589
F0.00021645021645021645
sS'acid'
p3590
F0.00021645021645021645
sS'click'
p3591
F0.00064935064935064935
sS'folk'
p3592
F0.00021645021645021645
sS'victor'
p3593
F0.0077922077922077922
sS'universities'
p3594
F0.00021645021645021645
sS'index'
p3595
F0.003246753246753247
sS'poke'
p3596
F0.00021645021645021645
sS'plays'
p3597
F0.00021645021645021645
sS'power'
p3598
F0.0047619047619047623
sS'kris'
p3599
F0.00021645021645021645
sS'giving'
p3600
F0.0010822510822510823
sS'colonel'
p3601
F0.00021645021645021645
sS'assisted'
p3602
F0.0010822510822510823
sS'schedule'
p3603
F0.0056277056277056281
sS'unwound'
p3604
F0.00064935064935064935
sS'expressed'
p3605
F0.00021645021645021645
sS'ended'
p3606
F0.00021645021645021645
sS'cell'
p3607
F0.0030303030303030303
sS'paying'
p3608
F0.00064935064935064935
sS'waiting'
p3609
F0.0012987012987012987
sS'printing'
p3610
F0.00021645021645021645
sS'apologize'
p3611
F0.00021645021645021645
sS'flowing'
p3612
F0.0010822510822510823
sS'elf'
p3613
F0.0019480519480519481
sS'bird'
p3614
F0.00021645021645021645
sS'stipulation'
p3615
F0.00021645021645021645
sS'unruly'
p3616
F0.00021645021645021645
sS'body'
p3617
F0.0017316017316017316
sS'completion'
p3618
F0.0004329004329004329
sS'melancholy'
p3619
F0.0004329004329004329
sS'focuses'
p3620
F0.00021645021645021645
sS'led'
p3621
F0.0004329004329004329
sS'lee'
p3622
F0.0047619047619047623
sS'degree'
p3623
F0.00064935064935064935
sS'exchange'
p3624
F0.0023809523809523812
sS'communicate'
p3625
F0.0017316017316017316
sS'kangaroo'
p3626
F0.00021645021645021645
sS'commercial'
p3627
F0.0004329004329004329
sS'punch'
p3628
F0.0004329004329004329
sS'highly'
p3629
F0.0004329004329004329
sS'dressed'
p3630
F0.00021645021645021645
sS'packing'
p3631
F0.00064935064935064935
sS'northeast'
p3632
F0.00064935064935064935
sS'let'
p3633
F0.035064935064935063
sS'associations'
p3634
F0.0021645021645021645
sS'others'
p3635
F0.0021645021645021645
sS'slater'
p3636
F0.00021645021645021645
sS'kidnapped'
p3637
F0.00021645021645021645
sS'suggest'
p3638
F0.0010822510822510823
sS'settling'
p3639
F0.00021645021645021645
sS'great'
p3640
F0.0067099567099567102
sS'engage'
p3641
F0.0010822510822510823
sS'talent'
p3642
F0.00021645021645021645
sS'pressure'
p3643
F0.0004329004329004329
sS'receive'
p3644
F0.0015151515151515152
sS'involved'
p3645
F0.0008658008658008658
sS'larger'
p3646
F0.00021645021645021645
sS'murdered'
p3647
F0.00021645021645021645
sS'contradiction'
p3648
F0.00021645021645021645
sS'leaving'
p3649
F0.0023809523809523812
sS'shall'
p3650
F0.00064935064935064935
sS'products'
p3651
F0.0004329004329004329
sS'reverify'
p3652
F0.00021645021645021645
sS'opinion'
p3653
F0.0004329004329004329
sS'implement'
p3654
F0.00021645021645021645
sS'cad'
p3655
F0.00021645021645021645
sS'makes'
p3656
F0.0023809523809523812
sS'honor'
p3657
F0.0008658008658008658
sS'fulfill'
p3658
F0.00021645021645021645
sS'wig'
p3659
F0.00021645021645021645
sS'marc'
p3660
F0.00064935064935064935
sS'named'
p3661
F0.0015151515151515152
sS'panicked'
p3662
F0.0004329004329004329
sS'sat'
p3663
F0.0004329004329004329
sS'apple'
p3664
F0.00064935064935064935
sS'claim'
p3665
F0.00021645021645021645
sS'win'
p3666
F0.0010822510822510823
sS'charge'
p3667
F0.0004329004329004329
sS'dedicated'
p3668
F0.00021645021645021645
sS'private'
p3669
F0.0004329004329004329
sS'addressed'
p3670
F0.0010822510822510823
sS'names'
p3671
F0.0023809523809523812
sS'motor'
p3672
F0.00021645021645021645
sS'apply'
p3673
F0.0004329004329004329
sS'gimmick'
p3674
F0.00021645021645021645
sS'boasts'
p3675
F0.00021645021645021645
sS'cloud'
p3676
F0.00021645021645021645
sS'lime'
p3677
F0.00064935064935064935
sS'standing'
p3678
F0.0010822510822510823
sS'strapped'
p3679
F0.00021645021645021645
sS'use'
p3680
F0.0090909090909090905
sS'fee'
p3681
F0.0021645021645021645
sS'from'
p3682
F0.10844155844155844
sS'recalling'
p3683
F0.00021645021645021645
sS'theme'
p3684
F0.0004329004329004329
sS'next'
p3685
F0.012554112554112554
sS'few'
p3686
F0.007575757575757576
sS'duplicate'
p3687
F0.0015151515151515152
sS'randy'
p3688
F0.0015151515151515152
sS'estimated'
p3689
F0.0004329004329004329
sS'weeping'
p3690
F0.0008658008658008658
sS'vehicle'
p3691
F0.00021645021645021645
sS'butler'
p3692
F0.00021645021645021645
sS'agreeable'
p3693
F0.00021645021645021645
sS'panel'
p3694
F0.00021645021645021645
sS'chrome'
p3695
F0.00021645021645021645
sS'rich'
p3696
F0.00021645021645021645
sS'upcoming'
p3697
F0.00021645021645021645
sS'porch'
p3698
F0.00021645021645021645
sS'started'
p3699
F0.0015151515151515152
sS'trait'
p3700
F0.00021645021645021645
sS'patrol'
p3701
F0.00021645021645021645
sS'fuck'
p3702
F0.00021645021645021645
sS'impress'
p3703
F0.0004329004329004329
sS'sister'
p3704
F0.00064935064935064935
sS'charming'
p3705
F0.00021645021645021645
sS'trail'
p3706
F0.00021645021645021645
sS'opposing'
p3707
F0.0004329004329004329
sS'gault'
p3708
F0.00021645021645021645
sS'labelled'
p3709
F0.00021645021645021645
sS'ashamed'
p3710
F0.00021645021645021645
sS'recount'
p3711
F0.0004329004329004329
sS'baby'
p3712
F0.0010822510822510823
sS'rare'
p3713
F0.00021645021645021645
sS'appointed'
p3714
F0.0004329004329004329
sS'starter'
p3715
F0.00021645021645021645
sS'women'
p3716
F0.0004329004329004329
sS'customer'
p3717
F0.0021645021645021645
sS'parachute'
p3718
F0.0008658008658008658
sS'account'
p3719
F0.0004329004329004329
sS'balls'
p3720
F0.00064935064935064935
sS'animals'
p3721
F0.00021645021645021645
sS'this'
p3722
F0.13225108225108226
sS'athlete'
p3723
F0.0004329004329004329
sS'when'
p3724
F0.025974025974025976
sS'fortunes'
p3725
F0.00021645021645021645
sS'pour'
p3726
F0.0004329004329004329
sS'tag'
p3727
F0.00021645021645021645
sS'crossed'
p3728
F0.0017316017316017316
sS'publications'
p3729
F0.0008658008658008658
sS'worksheet'
p3730
F0.0004329004329004329
sS'industrial'
p3731
F0.00021645021645021645
sS'meet'
p3732
F0.0023809523809523812
sS'closing'
p3733
F0.0015151515151515152
sS'drops'
p3734
F0.0008658008658008658
sS'fetch'
p3735
F0.00021645021645021645
sS'dropped'
p3736
F0.00021645021645021645
sS'control'
p3737
F0.0021645021645021645
sS'reserved'
p3738
F0.0004329004329004329
sS'links'
p3739
F0.00021645021645021645
sS'plate'
p3740
F0.00021645021645021645
sS'process'
p3741
F0.003246753246753247
sS'favorite'
p3742
F0.00021645021645021645
sS'pad'
p3743
F0.0004329004329004329
sS'tax'
p3744
F0.0010822510822510823
sS'high'
p3745
F0.0034632034632034632
sS'effectively'
p3746
F0.00021645021645021645
sS'reserves'
p3747
F0.0004329004329004329
sS'pulling'
p3748
F0.0012987012987012987
sS'something'
p3749
F0.0049783549783549786
sS'tab'
p3750
F0.0064935064935064939
sS'offense'
p3751
F0.00021645021645021645
sS'bones'
p3752
F0.00021645021645021645
sS'bowl'
p3753
F0.00021645021645021645
sS'dairy'
p3754
F0.0004329004329004329
sS'amend'
p3755
F0.0004329004329004329
sS'educational'
p3756
F0.00021645021645021645
sS'united'
p3757
F0.0012987012987012987
sS'sit'
p3758
F0.0010822510822510823
sS'boxing'
p3759
F0.00021645021645021645
sS'fortunate'
p3760
F0.00021645021645021645
sS'delay'
p3761
F0.00064935064935064935
sS'located'
p3762
F0.00021645021645021645
sS'attachment'
p3763
F0.0004329004329004329
sS'animal'
p3764
F0.00021645021645021645
sS'instead'
p3765
F0.0025974025974025974
sS'intelligent'
p3766
F0.00021645021645021645
sS'stock'
p3767
F0.00064935064935064935
sS'profile'
p3768
F0.0004329004329004329
sS'furiously'
p3769
F0.00021645021645021645
sS'blocks'
p3770
F0.00021645021645021645
sS'attend'
p3771
F0.00064935064935064935
sS'locked'
p3772
F0.00064935064935064935
sS'baton'
p3773
F0.00021645021645021645
sS'philosophy'
p3774
F0.0010822510822510823
sS'peace'
p3775
F0.0004329004329004329
sS'tied'
p3776
F0.00064935064935064935
sS'impulsive'
p3777
F0.00021645021645021645
sS'bench'
p3778
F0.00021645021645021645
sS'fleshy'
p3779
F0.00021645021645021645
sS'tier'
p3780
F0.00021645021645021645
sS'ties'
p3781
F0.00021645021645021645
sS'spelling'
p3782
F0.00021645021645021645
sS'berg'
p3783
F0.00021645021645021645
sS'efficiently'
p3784
F0.00021645021645021645
sS'bombers'
p3785
F0.00021645021645021645
sS'italics'
p3786
F0.0004329004329004329
sS'light'
p3787
F0.0015151515151515152
sS'lines'
p3788
F0.0008658008658008658
sS'commodities'
p3789
F0.00021645021645021645
sS'holly'
p3790
F0.0004329004329004329
sS'allow'
p3791
F0.0012987012987012987
sS'counted'
p3792
F0.00021645021645021645
sS'keeling'
p3793
F0.0010822510822510823
sS'six'
p3794
F0.0015151515151515152
sS'producer'
p3795
F0.00021645021645021645
sS'ambition'
p3796
F0.00064935064935064935
sS'move'
p3797
F0.003246753246753247
sS'quietly'
p3798
F0.00021645021645021645
sS'meter'
p3799
F0.00064935064935064935
sS'produced'
p3800
F0.0010822510822510823
sS'rendered'
p3801
F0.00021645021645021645
sS'including'
p3802
F0.0023809523809523812
sS'looks'
p3803
F0.0095238095238095247
sS'cruise'
p3804
F0.0004329004329004329
sS'mentioned'
p3805
F0.00021645021645021645
sS'interrogated'
p3806
F0.00021645021645021645
sS'warren'
p3807
F0.0017316017316017316
sS'perfect'
p3808
F0.00064935064935064935
sS'traders'
p3809
F0.0051948051948051948
sS'industrious'
p3810
F0.0004329004329004329
sS'inlet'
p3811
F0.0004329004329004329
sS'la'
p3812
F0.0047619047619047623
sS'chosen'
p3813
F0.00021645021645021645
sS'choosy'
p3814
F0.00021645021645021645
sS'notebooks'
p3815
F0.00021645021645021645
sS'ships'
p3816
F0.00021645021645021645
sS'labor'
p3817
F0.0004329004329004329
sS'previously'
p3818
F0.00064935064935064935
sS'willing'
p3819
F0.0004329004329004329
sS'marsh'
p3820
F0.00021645021645021645
sS'choose'
p3821
F0.0008658008658008658
sS'communication'
p3822
F0.0017316017316017316
sS'orange'
p3823
F0.0004329004329004329
sS'derivative'
p3824
F0.00021645021645021645
sS'holiday'
p3825
F0.0004329004329004329
sS'spot'
p3826
F0.0004329004329004329
sS'pending'
p3827
F0.01038961038961039
sS'dad'
p3828
F0.0019480519480519481
sS'puts'
p3829
F0.00021645021645021645
sS'crash'
p3830
F0.00021645021645021645
sS'contention'
p3831
F0.00021645021645021645
sS'surrounds'
p3832
F0.0004329004329004329
sS'outlined'
p3833
F0.00021645021645021645
sS'practice'
p3834
F0.0008658008658008658
sS'ship'
p3835
F0.0004329004329004329
sS'blessed'
p3836
F0.00021645021645021645
sS'mention'
p3837
F0.00021645021645021645
sS'cutting'
p3838
F0.0004329004329004329
sS'socks'
p3839
F0.00021645021645021645
sS'kiss'
p3840
F0.00021645021645021645
sS'hands'
p3841
F0.0021645021645021645
sS'front'
p3842
F0.0010822510822510823
sS'documented'
p3843
F0.00021645021645021645
sS'kindness'
p3844
F0.0004329004329004329
sS'day'
p3845
F0.012987012987012988
sS'presidential'
p3846
F0.0008658008658008658
sS'successor'
p3847
F0.00021645021645021645
sS'articles'
p3848
F0.00021645021645021645
sS'masters'
p3849
F0.0030303030303030303
sS'urge'
p3850
F0.00021645021645021645
sS'toes'
p3851
F0.00021645021645021645
sS'verifying'
p3852
F0.00021645021645021645
sS'cleared'
p3853
F0.00021645021645021645
sS'university'
p3854
F0.004329004329004329
sS'covering'
p3855
F0.0008658008658008658
sS'identified'
p3856
F0.0019480519480519481
sS'billy'
p3857
F0.00021645021645021645
sS'transmitted'
p3858
F0.0008658008658008658
sS'nonstop'
p3859
F0.00021645021645021645
sS'truth'
p3860
F0.00021645021645021645
sS'disregard'
p3861
F0.00021645021645021645
sS'involvement'
p3862
F0.0008658008658008658
sS'beneath'
p3863
F0.00064935064935064935
sS'warner'
p3864
F0.00021645021645021645
sS'seniors'
p3865
F0.00021645021645021645
sS'unwind'
p3866
F0.00021645021645021645
sS'activate'
p3867
F0.00021645021645021645
sS'shower'
p3868
F0.00021645021645021645
sS'doing'
p3869
F0.0069264069264069264
sS'parties'
p3870
F0.00021645021645021645
sS'citric'
p3871
F0.00021645021645021645
sS'staying'
p3872
F0.0030303030303030303
sS'related'
p3873
F0.0021645021645021645
sS'society'
p3874
F0.00021645021645021645
sS'books'
p3875
F0.0082251082251082255
sS'measure'
p3876
F0.00064935064935064935
sS'our'
p3877
F0.017532467532467531
sS'margins'
p3878
F0.00021645021645021645
sS'snippy'
p3879
F0.00021645021645021645
sS'agriculture'
p3880
F0.00021645021645021645
sS'sandy'
p3881
F0.0008658008658008658
sS'out'
p3882
F0.034632034632034632
sS'butch'
p3883
F0.00021645021645021645
sS'matt'
p3884
F0.0023809523809523812
sS'nick'
p3885
F0.0008658008658008658
sS'acknowledgment'
p3886
F0.00021645021645021645
sS'capital'
p3887
F0.0008658008658008658
sS'hedges'
p3888
F0.0012987012987012987
sS'bind'
p3889
F0.00064935064935064935
sS'develop'
p3890
F0.00021645021645021645
sS'relate'
p3891
F0.0004329004329004329
sS'chaos'
p3892
F0.00021645021645021645
sS'strengthened'
p3893
F0.00021645021645021645
sS'may'
p3894
F0.016666666666666666
sS'freshman'
p3895
F0.00064935064935064935
sS'playground'
p3896
F0.00021645021645021645
sS'stud'
p3897
F0.00021645021645021645
sS'hilarious'
p3898
F0.0008658008658008658
sS'lecture'
p3899
F0.00021645021645021645
sS'cause'
p3900
F0.00021645021645021645
sS'blasting'
p3901
F0.00021645021645021645
sS'math'
p3902
F0.00021645021645021645
sS'afford'
p3903
F0.0004329004329004329
sS'shut'
p3904
F0.00064935064935064935
sS'await'
p3905
F0.00021645021645021645
sS'experiment'
p3906
F0.00021645021645021645
sS'dictionary'
p3907
F0.00021645021645021645
sS'wines'
p3908
F0.00021645021645021645
sS'frank'
p3909
F0.0025974025974025974
sS'troops'
p3910
F0.00021645021645021645
sS'maintains'
p3911
F0.00021645021645021645
sS'adherence'
p3912
F0.00021645021645021645
sS'completely'
p3913
F0.0008658008658008658
sS'confirmations'
p3914
F0.0008658008658008658
sS'frigging'
p3915
F0.00021645021645021645
sS'keys'
p3916
F0.00021645021645021645
sS'latest'
p3917
F0.0015151515151515152
sS'anyhow'
p3918
F0.0004329004329004329
sS'bleed'
p3919
F0.00021645021645021645
sS'shortest'
p3920
F0.00021645021645021645
sS'log'
p3921
F0.0012987012987012987
sS'crusher'
p3922
F0.00021645021645021645
sS'steak'
p3923
F0.00021645021645021645
sS'allies'
p3924
F0.0004329004329004329
sS'prepare'
p3925
F0.00021645021645021645
sS'bowman'
p3926
F0.00021645021645021645
sS'steal'
p3927
F0.00021645021645021645
sS'could'
p3928
F0.010173160173160173
sS'hes'
p3929
F0.0073593073593073597
sS'keep'
p3930
F0.008658008658008658
sS'keen'
p3931
F0.00021645021645021645
sS'resumes'
p3932
F0.0012987012987012987
sS'terrific'
p3933
F0.0004329004329004329
sS'secretary'
p3934
F0.0008658008658008658
sS'facilitate'
p3935
F0.00021645021645021645
sS'mids'
p3936
F0.0004329004329004329
sS'south'
p3937
F0.0047619047619047623
sS'timbers'
p3938
F0.0004329004329004329
sS'sew'
p3939
F0.00021645021645021645
sS'powerful'
p3940
F0.00021645021645021645
sS'scene'
p3941
F0.0004329004329004329
sS'sack'
p3942
F0.00021645021645021645
sS'shelly'
p3943
F0.00021645021645021645
sS'franks'
p3944
F0.0017316017316017316
sS'cade'
p3945
F0.00021645021645021645
sS'bitch'
p3946
F0.00064935064935064935
sS'effervescent'
p3947
F0.0010822510822510823
sS'reached'
p3948
F0.0015151515151515152
sS'noticed'
p3949
F0.0004329004329004329
sS'quality'
p3950
F0.0004329004329004329
sS'straight'
p3951
F0.0008658008658008658
sS'disaster'
p3952
F0.0019480519480519481
sS'bull'
p3953
F0.00021645021645021645
sS'management'
p3954
F0.0041125541125541128
sS'fair'
p3955
F0.0004329004329004329
sS'ordering'
p3956
F0.00064935064935064935
sS'data'
p3957
F0.0012987012987012987
sS'vulgar'
p3958
F0.00021645021645021645
sS'system'
p3959
F0.003246753246753247
sS'relations'
p3960
F0.00064935064935064935
sS'inmate'
p3961
F0.00021645021645021645
sS'their'
p3962
F0.011904761904761904
sS'cats'
p3963
F0.00021645021645021645
sS'northwest'
p3964
F0.00021645021645021645
sS'rigs'
p3965
F0.00021645021645021645
sS'vile'
p3966
F0.00021645021645021645
sS'messing'
p3967
F0.00021645021645021645
sS'final'
p3968
F0.004329004329004329
sS'cabin'
p3969
F0.00064935064935064935
sS'circulate'
p3970
F0.0010822510822510823
sS'interests'
p3971
F0.00021645021645021645
sS'pugh'
p3972
F0.00021645021645021645
sS'shorts'
p3973
F0.00021645021645021645
sS'bachelors'
p3974
F0.00021645021645021645
sS'reversed'
p3975
F0.0004329004329004329
sS'exactly'
p3976
F0.0010822510822510823
sS'lists'
p3977
F0.00021645021645021645
sS'sort'
p3978
F0.00021645021645021645
sS'environmental'
p3979
F0.00021645021645021645
sS'chemicals'
p3980
F0.00021645021645021645
sS'regards'
p3981
F0.0010822510822510823
sS'grandpa'
p3982
F0.00021645021645021645
sS'fuzzy'
p3983
F0.00021645021645021645
sS'haven'
p3984
F0.00021645021645021645
sS'updating'
p3985
F0.00064935064935064935
sS'loved'
p3986
F0.0004329004329004329
sS'valley'
p3987
F0.00021645021645021645
sS'ben'
p3988
F0.0010822510822510823
sS'commodity'
p3989
F0.00064935064935064935
sS'jocks'
p3990
F0.00064935064935064935
sS'employer'
p3991
F0.00021645021645021645
sS'bother'
p3992
F0.00021645021645021645
sS'submitted'
p3993
F0.00021645021645021645
sS'tortured'
p3994
F0.00021645021645021645
sS'politics'
p3995
F0.00021645021645021645
sS'individual'
p3996
F0.0023809523809523812
sS'loves'
p3997
F0.0023809523809523812
sS'lover'
p3998
F0.0010822510822510823
sS'visited'
p3999
F0.00021645021645021645
sS'providing'
p4000
F0.00021645021645021645
sS'matrix'
p4001
F0.00021645021645021645
sS'distinguished'
p4002
F0.00021645021645021645
sS'bet'
p4003
F0.0012987012987012987
sS'descriptions'
p4004
F0.0008658008658008658
sS'collecting'
p4005
F0.0004329004329004329
sS'inactivate'
p4006
F0.00064935064935064935
sS'viewer'
p4007
F0.00021645021645021645
sS'fluctuation'
p4008
F0.00021645021645021645
sS'partnership'
p4009
F0.0004329004329004329
sS'curves'
p4010
F0.0047619047619047623
sS'comfortable'
p4011
F0.0010822510822510823
sS'tonight'
p4012
F0.0015151515151515152
sS'have'
p4013
F0.11666666666666667
sS'need'
p4014
F0.030086580086580085
sS'facing'
p4015
F0.00021645021645021645
sS'limbo'
p4016
F0.00021645021645021645
sS'reissuing'
p4017
F0.0004329004329004329
sS'linked'
p4018
F0.0008658008658008658
sS'viewed'
p4019
F0.00021645021645021645
sS'screw'
p4020
F0.0004329004329004329
sS'documents'
p4021
F0.00064935064935064935
sS'mappings'
p4022
F0.00021645021645021645
sS'dishes'
p4023
F0.00021645021645021645
sS'able'
p4024
F0.0062770562770562768
sS'mid'
p4025
F0.0019480519480519481
sS'parks'
p4026
F0.0008658008658008658
sS'mix'
p4027
F0.0004329004329004329
sS'concerns'
p4028
F0.0019480519480519481
sS'shipyards'
p4029
F0.00021645021645021645
sS'tailback'
p4030
F0.00021645021645021645
sS'which'
p4031
F0.008658008658008658
sS'truck'
p4032
F0.0004329004329004329
sS'disclosure'
p4033
F0.00064935064935064935
sS'soap'
p4034
F0.00021645021645021645
sS'accuracy'
p4035
F0.00021645021645021645
sS'fuels'
p4036
F0.0004329004329004329
sS'unless'
p4037
F0.0008658008658008658
sS'combat'
p4038
F0.00021645021645021645
sS'who'
p4039
F0.012337662337662338
sS'disappointments'
p4040
F0.00021645021645021645
sS'rearrange'
p4041
F0.00021645021645021645
sS'courtesy'
p4042
F0.0008658008658008658
sS'combustion'
p4043
F0.00021645021645021645
sS'eight'
p4044
F0.0017316017316017316
sS'demise'
p4045
F0.00021645021645021645
sS'sally'
p4046
F0.00064935064935064935
sS'why'
p4047
F0.0049783549783549786
sS'police'
p4048
F0.0008658008658008658
sS'volume'
p4049
F0.0034632034632034632
sS'muscular'
p4050
F0.00021645021645021645
sS'saddest'
p4051
F0.00021645021645021645
sS'gather'
p4052
F0.00064935064935064935
sS'upset'
p4053
F0.0019480519480519481
sS'disease'
p4054
F0.0004329004329004329
sS'face'
p4055
F0.0004329004329004329
sS'pipe'
p4056
F0.0008658008658008658
sS'near'
p4057
F0.00064935064935064935
sS'snapshot'
p4058
F0.00021645021645021645
sS'gesture'
p4059
F0.00021645021645021645
sS'pictures'
p4060
F0.0004329004329004329
sS'occasion'
p4061
F0.00021645021645021645
sS'normally'
p4062
F0.0004329004329004329
sS'fact'
p4063
F0.0015151515151515152
sS'impression'
p4064
F0.0004329004329004329
sS'parker'
p4065
F0.00064935064935064935
sS'invited'
p4066
F0.00021645021645021645
sS'text'
p4067
F0.0004329004329004329
sS'stove'
p4068
F0.00021645021645021645
sS'anyway'
p4069
F0.0004329004329004329
sS'watch'
p4070
F0.0004329004329004329
sS'bring'
p4071
F0.0023809523809523812
sS'rusted'
p4072
F0.0004329004329004329
sS'democrats'
p4073
F0.0008658008658008658
sS'reaching'
p4074
F0.00021645021645021645
sS'bedroom'
p4075
F0.00021645021645021645
sS'portfolio'
p4076
F0.0019480519480519481
sS'chicken'
p4077
F0.0045454545454545452
sS'asylum'
p4078
F0.00021645021645021645
sS'debate'
p4079
F0.0012987012987012987
sS'leg'
p4080
F0.0041125541125541128
sS'staff'
p4081
F0.0004329004329004329
sS'partners'
p4082
F0.00021645021645021645
sS'unanimously'
p4083
F0.00021645021645021645
sS'based'
p4084
F0.0008658008658008658
sS'knowledge'
p4085
F0.0012987012987012987
sS'tire'
p4086
F0.00021645021645021645
sS'jay'
p4087
F0.0041125541125541128
sS'sparks'
p4088
F0.00021645021645021645
sS'humor'
p4089
F0.0004329004329004329
sS'combs'
p4090
F0.00021645021645021645
sS'controls'
p4091
F0.0004329004329004329
sS'should'
p4092
F0.037012987012987011
sS'terminal'
p4093
F0.00021645021645021645
sS'entities'
p4094
F0.00021645021645021645
sS'unable'
p4095
F0.0021645021645021645
sS'candidates'
p4096
F0.0012987012987012987
sS'employee'
p4097
F0.0010822510822510823
sS'employed'
p4098
F0.00021645021645021645
sS'partially'
p4099
F0.00021645021645021645
sS'local'
p4100
F0.00021645021645021645
sS'interested'
p4101
F0.0030303030303030303
sS'hope'
p4102
F0.011038961038961039
sS'meant'
p4103
F0.00064935064935064935
sS'loss'
p4104
F0.0004329004329004329
sS'handle'
p4105
F0.0015151515151515152
sS'means'
p4106
F0.0021645021645021645
sS'beat'
p4107
F0.0008658008658008658
sS'familiar'
p4108
F0.00064935064935064935
sS'dope'
p4109
F0.00021645021645021645
sS'overall'
p4110
F0.00064935064935064935
sS'lucky'
p4111
F0.00021645021645021645
sS'saver'
p4112
F0.00021645021645021645
sS'joint'
p4113
F0.0004329004329004329
sS'community'
p4114
F0.0004329004329004329
sS'ones'
p4115
F0.0015151515151515152
sS'legitimate'
p4116
F0.00021645021645021645
sS'joins'
p4117
F0.00021645021645021645
sS'distraught'
p4118
F0.00021645021645021645
sS'sinus'
p4119
F0.0010822510822510823
sS'procedures'
p4120
F0.0012987012987012987
sS'areas'
p4121
F0.00021645021645021645
sS'trucks'
p4122
F0.00021645021645021645
sS'course'
p4123
F0.0010822510822510823
sS'upper'
p4124
F0.00021645021645021645
sS'shy'
p4125
F0.0004329004329004329
sS'married'
p4126
F0.0008658008658008658
sS'taxes'
p4127
F0.00021645021645021645
sS'calling'
p4128
F0.0008658008658008658
sS'peel'
p4129
F0.00021645021645021645
sS'stuff'
p4130
F0.0017316017316017316
sS'hosed'
p4131
F0.00021645021645021645
sS'she'
p4132
F0.012121212121212121
sS'queries'
p4133
F0.00021645021645021645
sS'accolades'
p4134
F0.00021645021645021645
sS'grab'
p4135
F0.00021645021645021645
sS'fixed'
p4136
F0.0017316017316017316
sS'grad'
p4137
F0.0004329004329004329
sS'view'
p4138
F0.0019480519480519481
sS'hydrocarbons'
p4139
F0.00021645021645021645
sS'knowing'
p4140
F0.00021645021645021645
sS'prayers'
p4141
F0.00021645021645021645
sS'acquired'
p4142
F0.00021645021645021645
sS'national'
p4143
F0.0017316017316017316
sS'showdown'
p4144
F0.00021645021645021645
sS'packet'
p4145
F0.00021645021645021645
sS'accused'
p4146
F0.00064935064935064935
sS'powder'
p4147
F0.0004329004329004329
sS'merino'
p4148
F0.0004329004329004329
sS'battery'
p4149
F0.00064935064935064935
sS'creating'
p4150
F0.00064935064935064935
sS'closer'
p4151
F0.00021645021645021645
sS'interview'
p4152
F0.0019480519480519481
sS'hiring'
p4153
F0.00021645021645021645
sS'reform'
p4154
F0.00021645021645021645
sS'clearing'
p4155
F0.00021645021645021645
sS'participant'
p4156
F0.00021645021645021645
sS'favor'
p4157
F0.0010822510822510823
sS'state'
p4158
F0.0023809523809523812
sS'difficulties'
p4159
F0.00021645021645021645
sS'rowan'
p4160
F0.00064935064935064935
sS'correctly'
p4161
F0.00064935064935064935
sS'routine'
p4162
F0.0004329004329004329
sS'nominees'
p4163
F0.0004329004329004329
sS'progress'
p4164
F0.00021645021645021645
sS'neither'
p4165
F0.0008658008658008658
sS'bunch'
p4166
F0.00064935064935064935
sS'omicron'
p4167
F0.00021645021645021645
sS'speed'
p4168
F0.00021645021645021645
sS'bought'
p4169
F0.00064935064935064935
sS'ken'
p4170
F0.0021645021645021645
sS'comparable'
p4171
F0.00021645021645021645
sS'dozen'
p4172
F0.0004329004329004329
sS'ability'
p4173
F0.0004329004329004329
sS'superior'
p4174
F0.00021645021645021645
sS'importance'
p4175
F0.0004329004329004329
sS'joy'
p4176
F0.0017316017316017316
sS'sorrow'
p4177
F0.00021645021645021645
sS'court'
p4178
F0.0004329004329004329
sS'deliver'
p4179
F0.0004329004329004329
sS'negotiated'
p4180
F0.00021645021645021645
sS'personalize'
p4181
F0.0015151515151515152
sS'efficiency'
p4182
F0.00021645021645021645
sS'job'
p4183
F0.0060606060606060606
sS'hooks'
p4184
F0.00021645021645021645
sS'joe'
p4185
F0.017965367965367966
sS'key'
p4186
F0.0008658008658008658
sS'approval'
p4187
F0.00064935064935064935
sS'distribution'
p4188
F0.0015151515151515152
sS'monitor'
p4189
F0.00064935064935064935
sS'hits'
p4190
F0.00021645021645021645
sS'planned'
p4191
F0.00064935064935064935
sS'limits'
p4192
F0.00064935064935064935
sS'career'
p4193
F0.0010822510822510823
sS'joke'
p4194
F0.00064935064935064935
sS'taking'
p4195
F0.0028138528138528141
sS'equal'
p4196
F0.00021645021645021645
sS'drug'
p4197
F0.0004329004329004329
sS'trips'
p4198
F0.0008658008658008658
sS'strains'
p4199
F0.00021645021645021645
sS'liquidating'
p4200
F0.00021645021645021645
sS'jetties'
p4201
F0.00021645021645021645
sS'figures'
p4202
F0.0004329004329004329
sS'passing'
p4203
F0.00021645021645021645
sS'safely'
p4204
F0.00021645021645021645
sS'jersey'
p4205
F0.00021645021645021645
sS'otherwise'
p4206
F0.0004329004329004329
sS'comment'
p4207
F0.0012987012987012987
sS'strongly'
p4208
F0.00021645021645021645
sS'adjusted'
p4209
F0.00021645021645021645
sS'relevant'
p4210
F0.00021645021645021645
sS'divisions'
p4211
F0.00021645021645021645
sS'laird'
p4212
F0.0004329004329004329
sS'wall'
p4213
F0.00064935064935064935
sS'encompasses'
p4214
F0.00021645021645021645
sS'hyphen'
p4215
F0.00021645021645021645
sS'wonder'
p4216
F0.0004329004329004329
sS'solve'
p4217
F0.00021645021645021645
sS'walk'
p4218
F0.00064935064935064935
sS'commend'
p4219
F0.00021645021645021645
sS'liquidations'
p4220
F0.0095238095238095247
sS'rehearsed'
p4221
F0.00021645021645021645
sS'reliance'
p4222
F0.00064935064935064935
sS'phones'
p4223
F0.00021645021645021645
sS'table'
p4224
F0.00021645021645021645
sS'narrowed'
p4225
F0.00021645021645021645
sS'walnut'
p4226
F0.00064935064935064935
sS'undergraduate'
p4227
F0.00021645021645021645
sS'pouring'
p4228
F0.00021645021645021645
sS'trunk'
p4229
F0.00021645021645021645
sS'exposure'
p4230
F0.0004329004329004329
sS'estimating'
p4231
F0.00021645021645021645
sS'addition'
p4232
F0.0019480519480519481
sS'decent'
p4233
F0.0004329004329004329
sS'hunters'
p4234
F0.00021645021645021645
sS'trademark'
p4235
F0.0004329004329004329
sS'copies'
p4236
F0.0008658008658008658
sS'shame'
p4237
F0.00021645021645021645
sS'liberals'
p4238
F0.00021645021645021645
sS'agreements'
p4239
F0.00064935064935064935
sS'frighten'
p4240
F0.00021645021645021645
sS'qualify'
p4241
F0.00021645021645021645
sS'degrees'
p4242
F0.0004329004329004329
sS'proposal'
p4243
F0.0004329004329004329
sS'recurring'
p4244
F0.00021645021645021645
sS'killed'
p4245
F0.00064935064935064935
sS'define'
p4246
F0.00021645021645021645
sS'mike'
p4247
F0.008658008658008658
sS'contribute'
p4248
F0.00021645021645021645
sS'general'
p4249
F0.0008658008658008658
sS'finishes'
p4250
F0.00021645021645021645
sS'foes'
p4251
F0.00021645021645021645
sS'deer'
p4252
F0.0058441558441558444
sS'cypress'
p4253
F0.00064935064935064935
sS'hob'
p4254
F0.00021645021645021645
sS'protect'
p4255
F0.00021645021645021645
sS'controller'
p4256
F0.0004329004329004329
sS'tenderly'
p4257
F0.0004329004329004329
sS'tense'
p4258
F0.00021645021645021645
sS'ours'
p4259
F0.00064935064935064935
sS'improved'
p4260
F0.0004329004329004329
sS'an'
p4261
F0.028787878787878789
sS'present'
p4262
F0.0004329004329004329
sS'reverse'
p4263
F0.0004329004329004329
sS'homes'
p4264
F0.00021645021645021645
sS'cypher'
p4265
F0.00021645021645021645
sS'abandoned'
p4266
F0.00021645021645021645
sS'unlike'
p4267
F0.00021645021645021645
sS'virtual'
p4268
F0.00021645021645021645
sS'plain'
p4269
F0.0004329004329004329
sS'runway'
p4270
F0.00021645021645021645
sS'appearance'
p4271
F0.00021645021645021645
sS'boardwalk'
p4272
F0.00021645021645021645
sS'value'
p4273
F0.0036796536796536799
sS'will'
p4274
F0.088744588744588751
sS'ar'
p4275
F0.00021645021645021645
sS'bounds'
p4276
F0.00021645021645021645
sS'fault'
p4277
F0.00064935064935064935
sS'wild'
p4278
F0.0004329004329004329
sS'deductible'
p4279
F0.00021645021645021645
sS'hydrocarbon'
p4280
F0.00021645021645021645
sS'originator'
p4281
F0.0004329004329004329
sS'uncertainty'
p4282
F0.00021645021645021645
sS'manually'
p4283
F0.0004329004329004329
sS'almost'
p4284
F0.0010822510822510823
sS'murphy'
p4285
F0.0004329004329004329
sS'thus'
p4286
F0.0004329004329004329
sS'site'
p4287
F0.0017316017316017316
sS'clearly'
p4288
F0.00021645021645021645
sS'helped'
p4289
F0.0004329004329004329
sS'optimistic'
p4290
F0.00021645021645021645
sS'lifetime'
p4291
F0.00021645021645021645
sS'partner'
p4292
F0.0012987012987012987
sS'whore'
p4293
F0.00021645021645021645
sS'halt'
p4294
F0.00021645021645021645
sS'stands'
p4295
F0.0004329004329004329
sS'capture'
p4296
F0.0015151515151515152
sS'perhaps'
p4297
F0.00021645021645021645
sS'discipline'
p4298
F0.00021645021645021645
sS'began'
p4299
F0.00064935064935064935
sS'administration'
p4300
F0.00021645021645021645
sS'cross'
p4301
F0.0036796536796536799
sS'member'
p4302
F0.0010822510822510823
sS'unity'
p4303
F0.00021645021645021645
sS'parts'
p4304
F0.00064935064935064935
sS'speaker'
p4305
F0.00021645021645021645
sS'flower'
p4306
F0.00021645021645021645
sS'units'
p4307
F0.00021645021645021645
sS'party'
p4308
F0.0030303030303030303
sS'negotiate'
p4309
F0.00021645021645021645
sS'gets'
p4310
F0.0019480519480519481
sS'solution'
p4311
F0.00021645021645021645
sS'privileged'
p4312
F0.0021645021645021645
sS'difficult'
p4313
F0.0008658008658008658
sS'ball'
p4314
F0.0008658008658008658
sS'slightly'
p4315
F0.00021645021645021645
sS'forfeit'
p4316
F0.00021645021645021645
sS'logic'
p4317
F0.0017316017316017316
sS'disagree'
p4318
F0.0015151515151515152
sS'functions'
p4319
F0.0008658008658008658
sS'nightly'
p4320
F0.0004329004329004329
sS'padres'
p4321
F0.00021645021645021645
sS'student'
p4322
F0.0023809523809523812
sS'lobby'
p4323
F0.0004329004329004329
sS'insure'
p4324
F0.0004329004329004329
sS'transaction'
p4325
F0.0012987012987012987
sS'off'
p4326
F0.0051948051948051948
sS'center'
p4327
F0.0010822510822510823
sS'lunch'
p4328
F0.0019480519480519481
sS'shotgun'
p4329
F0.00064935064935064935
sS'well'
p4330
F0.0058441558441558444
sS'banging'
p4331
F0.00021645021645021645
sS'fighting'
p4332
F0.00064935064935064935
sS'southeastern'
p4333
F0.00021645021645021645
sS'thought'
p4334
F0.0056277056277056281
sS'oops'
p4335
F0.00021645021645021645
sS'english'
p4336
F0.0004329004329004329
sS'position'
p4337
F0.0051948051948051948
sS'breaker'
p4338
F0.0008658008658008658
sS'sensing'
p4339
F0.00021645021645021645
sS'usual'
p4340
F0.00064935064935064935
sS'advertises'
p4341
F0.00021645021645021645
sS'load'
p4342
F0.0021645021645021645
sS'swinney'
p4343
F0.0010822510822510823
sS'stores'
p4344
F0.00021645021645021645
sS'less'
p4345
F0.0015151515151515152
sS'savannah'
p4346
F0.00021645021645021645
sS'oak'
p4347
F0.0004329004329004329
sS'accurate'
p4348
F0.0008658008658008658
sS'executive'
p4349
F0.0004329004329004329
sS'domestic'
p4350
F0.0004329004329004329
sS'yesterdays'
p4351
F0.00021645021645021645
sS'storey'
p4352
F0.0010822510822510823
sS'faxing'
p4353
F0.00021645021645021645
sS'batteries'
p4354
F0.00021645021645021645
sS'mistakes'
p4355
F0.00064935064935064935
sS'rooms'
p4356
F0.0019480519480519481
sS'seats'
p4357
F0.0004329004329004329
sS'rotation'
p4358
F0.00021645021645021645
sS'happiness'
p4359
F0.00021645021645021645
sS'mysterious'
p4360
F0.0004329004329004329
sS'web'
p4361
F0.0021645021645021645
sS'generous'
p4362
F0.0004329004329004329
sS'republican'
p4363
F0.00021645021645021645
sS'lures'
p4364
F0.00021645021645021645
sS'farther'
p4365
F0.00021645021645021645
sS'panther'
p4366
F0.0012987012987012987
sS'supply'
p4367
F0.00064935064935064935
sS'logged'
p4368
F0.00021645021645021645
sS'lake'
p4369
F0.0019480519480519481
sS'capabilities'
p4370
F0.00021645021645021645
sS'hall'
p4371
F0.0010822510822510823
sS'simple'
p4372
F0.00064935064935064935
sS'add'
p4373
F0.0047619047619047623
sS'book'
p4374
F0.019913419913419914
sS'attractive'
p4375
F0.00064935064935064935
sS'citizen'
p4376
F0.0004329004329004329
sS'destroy'
p4377
F0.00021645021645021645
sS'smart'
p4378
F0.00021645021645021645
sS'ski'
p4379
F0.00064935064935064935
sS'match'
p4380
F0.0019480519480519481
sS'divided'
p4381
F0.00021645021645021645
sS'resolved'
p4382
F0.0010822510822510823
sS'disappointed'
p4383
F0.00021645021645021645
sS'increased'
p4384
F0.00064935064935064935
sS'fate'
p4385
F0.0004329004329004329
sS'worlds'
p4386
F0.00021645021645021645
sS'suggestions'
p4387
F0.00021645021645021645
sS'pants'
p4388
F0.0004329004329004329
sS'increases'
p4389
F0.00021645021645021645
sS'five'
p4390
F0.0028138528138528141
sS'know'
p4391
F0.041125541125541128
sS'desk'
p4392
F0.014718614718614719
sS'press'
p4393
F0.00021645021645021645
sS'immediately'
p4394
F0.0030303030303030303
sS'desperately'
p4395
F0.00021645021645021645
sS'password'
p4396
F0.0015151515151515152
sS'thrill'
p4397
F0.00021645021645021645
sS'insert'
p4398
F0.00021645021645021645
sS'showing'
p4399
F0.0008658008658008658
sS'like'
p4400
F0.024891774891774892
sS'lost'
p4401
F0.00064935064935064935
sS'chairs'
p4402
F0.0004329004329004329
sS'sofa'
p4403
F0.00021645021645021645
sS'loser'
p4404
F0.00021645021645021645
sS'sager'
p4405
F0.00064935064935064935
sS'conceptualize'
p4406
F0.00021645021645021645
sS'edit'
p4407
F0.00021645021645021645
sS'heed'
p4408
F0.0004329004329004329
sS'martin'
p4409
F0.004329004329004329
sS'become'
p4410
F0.0010822510822510823
sS'works'
p4411
F0.0025974025974025974
sS'soft'
p4412
F0.00064935064935064935
sS'page'
p4413
F0.0015151515151515152
sS'replacement'
p4414
F0.0004329004329004329
sS'amendment'
p4415
F0.0004329004329004329
sS'gaining'
p4416
F0.00021645021645021645
sS'because'
p4417
F0.0095238095238095247
sS'liquidation'
p4418
F0.0073593073593073597
sS'scared'
p4419
F0.0004329004329004329
sS'authority'
p4420
F0.00021645021645021645
sS'hair'
p4421
F0.0004329004329004329
sS'wider'
p4422
F0.00021645021645021645
sS'daylight'
p4423
F0.0004329004329004329
sS'phosphoric'
p4424
F0.00021645021645021645
sS'export'
p4425
F0.0004329004329004329
sS'shes'
p4426
F0.00021645021645021645
sS'flush'
p4427
F0.00021645021645021645
sS'proper'
p4428
F0.0004329004329004329
sS'home'
p4429
F0.0030303030303030303
sS'peter'
p4430
F0.00064935064935064935
sS'ballot'
p4431
F0.0030303030303030303
sS'transport'
p4432
F0.0069264069264069264
sS'disrupting'
p4433
F0.00021645021645021645
sS'happens'
p4434
F0.0015151515151515152
sS'contested'
p4435
F0.0010822510822510823
sS'leaf'
p4436
F0.00021645021645021645
sS'lead'
p4437
F0.0028138528138528141
sS'overlay'
p4438
F0.0004329004329004329
sS'fullback'
p4439
F0.0004329004329004329
sS'broad'
p4440
F0.00021645021645021645
sS'avoid'
p4441
F0.0004329004329004329
sS'academies'
p4442
F0.00021645021645021645
sS'lean'
p4443
F0.00064935064935064935
sS'philosopher'
p4444
F0.00021645021645021645
sS'detergent'
p4445
F0.00021645021645021645
sS'does'
p4446
F0.010822510822510822
sS'passion'
p4447
F0.0004329004329004329
sS'economical'
p4448
F0.00021645021645021645
sS'assuming'
p4449
F0.00021645021645021645
sS'reimbursements'
p4450
F0.0004329004329004329
sS'speak'
p4451
F0.0004329004329004329
sS'leader'
p4452
F0.0004329004329004329
sS'locate'
p4453
F0.00064935064935064935
sS'conference'
p4454
F0.00021645021645021645
sS'pepper'
p4455
F0.0004329004329004329
sS'obey'
p4456
F0.00021645021645021645
sS'slight'
p4457
F0.0015151515151515152
sS'selecting'
p4458
F0.00021645021645021645
sS'journal'
p4459
F0.00021645021645021645
sS'rock'
p4460
F0.00021645021645021645
sS'crossing'
p4461
F0.0010822510822510823
sS'host'
p4462
F0.00021645021645021645
sS'prohibited'
p4463
F0.00064935064935064935
sS'although'
p4464
F0.00064935064935064935
sS'offset'
p4465
F0.0015151515151515152
sS'described'
p4466
F0.0004329004329004329
sS'paste'
p4467
F0.00021645021645021645
sS'stage'
p4468
F0.00064935064935064935
sS'jam'
p4469
F0.00021645021645021645
sS'about'
p4470
F0.029437229437229439
sS'turner'
p4471
F0.0004329004329004329
sS'actual'
p4472
F0.0025974025974025974
sS'scroll'
p4473
F0.00021645021645021645
sS'extension'
p4474
F0.00021645021645021645
sS'getting'
p4475
F0.005411255411255411
sS'column'
p4476
F0.0012987012987012987
sS'freedom'
p4477
F0.0008658008658008658
sS'spilled'
p4478
F0.00021645021645021645
sS'foil'
p4479
F0.00064935064935064935
sS'headed'
p4480
F0.0008658008658008658
sS'compatible'
p4481
F0.00021645021645021645
sS'holdings'
p4482
F0.0004329004329004329
sS'carries'
p4483
F0.00021645021645021645
sS'statement'
p4484
F0.0004329004329004329
sS'puppies'
p4485
F0.00021645021645021645
sS'tongue'
p4486
F0.00021645021645021645
sS'constraints'
p4487
F0.00021645021645021645
sS'spiller'
p4488
F0.0004329004329004329
sS'revise'
p4489
F0.0008658008658008658
sS'software'
p4490
F0.00064935064935064935
sS'desires'
p4491
F0.00021645021645021645
sS'liable'
p4492
F0.0004329004329004329
sS'own'
p4493
F0.0045454545454545452
sS'faithfulness'
p4494
F0.00021645021645021645
sS'owe'
p4495
F0.0008658008658008658
sS'political'
p4496
F0.00021645021645021645
sS'washington'
p4497
F0.00064935064935064935
sS'actualized'
p4498
F0.0004329004329004329
sS'referendum'
p4499
F0.0004329004329004329
sS'tackle'
p4500
F0.00021645021645021645
sS'guard'
p4501
F0.00021645021645021645
sS'weather'
p4502
F0.0019480519480519481
sS'promise'
p4503
F0.00021645021645021645
sS'brush'
p4504
F0.00021645021645021645
sS'fish'
p4505
F0.0004329004329004329
sS'roads'
p4506
F0.00064935064935064935
sS'drafting'
p4507
F0.0004329004329004329
sS'mere'
p4508
F0.00021645021645021645
sS'utility'
p4509
F0.00021645021645021645
sS'stocks'
p4510
F0.00021645021645021645
sS'additional'
p4511
F0.0025974025974025974
sS'commission'
p4512
F0.00021645021645021645
sS'grapevine'
p4513
F0.00021645021645021645
sS'transfer'
p4514
F0.0008658008658008658
sS'buckle'
p4515
F0.00021645021645021645
sS'spots'
p4516
F0.00021645021645021645
sS'kidding'
p4517
F0.00021645021645021645
sS'continental'
p4518
F0.0004329004329004329
sS'announcements'
p4519
F0.00021645021645021645
sS'much'
p4520
F0.0056277056277056281
sS'slang'
p4521
F0.0004329004329004329
sS'frustration'
p4522
F0.0004329004329004329
sS'inspiration'
p4523
F0.00021645021645021645
sS'function'
p4524
F0.0004329004329004329
sS'ivory'
p4525
F0.00021645021645021645
sS'buy'
p4526
F0.0008658008658008658
sS'north'
p4527
F0.01038961038961039
sS'stadium'
p4528
F0.00021645021645021645
sS'pressed'
p4529
F0.00021645021645021645
sS'funds'
p4530
F0.00021645021645021645
sS'brand'
p4531
F0.0004329004329004329
sS'but'
p4532
F0.023809523809523808
sS'administrators'
p4533
F0.00021645021645021645
sS'shields'
p4534
F0.00021645021645021645
sS'hi'
p4535
F0.0021645021645021645
sS'mailed'
p4536
F0.00021645021645021645
sS'goals'
p4537
F0.0004329004329004329
sS'remote'
p4538
F0.0004329004329004329
sS'brant'
p4539
F0.0023809523809523812
sS'ha'
p4540
F0.0008658008658008658
sS'eat'
p4541
F0.0008658008658008658
sS'bud'
p4542
F0.0010822510822510823
sS'he'
p4543
F0.035281385281385282
sS'count'
p4544
F0.0064935064935064939
sS'misty'
p4545
F0.0004329004329004329
sS'made'
p4546
F0.004329004329004329
sS'wise'
p4547
F0.00064935064935064935
sS'places'
p4548
F0.00021645021645021645
sS'annuities'
p4549
F0.00021645021645021645
sS'whether'
p4550
F0.0017316017316017316
sS'wish'
p4551
F0.0015151515151515152
sS'cells'
p4552
F0.0008658008658008658
sS'official'
p4553
F0.0010822510822510823
sS'smooth'
p4554
F0.00021645021645021645
sS'flip'
p4555
F0.0019480519480519481
sS'signed'
p4556
F0.00021645021645021645
sS'whoa'
p4557
F0.0004329004329004329
sS'trademarks'
p4558
F0.00021645021645021645
sS'placed'
p4559
F0.0017316017316017316
sS'below'
p4560
F0.0025974025974025974
sS'converted'
p4561
F0.00021645021645021645
sS'limit'
p4562
F0.00021645021645021645
sS'pumped'
p4563
F0.00021645021645021645
sS'inquired'
p4564
F0.00021645021645021645
sS'problem'
p4565
F0.0056277056277056281
sS'piece'
p4566
F0.00064935064935064935
sS'minutes'
p4567
F0.0023809523809523812
sS'display'
p4568
F0.00021645021645021645
sS'urging'
p4569
F0.0004329004329004329
sS'supreme'
p4570
F0.00021645021645021645
sS'jenny'
p4571
F0.0015151515151515152
sS'pin'
p4572
F0.00021645021645021645
sS'recognize'
p4573
F0.0004329004329004329
sS'penny'
p4574
F0.0004329004329004329
sS'kisses'
p4575
F0.00021645021645021645
sS'owner'
p4576
F0.00021645021645021645
sS'inn'
p4577
F0.00021645021645021645
sS'relates'
p4578
F0.0008658008658008658
sS'partly'
p4579
F0.0015151515151515152
sS'shooting'
p4580
F0.0010822510822510823
sS'pit'
p4581
F0.00021645021645021645
sS'happen'
p4582
F0.00064935064935064935
sS'jesse'
p4583
F0.00021645021645021645
sS'diplomat'
p4584
F0.00021645021645021645
sS'rumors'
p4585
F0.00021645021645021645
sS'incredible'
p4586
F0.00021645021645021645
sS'corporation'
p4587
F0.0038961038961038961
sS'silenced'
p4588
F0.00021645021645021645
sS'percent'
p4589
F0.0004329004329004329
sS'detail'
p4590
F0.0038961038961038961
sS'immobilized'
p4591
F0.00021645021645021645
sS'assessors'
p4592
F0.00021645021645021645
sS'other'
p4593
F0.016450216450216451
sS'details'
p4594
F0.0023809523809523812
sS'sick'
p4595
F0.00064935064935064935
sS'mass'
p4596
F0.00021645021645021645
sS'concerning'
p4597
F0.00021645021645021645
sS'contacting'
p4598
F0.00021645021645021645
sS'nelson'
p4599
F0.00021645021645021645
sS'repeat'
p4600
F0.00021645021645021645
sS'kinds'
p4601
F0.00021645021645021645
sS'class'
p4602
F0.003246753246753247
sS'bundle'
p4603
F0.00021645021645021645
sS'stay'
p4604
F0.0017316017316017316
sS'alright'
p4605
F0.00021645021645021645
sS'chance'
p4606
F0.0028138528138528141
sS'accomplish'
p4607
F0.0004329004329004329
sS'animosity'
p4608
F0.00021645021645021645
sS'priced'
p4609
F0.0012987012987012987
sS'friends'
p4610
F0.0036796536796536799
sS'incurred'
p4611
F0.00021645021645021645
sS'opened'
p4612
F0.00021645021645021645
sS'resolution'
p4613
F0.00021645021645021645
sS'baker'
p4614
F0.00021645021645021645
sS'space'
p4615
F0.00021645021645021645
sS'rule'
p4616
F0.00021645021645021645
sS'strings'
p4617
F0.00021645021645021645
sS'rigging'
p4618
F0.00021645021645021645
sS'portion'
p4619
F0.0004329004329004329
sS'volumes'
p4620
F0.00021645021645021645
sS'understand'
p4621
F0.0012987012987012987
s.