(dp1
S'and'
p2
F0.012178619756427604
sS'that'
p3
F0.010374379792512404
sS'this'
p4
F0.0067658998646820028
sS'mean_word_length'
p5
F3.8644688644688645
sS'sentence_standard_deviation'
p6
F43.250961592435857
sS'however'
p7
F0.00045105999097880018
sS'but'
p8
F0.0022552999548940008
sS'very'
p9
F0
sS'must'
p10
F0.00090211998195760036
sS'type_token_ratio'
p11
F0.78496614742424342
sS'if'
p12
F0.0040595399188092015
sS'might'
p13
F0
sS'mean_sentence_length'
p14
F32.110526315789471
sS'more'
p15
F0.0013531799729364006
s.