(dp1
S'all'
p2
F0.019769357495881382
sS'managed'
p3
F0.0016474464579901153
sS'consider'
p4
F0.0049423393739703456
sS'lack'
p5
F0.0032948929159802307
sS'month'
p6
F0.0032948929159802307
sS'laura'
p7
F0.0032948929159802307
sS'manager'
p8
F0.0016474464579901153
sS'deadline'
p9
F0.0016474464579901153
sS'hanging'
p10
F0.0016474464579901153
sS'go'
p11
F0.0065897858319604614
sS'follow'
p12
F0.0016474464579901153
sS'forget'
p13
F0.0016474464579901153
sS'certainly'
p14
F0.0032948929159802307
sS'send'
p15
F0.0098846787479406912
sS'to'
p16
F0.2372322899505766
sS'finally'
p17
F0.0032948929159802307
sS'does'
p18
F0.0032948929159802307
sS'sorry'
p19
F0.0032948929159802307
sS'presentation'
p20
F0.0065897858319604614
sS'worth'
p21
F0.0016474464579901153
sS'sent'
p22
F0.0065897858319604614
sS'customer'
p23
F0.0032948929159802307
sS'lure'
p24
F0.0049423393739703456
sS'sitting'
p25
F0.0049423393739703456
sS'far'
p26
F0.0049423393739703456
sS'kitty'
p27
F0.0016474464579901153
sS'dell'
p28
F0.0032948929159802307
sS'every'
p29
F0.0065897858319604614
sS'blast'
p30
F0.0016474464579901153
sS'treating'
p31
F0.0016474464579901153
sS'did'
p32
F0.0065897858319604614
sS'button'
p33
F0.0016474464579901153
sS'wednesday'
p34
F0.0032948929159802307
sS'try'
p35
F0.0032948929159802307
sS'quick'
p36
F0.0016474464579901153
sS'enjoy'
p37
F0.0032948929159802307
sS'work'
p38
F0.0082372322899505763
sS'direct'
p39
F0.0016474464579901153
sS'second'
p40
F0.0065897858319604614
sS'attended'
p41
F0.0032948929159802307
sS'choices'
p42
F0.0016474464579901153
sS'click'
p43
F0.0032948929159802307
sS'even'
p44
F0.0049423393739703456
sS'will'
p45
F0.018121911037891267
sS'what'
p46
F0.0098846787479406912
sS'sub'
p47
F0.0016474464579901153
sS'near'
p48
F0.0016474464579901153
sS'access'
p49
F0.0082372322899505763
sS'lights'
p50
F0.0016474464579901153
sS'waiting'
p51
F0.0049423393739703456
sS'new'
p52
F0.014827018121911038
sS'officially'
p53
F0.0032948929159802307
sS'public'
p54
F0.0065897858319604614
sS'filled'
p55
F0.0016474464579901153
sS'told'
p56
F0.0016474464579901153
sS'never'
p57
F0.0016474464579901153
sS'here'
p58
F0.0016474464579901153
sS'hours'
p59
F0.0016474464579901153
sS'packing'
p60
F0.0016474464579901153
sS'upgrade'
p61
F0.0032948929159802307
sS'let'
p62
F0.0098846787479406912
sS'address'
p63
F0.0032948929159802307
sS'along'
p64
F0.0016474464579901153
sS'box'
p65
F0.0016474464579901153
sS'sending'
p66
F0.0016474464579901153
sS'great'
p67
F0.0032948929159802307
sS'receive'
p68
F0.0032948929159802307
sS'employees'
p69
F0.0065897858319604614
sS'allows'
p70
F0.0032948929159802307
sS'products'
p71
F0.0016474464579901153
sS'settled'
p72
F0.0016474464579901153
sS'via'
p73
F0.0032948929159802307
sS'love'
p74
F0.0016474464579901153
sS'secure'
p75
F0.0016474464579901153
sS'family'
p76
F0.0016474464579901153
sS'extra'
p77
F0.0032948929159802307
sS'market'
p78
F0.0016474464579901153
sS'use'
p79
F0.0049423393739703456
sS'from'
p80
F0.046128500823723231
sS'would'
p81
F0.023064250411861616
sS'visit'
p82
F0.011532125205930808
sS'two'
p83
F0.0065897858319604614
sS'next'
p84
F0.018121911037891267
sS'few'
p85
F0.0032948929159802307
sS'live'
p86
F0.0032948929159802307
sS'program'
p87
F0.0032948929159802307
sS'call'
p88
F0.0016474464579901153
sS'therefore'
p89
F0.0016474464579901153
sS'taken'
p90
F0.0016474464579901153
sS'type'
p91
F0.0016474464579901153
sS'tell'
p92
F0.0049423393739703456
sS'more'
p93
F0.0098846787479406912
sS'almost'
p94
F0.0016474464579901153
sS'flying'
p95
F0.0016474464579901153
sS'corrected'
p96
F0.0016474464579901153
sS'yahoo'
p97
F0.0098846787479406912
sS'clue'
p98
F0.0016474464579901153
sS'phone'
p99
F0.0065897858319604614
sS'stick'
p100
F0.0016474464579901153
sS'known'
p101
F0.0032948929159802307
sS'ward'
p102
F0.0016474464579901153
sS'document'
p103
F0.0016474464579901153
sS'must'
p104
F0.0032948929159802307
sS'me'
p105
F0.03130148270181219
sS'deserved'
p106
F0.0016474464579901153
sS'rights'
p107
F0.0016474464579901153
sS'this'
p108
F0.036243822075782535
sS'getting'
p109
F0.0049423393739703456
sS'decker'
p110
F0.0016474464579901153
sS'my'
p111
F0.032948929159802305
sS'example'
p112
F0.0032948929159802307
sS'figure'
p113
F0.0032948929159802307
sS'give'
p114
F0.0032948929159802307
sS'household'
p115
F0.0016474464579901153
sS'organized'
p116
F0.0032948929159802307
sS'accept'
p117
F0.0016474464579901153
sS'high'
p118
F0.0098846787479406912
sS'heard'
p119
F0.0032948929159802307
sS'something'
p120
F0.0016474464579901153
sS'want'
p121
F0.0016474464579901153
sS'information'
p122
F0.0016474464579901153
sS'winter'
p123
F0.0016474464579901153
sS'provide'
p124
F0.0032948929159802307
sS'verify'
p125
F0.0016474464579901153
sS'nuts'
p126
F0.0016474464579901153
sS'write'
p127
F0.0049423393739703456
sS'how'
p128
F0.0016474464579901153
sS'answer'
p129
F0.0016474464579901153
sS'charging'
p130
F0.0016474464579901153
sS'stock'
p131
F0.0016474464579901153
sS'staying'
p132
F0.0016474464579901153
sS'okay'
p133
F0.0016474464579901153
sS'explorer'
p134
F0.0016474464579901153
sS'blotter'
p135
F0.0016474464579901153
sS'may'
p136
F0.0049423393739703456
sS'after'
p137
F0.0065897858319604614
sS'customs'
p138
F0.0016474464579901153
sS'notebook'
p139
F0.0016474464579901153
sS'coming'
p140
F0.0016474464579901153
sS'date'
p141
F0.0049423393739703456
sS'guys'
p142
F0.0049423393739703456
sS'short'
p143
F0.0016474464579901153
sS'natural'
p144
F0.0032948929159802307
sS'remember'
p145
F0.0049423393739703456
sS'appreciate'
p146
F0.0049423393739703456
sS'departure'
p147
F0.0065897858319604614
sS'anytime'
p148
F0.0032948929159802307
sS'so'
p149
F0.016474464579901153
sS'enter'
p150
F0.0016474464579901153
sS'taking'
p151
F0.0016474464579901153
sS'order'
p152
F0.0016474464579901153
sS'talk'
p153
F0.0082372322899505763
sS'office'
p154
F0.0016474464579901153
sS'over'
p155
F0.0016474464579901153
sS'move'
p156
F0.011532125205930808
sS'displayed'
p157
F0.0016474464579901153
sS'trade'
p158
F0.0016474464579901153
sS'resorts'
p159
F0.0016474464579901153
sS'through'
p160
F0.0016474464579901153
sS'looks'
p161
F0.011532125205930808
sS'left'
p162
F0.0016474464579901153
sS'mentioned'
p163
F0.0049423393739703456
sS'cold'
p164
F0.0016474464579901153
sS'still'
p165
F0.0032948929159802307
sS'its'
p166
F0.011532125205930808
sS'before'
p167
F0.0065897858319604614
sS'traders'
p168
F0.0016474464579901153
sS'thank'
p169
F0.0049423393739703456
sS'personal'
p170
F0.0016474464579901153
sS'backpack'
p171
F0.0016474464579901153
sS'tori'
p172
F0.0032948929159802307
sS'better'
p173
F0.0049423393739703456
sS'resort'
p174
F0.0016474464579901153
sS'window'
p175
F0.0016474464579901153
sS'offers'
p176
F0.0016474464579901153
sS'weeks'
p177
F0.0049423393739703456
sS'main'
p178
F0.0016474464579901153
sS'into'
p179
F0.0049423393739703456
sS'weber'
p180
F0.0016474464579901153
sS'tickets'
p181
F0.0016474464579901153
sS'them'
p182
F0.0032948929159802307
sS'good'
p183
F0.013179571663920923
sS'outlined'
p184
F0.0016474464579901153
sS'hunter'
p185
F0.013179571663920923
sS'mention'
p186
F0.0032948929159802307
sS'cutting'
p187
F0.0032948929159802307
sS'they'
p188
F0.0049423393739703456
sS'not'
p189
F0.021416803953871501
sS'now'
p190
F0.0098846787479406912
sS'tourism'
p191
F0.0049423393739703456
sS'day'
p192
F0.0065897858319604614
sS'gets'
p193
F0.0016474464579901153
sS'name'
p194
F0.0016474464579901153
sS'always'
p195
F0.0049423393739703456
sS'refresh'
p196
F0.0016474464579901153
sS'monsoon'
p197
F0.0016474464579901153
sS'went'
p198
F0.0049423393739703456
sS'side'
p199
F0.0016474464579901153
sS'mean'
p200
F0.0032948929159802307
sS'needless'
p201
F0.0016474464579901153
sS'hard'
p202
F0.0016474464579901153
sS'unbelievable'
p203
F0.0049423393739703456
sS'trading'
p204
F0.0049423393739703456
sS'laundry'
p205
F0.0016474464579901153
sS'sounds'
p206
F0.0082372322899505763
sS'out'
p207
F0.0065897858319604614
sS'leave'
p208
F0.0016474464579901153
sS'matt'
p209
F0.0016474464579901153
sS'forwarding'
p210
F0.0016474464579901153
sS'frontier'
p211
F0.013179571663920923
sS'miss'
p212
F0.0016474464579901153
sS'since'
p213
F0.0065897858319604614
sS'looking'
p214
F0.0065897858319604614
sS're'
p215
F0.0082372322899505763
sS'messenger'
p216
F0.0016474464579901153
sS'dutch'
p217
F0.0065897858319604614
sS'got'
p218
F0.016474464579901153
sS'shows'
p219
F0.0016474464579901153
sS'working'
p220
F0.0049423393739703456
sS'frank'
p221
F0.0032948929159802307
sS'given'
p222
F0.0032948929159802307
sS'free'
p223
F0.0016474464579901153
sS'quite'
p224
F0.0016474464579901153
sS'completely'
p225
F0.0032948929159802307
sS'members'
p226
F0.0016474464579901153
sS'imagine'
p227
F0.0016474464579901153
sS'wanted'
p228
F0.0049423393739703456
sS'care'
p229
F0.0032948929159802307
sS'launch'
p230
F0.0032948929159802307
sS'could'
p231
F0.0049423393739703456
sS'messages'
p232
F0.0082372322899505763
sS'days'
p233
F0.0016474464579901153
sS'keep'
p234
F0.0016474464579901153
sS'heck'
p235
F0.0016474464579901153
sS'place'
p236
F0.0032948929159802307
sS'invitation'
p237
F0.0016474464579901153
sS'think'
p238
F0.0065897858319604614
sS'south'
p239
F0.0016474464579901153
sS'first'
p240
F0.0098846787479406912
sS'already'
p241
F0.0016474464579901153
sS'feel'
p242
F0.0016474464579901153
sS'number'
p243
F0.0049423393739703456
sS'one'
p244
F0.0082372322899505763
sS'centrals'
p245
F0.0032948929159802307
sS'blank'
p246
F0.0016474464579901153
sS'owner'
p247
F0.0016474464579901153
sS'impossible'
p248
F0.0032948929159802307
sS'message'
p249
F0.021416803953871501
sS'weds'
p250
F0.0016474464579901153
sS'open'
p251
F0.0016474464579901153
sS'tomorrow'
p252
F0.0032948929159802307
sS'awfully'
p253
F0.0016474464579901153
sS'city'
p254
F0.0016474464579901153
sS'guess'
p255
F0.0016474464579901153
sS'unknown'
p256
F0.0032948929159802307
sS'their'
p257
F0.0049423393739703456
sS'storm'
p258
F0.0016474464579901153
sS'tom'
p259
F0.0032948929159802307
sS'white'
p260
F0.0016474464579901153
sS'john'
p261
F0.019769357495881382
sS'selling'
p262
F0.0016474464579901153
sS'hub'
p263
F0.0032948929159802307
sS'that'
p264
F0.047775947281713346
sS'season'
p265
F0.0016474464579901153
sS'took'
p266
F0.0049423393739703456
sS'jane'
p267
F0.0032948929159802307
sS'luckily'
p268
F0.0032948929159802307
sS'part'
p269
F0.0032948929159802307
sS'western'
p270
F0.0082372322899505763
sS'corresponded'
p271
F0.0016474464579901153
sS'postcards'
p272
F0.0032948929159802307
sS'than'
p273
F0.0082372322899505763
sS'king'
p274
F0.0032948929159802307
sS'kind'
p275
F0.0016474464579901153
sS'future'
p276
F0.0016474464579901153
sS'were'
p277
F0.0098846787479406912
sS'providing'
p278
F0.0016474464579901153
sS'and'
p279
F0.06589785831960461
sS'delay'
p280
F0.0016474464579901153
sS'boston'
p281
F0.0032948929159802307
sS'spelled'
p282
F0.0016474464579901153
sS'biggest'
p283
F0.0016474464579901153
sS'say'
p284
F0.0082372322899505763
sS'have'
p285
F0.03130148270181219
sS'need'
p286
F0.0049423393739703456
sS'seen'
p287
F0.0016474464579901153
sS'breakfast'
p288
F0.0032948929159802307
sS'apparently'
p289
F0.0016474464579901153
sS'any'
p290
F0.0065897858319604614
sS'snow'
p291
F0.0032948929159802307
sS'note'
p292
F0.011532125205930808
sS'also'
p293
F0.0032948929159802307
sS'internal'
p294
F0.0016474464579901153
sS'concern'
p295
F0.0049423393739703456
sS'accuracy'
p296
F0.0016474464579901153
sS'surf'
p297
F0.0016474464579901153
sS'play'
p298
F0.0016474464579901153
sS'added'
p299
F0.0016474464579901153
sS'price'
p300
F0.0016474464579901153
sS'who'
p301
F0.0032948929159802307
sS'reach'
p302
F0.0032948929159802307
sS'victoria'
p303
F0.0032948929159802307
sS'intentions'
p304
F0.0016474464579901153
sS'plan'
p305
F0.013179571663920923
sS'letter'
p306
F0.0032948929159802307
sS'nothing'
p307
F0.0016474464579901153
sS'cleared'
p308
F0.0016474464579901153
sS'why'
p309
F0.0032948929159802307
sS'especially'
p310
F0.0016474464579901153
sS'proud'
p311
F0.0016474464579901153
sS'pipe'
p312
F0.0032948929159802307
sS'lots'
p313
F0.0016474464579901153
sS'fiasco'
p314
F0.0016474464579901153
sS'link'
p315
F0.0016474464579901153
sS'charged'
p316
F0.0016474464579901153
sS'purged'
p317
F0.0016474464579901153
sS'came'
p318
F0.0032948929159802307
sS'lewis'
p319
F0.0065897858319604614
sS'anyway'
p320
F0.0098846787479406912
sS'bring'
p321
F0.0016474464579901153
sS'bright'
p322
F0.0016474464579901153
sS'planning'
p323
F0.0049423393739703456
sS'data'
p324
F0.0016474464579901153
sS'find'
p325
F0.0049423393739703456
sS'cell'
p326
F0.0049423393739703456
sS'busy'
p327
F0.0049423393739703456
sS'proposed'
p328
F0.0032948929159802307
sS'jay'
p329
F0.0032948929159802307
sS'dick'
p330
F0.0032948929159802307
sS'should'
p331
F0.0016474464579901153
sS'only'
p332
F0.0016474464579901153
sS'going'
p333
F0.0082372322899505763
sS'pretty'
p334
F0.0032948929159802307
sS'hope'
p335
F0.0032948929159802307
sS'do'
p336
F0.0082372322899505763
sS'handle'
p337
F0.0016474464579901153
sS'get'
p338
F0.018121911037891267
sS'honda'
p339
F0.0016474464579901153
sS'during'
p340
F0.0049423393739703456
sS'awaiting'
p341
F0.0016474464579901153
sS'years'
p342
F0.0016474464579901153
sS'him'
p343
F0.0016474464579901153
sS'areas'
p344
F0.0016474464579901153
sS'course'
p345
F0.0032948929159802307
sS'married'
p346
F0.0016474464579901153
sS'remove'
p347
F0.0016474464579901153
sS'bad'
p348
F0.0016474464579901153
sS'she'
p349
F0.0082372322899505763
sS'where'
p350
F0.0032948929159802307
sS'wrote'
p351
F0.0016474464579901153
sS'rumored'
p352
F0.0016474464579901153
sS'available'
p353
F0.0032948929159802307
sS'set'
p354
F0.0032948929159802307
sS'reference'
p355
F0.013179571663920923
sS'testing'
p356
F0.0016474464579901153
sS'see'
p357
F0.0098846787479406912
sS'college'
p358
F0.0016474464579901153
sS'are'
p359
F0.019769357495881382
sS'close'
p360
F0.0016474464579901153
sS'calendar'
p361
F0.0032948929159802307
sS'best'
p362
F0.0016474464579901153
sS'subject'
p363
F0.044481054365733116
sS'said'
p364
F0.0049423393739703456
sS'managing'
p365
F0.0016474464579901153
sS'please'
p366
F0.0065897858319604614
sS'yet'
p367
F0.0016474464579901153
sS'enough'
p368
F0.0016474464579901153
sS'smallest'
p369
F0.0016474464579901153
sS'closed'
p370
F0.0016474464579901153
sS'probably'
p371
F0.0016474464579901153
sS'arrival'
p372
F0.0065897858319604614
sS'we'
p373
F0.0065897858319604614
sS'recently'
p374
F0.0016474464579901153
sS'however'
p375
F0.0016474464579901153
sS'job'
p376
F0.0032948929159802307
sS'joe'
p377
F0.0049423393739703456
sS'monitor'
p378
F0.0082372322899505763
sS'both'
p379
F0.0049423393739703456
sS'last'
p380
F0.0065897858319604614
sS'many'
p381
F0.0016474464579901153
sS'ill'
p382
F0.0082372322899505763
sS'adventures'
p383
F0.0032948929159802307
sS'minds'
p384
F0.0016474464579901153
sS'brad'
p385
F0.0032948929159802307
sS'whole'
p386
F0.0016474464579901153
sS'asked'
p387
F0.0016474464579901153
sS'riddle'
p388
F0.0016474464579901153
sS'vent'
p389
F0.0016474464579901153
sS'reasons'
p390
F0.0016474464579901153
sS'had'
p391
F0.0049423393739703456
sS'simply'
p392
F0.0016474464579901153
sS'upgrades'
p393
F0.0016474464579901153
sS'tony'
p394
F0.0016474464579901153
sS'considering'
p395
F0.0016474464579901153
sS'most'
p396
F0.0016474464579901153
sS'basis'
p397
F0.0016474464579901153
sS'west'
p398
F0.0016474464579901153
sS'three'
p399
F0.0016474464579901153
sS'cent'
p400
F0.0032948929159802307
sS'mark'
p401
F0.011532125205930808
sS'whom'
p402
F0.0049423393739703456
sS'much'
p403
F0.0016474464579901153
sS'sanders'
p404
F0.0016474464579901153
sS'mike'
p405
F0.0065897858319604614
sS'flight'
p406
F0.0032948929159802307
sS'relaxing'
p407
F0.0016474464579901153
sS'received'
p408
F0.016474464579901153
sS'am'
p409
F0.056013179571663921
sS'offered'
p410
F0.0049423393739703456
sS'gas'
p411
F0.013179571663920923
sS'lives'
p412
F0.0032948929159802307
sS'general'
p413
F0.0016474464579901153
sS'those'
p414
F0.0032948929159802307
sS'pilot'
p415
F0.0016474464579901153
sS'myself'
p416
F0.0032948929159802307
sS'look'
p417
F0.013179571663920923
sS'bill'
p418
F0.0032948929159802307
sS'easier'
p419
F0.0032948929159802307
sS'agas'
p420
F0.0032948929159802307
sS'while'
p421
F0.0016474464579901153
sS'itinerary'
p422
F0.0032948929159802307
sS'fun'
p423
F0.0016474464579901153
sS'robin'
p424
F0.0082372322899505763
sS'theres'
p425
F0.0016474464579901153
sS'troy'
p426
F0.0032948929159802307
sS'then'
p427
F0.0016474464579901153
sS'cents'
p428
F0.0032948929159802307
sS'is'
p429
F0.049423393739703461
sS'it'
p430
F0.057660626029654036
sS'cant'
p431
F0.0049423393739703456
sS'someone'
p432
F0.0032948929159802307
sS'presentations'
p433
F0.0032948929159802307
sS'in'
p434
F0.049423393739703461
sS'ready'
p435
F0.0016474464579901153
sS'technology'
p436
F0.0016474464579901153
sS'id'
p437
F0.0032948929159802307
sS'if'
p438
F0.023064250411861616
sS'funny'
p439
F0.0032948929159802307
sS'different'
p440
F0.0049423393739703456
sS'anymore'
p441
F0.0016474464579901153
sS'perhaps'
p442
F0.0032948929159802307
sS'make'
p443
F0.0032948929159802307
sS'same'
p444
F0.0032948929159802307
sS'check'
p445
F0.0082372322899505763
sS'several'
p446
F0.0016474464579901153
sS'workout'
p447
F0.0016474464579901153
sS'week'
p448
F0.0049423393739703456
sS'holidays'
p449
F0.0032948929159802307
sS'viewing'
p450
F0.0016474464579901153
sS'moving'
p451
F0.0016474464579901153
sS'user'
p452
F0.0016474464579901153
sS'recent'
p453
F0.0016474464579901153
sS'costa'
p454
F0.0016474464579901153
sS'lower'
p455
F0.0016474464579901153
sS'off'
p456
F0.0049423393739703456
sS'makes'
p457
F0.0016474464579901153
sS'no'
p458
F0.0032948929159802307
sS'well'
p459
F0.0016474464579901153
sS'thought'
p460
F0.0065897858319604614
sS'contact'
p461
F0.0016474464579901153
sS'very'
p462
F0.0016474464579901153
sS'position'
p463
F0.0016474464579901153
sS'the'
p464
F0.1630971993410214
sS'stating'
p465
F0.0016474464579901153
sS'know'
p466
F0.011532125205930808
sS'lest'
p467
F0.0016474464579901153
sS'just'
p468
F0.011532125205930808
sS'being'
p469
F0.0016474464579901153
sS'fateful'
p470
F0.0016474464579901153
sS'thanks'
p471
F0.0049423393739703456
sS'speed'
p472
F0.0065897858319604614
sS'robins'
p473
F0.0016474464579901153
sS'web'
p474
F0.0016474464579901153
sS'application'
p475
F0.0016474464579901153
sS'josh'
p476
F0.0016474464579901153
sS'valid'
p477
F0.0016474464579901153
sS'board'
p478
F0.0098846787479406912
sS'has'
p479
F0.018121911037891267
sS'excited'
p480
F0.0016474464579901153
sS'real'
p481
F0.0016474464579901153
sS'march'
p482
F0.0016474464579901153
sS'big'
p483
F0.0098846787479406912
sS'bid'
p484
F0.0016474464579901153
sS'game'
p485
F0.0016474464579901153
sS'five'
p486
F0.0016474464579901153
sS'mon'
p487
F0.0032948929159802307
sS'immediately'
p488
F0.0016474464579901153
sS'bit'
p489
F0.0016474464579901153
sS'disappointed'
p490
F0.0032948929159802307
sS'like'
p491
F0.026359143327841845
sS'postcard'
p492
F0.0032948929159802307
sS'follows'
p493
F0.0065897858319604614
sS'steps'
p494
F0.0032948929159802307
sS'martin'
p495
F0.0082372322899505763
sS'page'
p496
F0.0016474464579901153
sS'hallmark'
p497
F0.0032948929159802307
sS'right'
p498
F0.0032948929159802307
sS'partying'
p499
F0.0016474464579901153
sS'deal'
p500
F0.0065897858319604614
sS'people'
p501
F0.0016474464579901153
sS'absolutely'
p502
F0.0016474464579901153
sS'some'
p503
F0.0016474464579901153
sS'back'
p504
F0.0065897858319604614
sS'authority'
p505
F0.0049423393739703456
sS'sure'
p506
F0.0016474464579901153
sS'shes'
p507
F0.0065897858319604614
sS'home'
p508
F0.0049423393739703456
sS'peter'
p509
F0.0032948929159802307
sS'neglecting'
p510
F0.0016474464579901153
sS'regina'
p511
F0.0016474464579901153
sS'for'
p512
F0.052718286655683691
sS'noon'
p513
F0.0016474464579901153
sS'ice'
p514
F0.0016474464579901153
sS'asking'
p515
F0.0016474464579901153
sS'quitting'
p516
F0.0016474464579901153
sS'be'
p517
F0.014827018121911038
sS'power'
p518
F0.0016474464579901153
sS'night'
p519
F0.0016474464579901153
sS'hectic'
p520
F0.0049423393739703456
sS'by'
p521
F0.054365733113673806
sS'earlier'
p522
F0.0016474464579901153
sS'hearing'
p523
F0.0049423393739703456
sS'on'
p524
F0.059308072487644151
sS'about'
p525
F0.019769357495881382
sS'central'
p526
F0.0032948929159802307
sS'pika'
p527
F0.0016474464579901153
sS'anything'
p528
F0.0032948929159802307
sS'oh'
p529
F0.0016474464579901153
sS'of'
p530
F0.04118616144975288
sS'plus'
p531
F0.0016474464579901153
sS'or'
p532
F0.0098846787479406912
sS'software'
p533
F0.013179571663920923
sS'seeing'
p534
F0.0032948929159802307
sS'whats'
p535
F0.0049423393739703456
sS'harassed'
p536
F0.0016474464579901153
sS'image'
p537
F0.0098846787479406912
sS'honeymoon'
p538
F0.0032948929159802307
sS'hammered'
p539
F0.0016474464579901153
sS'down'
p540
F0.0016474464579901153
sS'weather'
p541
F0.0016474464579901153
sS'been'
p542
F0.026359143327841845
sS'wrap'
p543
F0.0016474464579901153
sS'nowadays'
p544
F0.0016474464579901153
sS'your'
p545
F0.029654036243822075
sS'forwarded'
p546
F0.03130148270181219
sS'her'
p547
F0.0098846787479406912
sS'hes'
p548
F0.0016474464579901153
sS'spending'
p549
F0.0016474464579901153
sS'there'
p550
F0.0065897858319604614
sS'hey'
p551
F0.011532125205930808
sS'continental'
p552
F0.0049423393739703456
sS'way'
p553
F0.0016474464579901153
sS'forward'
p554
F0.013179571663920923
sS'was'
p555
F0.029654036243822075
sS'happy'
p556
F0.0016474464579901153
sS'head'
p557
F0.0016474464579901153
sS'north'
p558
F0.0016474464579901153
sS'but'
p559
F0.011532125205930808
sS'failure'
p560
F0.0016474464579901153
sS'hear'
p561
F0.0082372322899505763
sS'with'
p562
F0.03459637561779242
sS'he'
p563
F0.0016474464579901153
sS'embedded'
p564
F0.0098846787479406912
sS'attached'
p565
F0.0049423393739703456
sS'up'
p566
F0.0098846787479406912
sS'us'
p567
F0.0016474464579901153
sS'stories'
p568
F0.0016474464579901153
sS'problem'
p569
F0.0016474464579901153
sS'inquiring'
p570
F0.0016474464579901153
sS'detailed'
p571
F0.0016474464579901153
sS'later'
p572
F0.0016474464579901153
sS'moved'
p573
F0.014827018121911038
sS'covers'
p574
F0.0032948929159802307
sS'an'
p575
F0.019769357495881382
sS'as'
p576
F0.014827018121911038
sS'promised'
p577
F0.0016474464579901153
sS'file'
p578
F0.013179571663920923
sS'trip'
p579
F0.021416803953871501
sS'again'
p580
F0.0049423393739703456
sS'floor'
p581
F0.0016474464579901153
sS'deserve'
p582
F0.0032948929159802307
sS'when'
p583
F0.0049423393739703456
sS'lately'
p584
F0.0016474464579901153
sS'kirk'
p585
F0.0032948929159802307
sS'other'
p586
F0.0049423393739703456
sS'vacation'
p587
F0.0016474464579901153
sS'test'
p588
F0.0016474464579901153
sS'you'
p589
F0.10378912685337727
sS'really'
p590
F0.0016474464579901153
sS'contacting'
p591
F0.0016474464579901153
sS'dale'
p592
F0.0032948929159802307
sS'prepared'
p593
F0.0016474464579901153
sS'chance'
p594
F0.0016474464579901153
sS'terry'
p595
F0.0016474464579901153
sS'included'
p596
F0.0016474464579901153
sS'friends'
p597
F0.0065897858319604614
sS'ago'
p598
F0.0016474464579901153
sS'land'
p599
F0.0032948929159802307
sS'blushing'
p600
F0.0032948929159802307
sS'daily'
p601
F0.0032948929159802307
sS'having'
p602
F0.0032948929159802307
sS'portion'
p603
F0.0016474464579901153
sS'nelson'
p604
F0.0032948929159802307
sS'time'
p605
F0.013179571663920923
sS'at'
p606
F0.023064250411861616
sS'hello'
p607
F0.0016474464579901153
sS'once'
p608
F0.0065897858319604614
s.