(dp1
S'and'
p2
F0.024875621890547265
sS'that'
p3
F0.0092395167022032692
sS'this'
p4
F0.0063965884861407248
sS'mean_word_length'
p5
F5.0519480519480515
sS'sentence_standard_deviation'
p6
F40.900464683957274
sS'however'
p7
F0.00071073205401563609
sS'but'
p8
F0.0014214641080312722
sS'very'
p9
F0.0028429282160625444
sS'type_token_ratio'
p10
F0.78875129585694292
sS'more'
p11
F0
sS'if'
p12
F0.011371712864250177
sS'might'
p13
F0
sS'mean_sentence_length'
p14
F38.375
sS'must'
p15
F0.0021321961620469083
s.