(dp1
S'limited'
p2
F0.0027100271002710027
sS'all'
p3
F0.010840108401084011
sS'consider'
p4
F0.0027100271002710027
sS'laura'
p5
F0.010840108401084011
sS'per'
p6
F0.0027100271002710027
sS'grateful'
p7
F0.0027100271002710027
sS'issues'
p8
F0.0054200542005420054
sS'certainly'
p9
F0.0027100271002710027
sS'send'
p10
F0.008130081300813009
sS'to'
p11
F0.12466124661246612
sS'include'
p12
F0.0054200542005420054
sS'sent'
p13
F0.0054200542005420054
sS'me'
p14
F0.018970189701897018
sS'very'
p15
F0.010840108401084011
sS'jack'
p16
F0.0054200542005420054
sS'affect'
p17
F0.0027100271002710027
sS'school'
p18
F0.0054200542005420054
sS'level'
p19
F0.0054200542005420054
sS'issue'
p20
F0.010840108401084011
sS'wednesday'
p21
F0.0054200542005420054
sS'leave'
p22
F0.0054200542005420054
sS'assignments'
p23
F0.0027100271002710027
sS'rate'
p24
F0.0027100271002710027
sS'cost'
p25
F0.0027100271002710027
sS'enhancement'
p26
F0.0027100271002710027
sS'even'
p27
F0.0054200542005420054
sS'will'
p28
F0.059620596205962058
sS'power'
p29
F0.0054200542005420054
sS'specification'
p30
F0.0027100271002710027
sS'current'
p31
F0.0054200542005420054
sS'new'
p32
F0.013550135501355014
sS'body'
p33
F0.0027100271002710027
sS'full'
p34
F0.0027100271002710027
sS'invoicing'
p35
F0.0027100271002710027
sS'met'
p36
F0.0027100271002710027
sS'operating'
p37
F0.0054200542005420054
sS'others'
p38
F0.0027100271002710027
sS'active'
p39
F0.0027100271002710027
sS'change'
p40
F0.0027100271002710027
sS'involved'
p41
F0.0027100271002710027
sS'employees'
p42
F0.0054200542005420054
sS'permit'
p43
F0.0027100271002710027
sS'welch'
p44
F0.0027100271002710027
sS'apply'
p45
F0.0027100271002710027
sS'market'
p46
F0.0027100271002710027
sS'fee'
p47
F0.0054200542005420054
sS'from'
p48
F0.013550135501355014
sS'handled'
p49
F0.0054200542005420054
sS'would'
p50
F0.016260162601626018
sS'positive'
p51
F0.0027100271002710027
sS'next'
p52
F0.0027100271002710027
sS'call'
p53
F0.008130081300813009
sS'care'
p54
F0.0027100271002710027
sS'today'
p55
F0.0054200542005420054
sS'company'
p56
F0.008130081300813009
sS'downtown'
p57
F0.0027100271002710027
sS'billed'
p58
F0.0027100271002710027
sS'must'
p59
F0.008130081300813009
sS'customer'
p60
F0.0027100271002710027
sS'room'
p61
F0.0054200542005420054
sS'this'
p62
F0.024390243902439025
sS'work'
p63
F0.008130081300813009
sS'minimum'
p64
F0.0027100271002710027
sS'can'
p65
F0.018970189701897018
sS'following'
p66
F0.008130081300813009
sS'meet'
p67
F0.0027100271002710027
sS'my'
p68
F0.018970189701897018
sS'control'
p69
F0.0027100271002710027
sS'reserved'
p70
F0.0054200542005420054
sS'stated'
p71
F0.0027100271002710027
sS'high'
p72
F0.0027100271002710027
sS'incremental'
p73
F0.0027100271002710027
sS'times'
p74
F0.0054200542005420054
sS'court'
p75
F0.0027100271002710027
sS'verify'
p76
F0.0027100271002710027
sS'how'
p77
F0.010840108401084011
sS'afternoon'
p78
F0.0027100271002710027
sS'attend'
p79
F0.0054200542005420054
sS'tattoo'
p80
F0.0027100271002710027
sS'may'
p81
F0.010840108401084011
sS'after'
p82
F0.0027100271002710027
sS'membership'
p83
F0.0054200542005420054
sS'designed'
p84
F0.0027100271002710027
sS'requirements'
p85
F0.0054200542005420054
sS'law'
p86
F0.0027100271002710027
sS'guys'
p87
F0.0027100271002710027
sS'so'
p88
F0.008130081300813009
sS'operate'
p89
F0.0027100271002710027
sS'help'
p90
F0.008130081300813009
sS'consent'
p91
F0.0027100271002710027
sS'years'
p92
F0.0027100271002710027
sS'held'
p93
F0.0027100271002710027
sS'attitude'
p94
F0.0027100271002710027
sS'including'
p95
F0.0027100271002710027
sS'committee'
p96
F0.0054200542005420054
sS'still'
p97
F0.0054200542005420054
sS'before'
p98
F0.008130081300813009
sS'thank'
p99
F0.0054200542005420054
sS'better'
p100
F0.0027100271002710027
sS'mail'
p101
F0.0027100271002710027
sS'tentatively'
p102
F0.0027100271002710027
sS'then'
p103
F0.0027100271002710027
sS'someone'
p104
F0.0027100271002710027
sS'awarding'
p105
F0.0027100271002710027
sS'lunch'
p106
F0.008130081300813009
sS'they'
p107
F0.010840108401084011
sS'not'
p108
F0.010840108401084011
sS'now'
p109
F0.0054200542005420054
sS'discuss'
p110
F0.008130081300813009
sS'name'
p111
F0.008130081300813009
sS'identified'
p112
F0.0054200542005420054
sS'capability'
p113
F0.0027100271002710027
sS'fitness'
p114
F0.0027100271002710027
sS'en'
p115
F0.0027100271002710027
sS'applicable'
p116
F0.0027100271002710027
sS'our'
p117
F0.008130081300813009
sS'sandy'
p118
F0.0027100271002710027
sS'out'
p119
F0.0027100271002710027
sS'god'
p120
F0.0027100271002710027
sS'increase'
p121
F0.0027100271002710027
sS'hill'
p122
F0.0027100271002710027
sS'cause'
p123
F0.0027100271002710027
sS'correct'
p124
F0.0027100271002710027
sS'possibility'
p125
F0.0027100271002710027
sS'additional'
p126
F0.008130081300813009
sS'training'
p127
F0.0054200542005420054
sS'could'
p128
F0.008130081300813009
sS'programming'
p129
F0.0027100271002710027
sS'keep'
p130
F0.008130081300813009
sS'turn'
p131
F0.0027100271002710027
sS'think'
p132
F0.0027100271002710027
sS'first'
p133
F0.0027100271002710027
sS'revenue'
p134
F0.0027100271002710027
sS'number'
p135
F0.008130081300813009
sS'one'
p136
F0.0054200542005420054
sS'franks'
p137
F0.0027100271002710027
sS'message'
p138
F0.0027100271002710027
sS'miss'
p139
F0.0027100271002710027
sS'given'
p140
F0.0054200542005420054
sS'heads'
p141
F0.0027100271002710027
sS'activities'
p142
F0.0027100271002710027
sS'system'
p143
F0.013550135501355014
sS'anyone'
p144
F0.0027100271002710027
sS'needed'
p145
F0.0027100271002710027
sS'station'
p146
F0.0027100271002710027
sS'tom'
p147
F0.0027100271002710027
sS'that'
p148
F0.035230352303523033
sS'believe'
p149
F0.0027100271002710027
sS'than'
p150
F0.0027100271002710027
sS'require'
p151
F0.0027100271002710027
sS'limiting'
p152
F0.0027100271002710027
sS'future'
p153
F0.0027100271002710027
sS'were'
p154
F0.0027100271002710027
sS'and'
p155
F0.094850948509485097
sS'mind'
p156
F0.0027100271002710027
sS'mine'
p157
F0.0027100271002710027
sS'talking'
p158
F0.0027100271002710027
sS'have'
p159
F0.056910569105691054
sS'horsepower'
p160
F0.0054200542005420054
sS'any'
p161
F0.018970189701897018
sS'equipment'
p162
F0.0027100271002710027
sS'concerns'
p163
F0.0027100271002710027
sS'sure'
p164
F0.010840108401084011
sS'electric'
p165
F0.0027100271002710027
sS'though'
p166
F0.0027100271002710027
sS'price'
p167
F0.0027100271002710027
sS'who'
p168
F0.0027100271002710027
sS'plan'
p169
F0.0027100271002710027
sS'phase'
p170
F0.032520325203252036
sS'class'
p171
F0.0054200542005420054
sS'delivery'
p172
F0.0054200542005420054
sS'later'
p173
F0.0027100271002710027
sS'request'
p174
F0.0054200542005420054
sS'points'
p175
F0.0027100271002710027
sS'senior'
p176
F0.0027100271002710027
sS'assistance'
p177
F0.0027100271002710027
sS'shop'
p178
F0.0027100271002710027
sS'session'
p179
F0.0054200542005420054
sS'nephew'
p180
F0.0027100271002710027
sS'find'
p181
F0.0027100271002710027
sS'quoted'
p182
F0.0027100271002710027
sS'implementation'
p183
F0.0027100271002710027
sS'controls'
p184
F0.0054200542005420054
sS'should'
p185
F0.0054200542005420054
sS'unable'
p186
F0.0027100271002710027
sS'hope'
p187
F0.0054200542005420054
sS'do'
p188
F0.0027100271002710027
sS'his'
p189
F0.008130081300813009
sS'get'
p190
F0.013550135501355014
sS'contracts'
p191
F0.008130081300813009
sS'cannot'
p192
F0.0027100271002710027
sS'reply'
p193
F0.0054200542005420054
sS'him'
p194
F0.0054200542005420054
sS'fixed'
p195
F0.0027100271002710027
sS'where'
p196
F0.0027100271002710027
sS'set'
p197
F0.0027100271002710027
sS'see'
p198
F0.0027100271002710027
sS'are'
p199
F0.016260162601626018
sS'subject'
p200
F0.0027100271002710027
sS'consolidating'
p201
F0.0027100271002710027
sS'currently'
p202
F0.0027100271002710027
sS'please'
p203
F0.016260162601626018
sS'discounts'
p204
F0.0027100271002710027
sS'enough'
p205
F0.0054200542005420054
sS'determined'
p206
F0.0054200542005420054
sS'between'
p207
F0.0027100271002710027
sS'we'
p208
F0.065040650406504072
sS'deliver'
p209
F0.0054200542005420054
sS'however'
p210
F0.0027100271002710027
sS'approval'
p211
F0.010840108401084011
sS'come'
p212
F0.0054200542005420054
sS'both'
p213
F0.008130081300813009
sS'dates'
p214
F0.0054200542005420054
sS'many'
p215
F0.0027100271002710027
sS'ill'
p216
F0.0027100271002710027
sS'contract'
p217
F0.013550135501355014
sS'let'
p218
F0.008130081300813009
sS'approve'
p219
F0.0054200542005420054
sS'comes'
p220
F0.0027100271002710027
sS'point'
p221
F0.008130081300813009
sS'address'
p222
F0.0027100271002710027
sS'whatever'
p223
F0.0027100271002710027
sS'custody'
p224
F0.008130081300813009
sS'conference'
p225
F0.0027100271002710027
sS'billing'
p226
F0.0027100271002710027
sS'addition'
p227
F0.0027100271002710027
sS'west'
p228
F0.0027100271002710027
sS'add'
p229
F0.0054200542005420054
sS'been'
p230
F0.0054200542005420054
sS'strategy'
p231
F0.0027100271002710027
sS'whom'
p232
F0.0027100271002710027
sS'much'
p233
F0.0027100271002710027
sS'meeting'
p234
F0.010840108401084011
sS'firm'
p235
F0.0054200542005420054
sS'understand'
p236
F0.0027100271002710027
sS'extracurricular'
p237
F0.0027100271002710027
sS'these'
p238
F0.010840108401084011
sS'bill'
p239
F0.0027100271002710027
sS'handicapped'
p240
F0.0027100271002710027
sS'is'
p241
F0.04878048780487805
sS'thus'
p242
F0.0027100271002710027
sS'it'
p243
F0.010840108401084011
sS'need'
p244
F0.008130081300813009
sS'cant'
p245
F0.0027100271002710027
sS'good'
p246
F0.0027100271002710027
sS'in'
p247
F0.059620596205962058
sS'technology'
p248
F0.0054200542005420054
sS'if'
p249
F0.043360433604336043
sS'capture'
p250
F0.0027100271002710027
sS'develop'
p251
F0.0027100271002710027
sS'grant'
p252
F0.0054200542005420054
sS'pay'
p253
F0.0027100271002710027
sS'same'
p254
F0.0054200542005420054
sS'member'
p255
F0.0027100271002710027
sS'units'
p256
F0.0027100271002710027
sS'advise'
p257
F0.0027100271002710027
sS'several'
p258
F0.0027100271002710027
sS'development'
p259
F0.0027100271002710027
sS'reporting'
p260
F0.0027100271002710027
sS'negotiate'
p261
F0.0027100271002710027
sS'purpose'
p262
F0.0027100271002710027
sS'opportunity'
p263
F0.0027100271002710027
sS'discounted'
p264
F0.0027100271002710027
sS'center'
p265
F0.0027100271002710027
sS'charges'
p266
F0.008130081300813009
sS'well'
p267
F0.0027100271002710027
sS'contact'
p268
F0.0027100271002710027
sS'the'
p269
F0.17886178861788618
sS'clearance'
p270
F0.0054200542005420054
sS'just'
p271
F0.0027100271002710027
sS'obtain'
p272
F0.0027100271002710027
sS'assigned'
p273
F0.0027100271002710027
sS'identify'
p274
F0.0027100271002710027
sS'thanks'
p275
F0.008130081300813009
sS'questions'
p276
F0.008130081300813009
sS'captured'
p277
F0.0054200542005420054
sS'also'
p278
F0.008130081300813009
sS'lets'
p279
F0.0027100271002710027
sS'parents'
p280
F0.0027100271002710027
sS'location'
p281
F0.0054200542005420054
sS'input'
p282
F0.0027100271002710027
sS'has'
p283
F0.0027100271002710027
sS'gave'
p284
F0.0027100271002710027
sS'scheduled'
p285
F0.0027100271002710027
sS'customers'
p286
F0.0054200542005420054
sS'rules'
p287
F0.0054200542005420054
sS'know'
p288
F0.008130081300813009
sS'like'
p289
F0.010840108401084011
sS'benefit'
p290
F0.0027100271002710027
sS'output'
p291
F0.0054200542005420054
sS'works'
p292
F0.0054200542005420054
sS'exceed'
p293
F0.0054200542005420054
sS'because'
p294
F0.0027100271002710027
sS'old'
p295
F0.0027100271002710027
sS'some'
p296
F0.0054200542005420054
sS'back'
p297
F0.0054200542005420054
sS'born'
p298
F0.0027100271002710027
sS'convey'
p299
F0.0027100271002710027
sS'bless'
p300
F0.0027100271002710027
sS'for'
p301
F0.065040650406504072
sS'legal'
p302
F0.0054200542005420054
sS'does'
p303
F0.0027100271002710027
sS'provides'
p304
F0.0027100271002710027
sS'be'
p305
F0.054200542005420058
sS'business'
p306
F0.0027100271002710027
sS'schedule'
p307
F0.0027100271002710027
sS'each'
p308
F0.0027100271002710027
sS'agreement'
p309
F0.0027100271002710027
sS'carpenter'
p310
F0.0054200542005420054
sS'discount'
p311
F0.010840108401084011
sS'attendance'
p312
F0.0054200542005420054
sS'although'
p313
F0.0027100271002710027
sS'by'
p314
F0.024390243902439025
sS'on'
p315
F0.024390243902439025
sS'about'
p316
F0.010840108401084011
sS'asks'
p317
F0.0027100271002710027
sS'of'
p318
F0.043360433604336043
sS'discussed'
p319
F0.0027100271002710027
sS'greatly'
p320
F0.0027100271002710027
sS'or'
p321
F0.016260162601626018
sS'automatically'
p322
F0.0027100271002710027
sS'outlook'
p323
F0.013550135501355014
sS'into'
p324
F0.0027100271002710027
sS'son'
p325
F0.0054200542005420054
sS'lastly'
p326
F0.0027100271002710027
sS'your'
p327
F0.018970189701897018
sS'forwarded'
p328
F0.013550135501355014
sS'her'
p329
F0.0027100271002710027
sS'there'
p330
F0.0027100271002710027
sS'way'
p331
F0.0054200542005420054
sS'was'
p332
F0.008130081300813009
sS'happy'
p333
F0.0027100271002710027
sS'but'
p334
F0.0054200542005420054
sS'volume'
p335
F0.0027100271002710027
sS'trying'
p336
F0.0027100271002710027
sS'with'
p337
F0.021680216802168022
sS'raising'
p338
F0.0054200542005420054
sS'he'
p339
F0.013550135501355014
sS'congratulations'
p340
F0.0027100271002710027
sS'embedded'
p341
F0.0054200542005420054
sS'attached'
p342
F0.0027100271002710027
sS'up'
p343
F0.010840108401084011
sS'us'
p344
F0.0054200542005420054
sS'limit'
p345
F0.013550135501355014
sS'agree'
p346
F0.0027100271002710027
sS'am'
p347
F0.029810298102981029
sS'an'
p348
F0.0027100271002710027
sS'coordinator'
p349
F0.0054200542005420054
sS'as'
p350
F0.016260162601626018
sS'at'
p351
F0.037940379403794036
sS'check'
p352
F0.0027100271002710027
sS'no'
p353
F0.0054200542005420054
sS'amounts'
p354
F0.0027100271002710027
sS'when'
p355
F0.010840108401084011
sS'other'
p356
F0.0027100271002710027
sS'papers'
p357
F0.0027100271002710027
sS'you'
p358
F0.04878048780487805
sS'problems'
p359
F0.0027100271002710027
sS'weirdest'
p360
F0.0054200542005420054
sS'included'
p361
F0.0027100271002710027
sS'weekend'
p362
F0.0027100271002710027
sS'inspiration'
p363
F0.0027100271002710027
sS'negating'
p364
F0.0027100271002710027
sS'required'
p365
F0.0054200542005420054
sS'together'
p366
F0.008130081300813009
sS'volumes'
p367
F0.0027100271002710027
sS'time'
p368
F0.008130081300813009
sS'starting'
p369
F0.0054200542005420054
sS'once'
p370
F0.0027100271002710027
s.