(dp1
S'limited'
p2
F0.0026525198938992041
sS'all'
p3
F0.013262599469496022
sS'consider'
p4
F0.0026525198938992041
sS'laura'
p5
F0.023872679045092837
sS'per'
p6
F0.0026525198938992041
sS'grateful'
p7
F0.0026525198938992041
sS'issues'
p8
F0.0053050397877984082
sS'certainly'
p9
F0.0026525198938992041
sS'send'
p10
F0.0079575596816976128
sS'to'
p11
F0.13262599469496023
sS'include'
p12
F0.0053050397877984082
sS'sent'
p13
F0.0053050397877984082
sS'me'
p14
F0.023872679045092837
sS'very'
p15
F0.010610079575596816
sS'jack'
p16
F0.0053050397877984082
sS'affect'
p17
F0.0026525198938992041
sS'school'
p18
F0.0053050397877984082
sS'level'
p19
F0.0053050397877984082
sS'issue'
p20
F0.010610079575596816
sS'wednesday'
p21
F0.0053050397877984082
sS'leave'
p22
F0.0079575596816976128
sS'assignments'
p23
F0.0026525198938992041
sS'rate'
p24
F0.0026525198938992041
sS'cost'
p25
F0.0026525198938992041
sS'enhancement'
p26
F0.0026525198938992041
sS'even'
p27
F0.0053050397877984082
sS'will'
p28
F0.058355437665782495
sS'power'
p29
F0.0053050397877984082
sS'specification'
p30
F0.0026525198938992041
sS'current'
p31
F0.0053050397877984082
sS'new'
p32
F0.013262599469496022
sS'body'
p33
F0.0026525198938992041
sS'full'
p34
F0.0026525198938992041
sS'invoicing'
p35
F0.0026525198938992041
sS'met'
p36
F0.0026525198938992041
sS'operating'
p37
F0.0053050397877984082
sS'others'
p38
F0.0026525198938992041
sS'active'
p39
F0.0026525198938992041
sS'change'
p40
F0.0026525198938992041
sS'great'
p41
F0.0026525198938992041
sS'involved'
p42
F0.0026525198938992041
sS'employees'
p43
F0.0053050397877984082
sS'permit'
p44
F0.0026525198938992041
sS'options'
p45
F0.0026525198938992041
sS'beautiful'
p46
F0.0026525198938992041
sS'welch'
p47
F0.0026525198938992041
sS'apply'
p48
F0.0026525198938992041
sS'market'
p49
F0.0026525198938992041
sS'fee'
p50
F0.0053050397877984082
sS'from'
p51
F0.015915119363395226
sS'handled'
p52
F0.0053050397877984082
sS'would'
p53
F0.021220159151193633
sS'positive'
p54
F0.0026525198938992041
sS'next'
p55
F0.0026525198938992041
sS'call'
p56
F0.010610079575596816
sS'care'
p57
F0.0026525198938992041
sS'today'
p58
F0.010610079575596816
sS'company'
p59
F0.0079575596816976128
sS'downtown'
p60
F0.0026525198938992041
sS'billed'
p61
F0.0026525198938992041
sS'must'
p62
F0.0079575596816976128
sS'customer'
p63
F0.0026525198938992041
sS'room'
p64
F0.0053050397877984082
sS'this'
p65
F0.023872679045092837
sS'work'
p66
F0.010610079575596816
sS'minimum'
p67
F0.0026525198938992041
sS'can'
p68
F0.023872679045092837
sS'following'
p69
F0.0079575596816976128
sS'meet'
p70
F0.0026525198938992041
sS'my'
p71
F0.018567639257294429
sS'control'
p72
F0.0026525198938992041
sS'reserved'
p73
F0.0053050397877984082
sS'stated'
p74
F0.0026525198938992041
sS'high'
p75
F0.0026525198938992041
sS'incremental'
p76
F0.0026525198938992041
sS'times'
p77
F0.0053050397877984082
sS'court'
p78
F0.0026525198938992041
sS'verify'
p79
F0.0026525198938992041
sS'how'
p80
F0.010610079575596816
sS'afternoon'
p81
F0.0026525198938992041
sS'attend'
p82
F0.0053050397877984082
sS'tattoo'
p83
F0.0053050397877984082
sS'may'
p84
F0.013262599469496022
sS'after'
p85
F0.0053050397877984082
sS'membership'
p86
F0.0053050397877984082
sS'designed'
p87
F0.0026525198938992041
sS'requirements'
p88
F0.0053050397877984082
sS'law'
p89
F0.0026525198938992041
sS'guys'
p90
F0.0026525198938992041
sS'so'
p91
F0.0079575596816976128
sS'operate'
p92
F0.0026525198938992041
sS'help'
p93
F0.0079575596816976128
sS'consent'
p94
F0.0026525198938992041
sS'years'
p95
F0.0026525198938992041
sS'held'
p96
F0.0026525198938992041
sS'attitude'
p97
F0.0026525198938992041
sS'including'
p98
F0.0026525198938992041
sS'committee'
p99
F0.0053050397877984082
sS'still'
p100
F0.0053050397877984082
sS'before'
p101
F0.010610079575596816
sS'thank'
p102
F0.0053050397877984082
sS'better'
p103
F0.0053050397877984082
sS'mail'
p104
F0.0026525198938992041
sS'tentatively'
p105
F0.0026525198938992041
sS'then'
p106
F0.0026525198938992041
sS'someone'
p107
F0.0026525198938992041
sS'awarding'
p108
F0.0026525198938992041
sS'lunch'
p109
F0.018567639257294429
sS'they'
p110
F0.010610079575596816
sS'not'
p111
F0.013262599469496022
sS'now'
p112
F0.0053050397877984082
sS'discuss'
p113
F0.0079575596816976128
sS'name'
p114
F0.0079575596816976128
sS'identified'
p115
F0.0053050397877984082
sS'capability'
p116
F0.0026525198938992041
sS'fitness'
p117
F0.0026525198938992041
sS'en'
p118
F0.0026525198938992041
sS'applicable'
p119
F0.0026525198938992041
sS'our'
p120
F0.0079575596816976128
sS'message'
p121
F0.0026525198938992041
sS'sandy'
p122
F0.0026525198938992041
sS'out'
p123
F0.0026525198938992041
sS'god'
p124
F0.0026525198938992041
sS'increase'
p125
F0.0026525198938992041
sS'hill'
p126
F0.0026525198938992041
sS'got'
p127
F0.0026525198938992041
sS'cause'
p128
F0.0026525198938992041
sS'correct'
p129
F0.0026525198938992041
sS'possibility'
p130
F0.0026525198938992041
sS'additional'
p131
F0.0079575596816976128
sS'training'
p132
F0.0053050397877984082
sS'could'
p133
F0.010610079575596816
sS'programming'
p134
F0.0026525198938992041
sS'keep'
p135
F0.0079575596816976128
sS'turn'
p136
F0.0026525198938992041
sS'think'
p137
F0.0026525198938992041
sS'first'
p138
F0.0026525198938992041
sS'revenue'
p139
F0.0026525198938992041
sS'number'
p140
F0.0079575596816976128
sS'one'
p141
F0.0079575596816976128
sS'franks'
p142
F0.0026525198938992041
sS'sounds'
p143
F0.0026525198938992041
sS'miss'
p144
F0.0026525198938992041
sS'given'
p145
F0.0053050397877984082
sS'heads'
p146
F0.0026525198938992041
sS'activities'
p147
F0.0026525198938992041
sS'system'
p148
F0.013262599469496022
sS'anyone'
p149
F0.0026525198938992041
sS'needed'
p150
F0.0026525198938992041
sS'station'
p151
F0.0053050397877984082
sS'tom'
p152
F0.0026525198938992041
sS'that'
p153
F0.039787798408488062
sS'compressor'
p154
F0.0026525198938992041
sS'believe'
p155
F0.0026525198938992041
sS'than'
p156
F0.0026525198938992041
sS'require'
p157
F0.0026525198938992041
sS'limiting'
p158
F0.0026525198938992041
sS'future'
p159
F0.0026525198938992041
sS'were'
p160
F0.0026525198938992041
sS'and'
p161
F0.10079575596816977
sS'mind'
p162
F0.0026525198938992041
sS'mine'
p163
F0.0026525198938992041
sS'talking'
p164
F0.0026525198938992041
sS'have'
p165
F0.066312997347480113
sS'horsepower'
p166
F0.0053050397877984082
sS'any'
p167
F0.018567639257294429
sS'equipment'
p168
F0.0026525198938992041
sS'concerns'
p169
F0.0026525198938992041
sS'sure'
p170
F0.013262599469496022
sS'electric'
p171
F0.0026525198938992041
sS'though'
p172
F0.0026525198938992041
sS'price'
p173
F0.0026525198938992041
sS'who'
p174
F0.0026525198938992041
sS'plan'
p175
F0.0026525198938992041
sS'phase'
p176
F0.031830238726790451
sS'class'
p177
F0.0053050397877984082
sS'delivery'
p178
F0.0053050397877984082
sS'later'
p179
F0.0026525198938992041
sS'request'
p180
F0.0053050397877984082
sS'points'
p181
F0.0026525198938992041
sS'senior'
p182
F0.0026525198938992041
sS'assistance'
p183
F0.0026525198938992041
sS'shop'
p184
F0.0026525198938992041
sS'session'
p185
F0.0053050397877984082
sS'nephew'
p186
F0.0026525198938992041
sS'find'
p187
F0.0026525198938992041
sS'quoted'
p188
F0.0026525198938992041
sS'implementation'
p189
F0.0026525198938992041
sS'controls'
p190
F0.0053050397877984082
sS'should'
p191
F0.0053050397877984082
sS'unable'
p192
F0.0026525198938992041
sS'hope'
p193
F0.0053050397877984082
sS'do'
p194
F0.0026525198938992041
sS'his'
p195
F0.0079575596816976128
sS'get'
p196
F0.015915119363395226
sS'contracts'
p197
F0.0079575596816976128
sS'cannot'
p198
F0.0026525198938992041
sS'reply'
p199
F0.0053050397877984082
sS'him'
p200
F0.0053050397877984082
sS'fixed'
p201
F0.0026525198938992041
sS'where'
p202
F0.0026525198938992041
sS'set'
p203
F0.0026525198938992041
sS'see'
p204
F0.0026525198938992041
sS'are'
p205
F0.015915119363395226
sS'subject'
p206
F0.0026525198938992041
sS'consolidating'
p207
F0.0026525198938992041
sS'currently'
p208
F0.0026525198938992041
sS'please'
p209
F0.018567639257294429
sS'discounts'
p210
F0.0026525198938992041
sS'enough'
p211
F0.0079575596816976128
sS'determined'
p212
F0.0053050397877984082
sS'between'
p213
F0.0026525198938992041
sS'we'
p214
F0.07161803713527852
sS'deliver'
p215
F0.0053050397877984082
sS'however'
p216
F0.0026525198938992041
sS'approval'
p217
F0.010610079575596816
sS'come'
p218
F0.0053050397877984082
sS'both'
p219
F0.013262599469496022
sS'dates'
p220
F0.0053050397877984082
sS'many'
p221
F0.0026525198938992041
sS'ill'
p222
F0.0026525198938992041
sS'contract'
p223
F0.013262599469496022
sS'let'
p224
F0.013262599469496022
sS'approve'
p225
F0.0053050397877984082
sS'comes'
p226
F0.0026525198938992041
sS'point'
p227
F0.0079575596816976128
sS'address'
p228
F0.0026525198938992041
sS'whatever'
p229
F0.0026525198938992041
sS'custody'
p230
F0.0079575596816976128
sS'conference'
p231
F0.0026525198938992041
sS'billing'
p232
F0.0026525198938992041
sS'addition'
p233
F0.0026525198938992041
sS'west'
p234
F0.0026525198938992041
sS'add'
p235
F0.0053050397877984082
sS'been'
p236
F0.0053050397877984082
sS'strategy'
p237
F0.0026525198938992041
sS'whom'
p238
F0.0026525198938992041
sS'much'
p239
F0.0026525198938992041
sS'meeting'
p240
F0.013262599469496022
sS'firm'
p241
F0.0053050397877984082
sS'understand'
p242
F0.0026525198938992041
sS'extracurricular'
p243
F0.0026525198938992041
sS'these'
p244
F0.010610079575596816
sS'bill'
p245
F0.0026525198938992041
sS'handicapped'
p246
F0.0026525198938992041
sS'is'
p247
F0.053050397877984087
sS'thus'
p248
F0.0026525198938992041
sS'it'
p249
F0.013262599469496022
sS'need'
p250
F0.0079575596816976128
sS'cant'
p251
F0.0026525198938992041
sS'good'
p252
F0.0053050397877984082
sS'in'
p253
F0.058355437665782495
sS'technology'
p254
F0.0053050397877984082
sS'if'
p255
F0.050397877984084884
sS'capture'
p256
F0.0026525198938992041
sS'develop'
p257
F0.0026525198938992041
sS'grant'
p258
F0.0053050397877984082
sS'pay'
p259
F0.0026525198938992041
sS'same'
p260
F0.0053050397877984082
sS'member'
p261
F0.0026525198938992041
sS'units'
p262
F0.0026525198938992041
sS'advise'
p263
F0.0026525198938992041
sS'several'
p264
F0.0026525198938992041
sS'development'
p265
F0.0026525198938992041
sS'reporting'
p266
F0.0026525198938992041
sS'negotiate'
p267
F0.0026525198938992041
sS'purpose'
p268
F0.0026525198938992041
sS'opportunity'
p269
F0.0026525198938992041
sS'discounted'
p270
F0.0026525198938992041
sS'center'
p271
F0.0026525198938992041
sS'charges'
p272
F0.0079575596816976128
sS'well'
p273
F0.0053050397877984082
sS'contact'
p274
F0.0026525198938992041
sS'the'
p275
F0.1883289124668435
sS'clearance'
p276
F0.0053050397877984082
sS'just'
p277
F0.0026525198938992041
sS'obtain'
p278
F0.0026525198938992041
sS'assigned'
p279
F0.0026525198938992041
sS'identify'
p280
F0.0026525198938992041
sS'thanks'
p281
F0.0079575596816976128
sS'questions'
p282
F0.0079575596816976128
sS'captured'
p283
F0.0053050397877984082
sS'also'
p284
F0.0079575596816976128
sS'lets'
p285
F0.0026525198938992041
sS'parents'
p286
F0.0026525198938992041
sS'location'
p287
F0.0053050397877984082
sS'input'
p288
F0.0026525198938992041
sS'has'
p289
F0.0026525198938992041
sS'gave'
p290
F0.0026525198938992041
sS'scheduled'
p291
F0.0026525198938992041
sS'customers'
p292
F0.0053050397877984082
sS'rules'
p293
F0.0053050397877984082
sS'know'
p294
F0.010610079575596816
sS'like'
p295
F0.010610079575596816
sS'benefit'
p296
F0.0026525198938992041
sS'output'
p297
F0.0053050397877984082
sS'works'
p298
F0.0079575596816976128
sS'exceed'
p299
F0.0053050397877984082
sS'because'
p300
F0.0026525198938992041
sS'old'
p301
F0.0026525198938992041
sS'some'
p302
F0.0053050397877984082
sS'back'
p303
F0.0079575596816976128
sS'born'
p304
F0.0026525198938992041
sS'shes'
p305
F0.0026525198938992041
sS'convey'
p306
F0.0026525198938992041
sS'bless'
p307
F0.0026525198938992041
sS'for'
p308
F0.076923076923076927
sS'legal'
p309
F0.0053050397877984082
sS'does'
p310
F0.0026525198938992041
sS'provides'
p311
F0.0026525198938992041
sS'be'
p312
F0.058355437665782495
sS'business'
p313
F0.0026525198938992041
sS'schedule'
p314
F0.0026525198938992041
sS'each'
p315
F0.0026525198938992041
sS'agreement'
p316
F0.0026525198938992041
sS'carpenter'
p317
F0.0079575596816976128
sS'discount'
p318
F0.010610079575596816
sS'attendance'
p319
F0.0053050397877984082
sS'although'
p320
F0.0026525198938992041
sS'by'
p321
F0.031830238726790451
sS'on'
p322
F0.031830238726790451
sS'about'
p323
F0.013262599469496022
sS'asks'
p324
F0.0026525198938992041
sS'of'
p325
F0.047745358090185673
sS'discussed'
p326
F0.0026525198938992041
sS'greatly'
p327
F0.0026525198938992041
sS'or'
p328
F0.018567639257294429
sS'automatically'
p329
F0.0026525198938992041
sS'outlook'
p330
F0.013262599469496022
sS'into'
p331
F0.0026525198938992041
sS'son'
p332
F0.0053050397877984082
sS'lastly'
p333
F0.0026525198938992041
sS'your'
p334
F0.018567639257294429
sS'forwarded'
p335
F0.018567639257294429
sS'her'
p336
F0.0026525198938992041
sS'there'
p337
F0.0026525198938992041
sS'way'
p338
F0.0053050397877984082
sS'was'
p339
F0.0079575596816976128
sS'happy'
p340
F0.0026525198938992041
sS'but'
p341
F0.0079575596816976128
sS'volume'
p342
F0.0026525198938992041
sS'trying'
p343
F0.0026525198938992041
sS'with'
p344
F0.021220159151193633
sS'raising'
p345
F0.0053050397877984082
sS'he'
p346
F0.013262599469496022
sS'congratulations'
p347
F0.0079575596816976128
sS'embedded'
p348
F0.0079575596816976128
sS'attached'
p349
F0.0053050397877984082
sS'up'
p350
F0.010610079575596816
sS'us'
p351
F0.0053050397877984082
sS'limit'
p352
F0.013262599469496022
sS'agree'
p353
F0.0026525198938992041
sS'am'
p354
F0.045092838196286469
sS'an'
p355
F0.0026525198938992041
sS'coordinator'
p356
F0.0053050397877984082
sS'as'
p357
F0.015915119363395226
sS'at'
p358
F0.039787798408488062
sS'check'
p359
F0.0026525198938992041
sS'again'
p360
F0.0026525198938992041
sS'no'
p361
F0.0053050397877984082
sS'amounts'
p362
F0.0026525198938992041
sS'when'
p363
F0.010610079575596816
sS'other'
p364
F0.0026525198938992041
sS'papers'
p365
F0.0026525198938992041
sS'you'
p366
F0.053050397877984087
sS'problems'
p367
F0.0026525198938992041
sS'weirdest'
p368
F0.0079575596816976128
sS'included'
p369
F0.0026525198938992041
sS'weekend'
p370
F0.0053050397877984082
sS'inspiration'
p371
F0.0026525198938992041
sS'negating'
p372
F0.0026525198938992041
sS'required'
p373
F0.0053050397877984082
sS'together'
p374
F0.010610079575596816
sS'volumes'
p375
F0.0026525198938992041
sS'time'
p376
F0.013262599469496022
sS'starting'
p377
F0.0079575596816976128
sS'once'
p378
F0.0026525198938992041
s.