(dp1
S'and'
p2
F0.033898305084745763
sS'that'
p3
F0.016949152542372881
sS'this'
p4
F0
sS'mean_word_length'
p5
F4.0952380952380949
sS'however'
p6
F0
sS'but'
p7
F0
sS'very'
p8
F0
sS'must'
p9
F0
sS'type_token_ratio'
p10
F0.89974937343358397
sS'if'
p11
F0
sS'might'
p12
F0
sS'more'
p13
F0
s.