(dp1
S'and'
p2
F0.022004889975550123
sS'that'
p3
F0.022004889975550123
sS'this'
p4
F0.019559902200488997
sS'mean_word_length'
p5
F4.3471882640586799
sS'however'
p6
F0
sS'but'
p7
F0
sS'very'
p8
F0.0012224938875305623
sS'must'
p9
F0
sS'type_token_ratio'
p10
F0.43031784841075793
sS'more'
p11
F0.0012224938875305623
sS'might'
p12
F0.0048899755501222494
sS'if'
p13
F0.0073349633251833741
s.