(dp1
S'saying'
p2
F0.0062305295950155761
sS'all'
p3
F0.018691588785046728
sS'think'
p4
F0.0062305295950155761
sS'gold'
p5
F0.0062305295950155761
sS'show'
p6
F0.024922118380062305
sS'being'
p7
F0.0093457943925233638
sS'developed'
p8
F0.024922118380062305
sS'accurate'
p9
F0.018691588785046728
sS'dollar'
p10
F0.0062305295950155761
sS'invent'
p11
F0.0062305295950155761
sS'years'
p12
F0.0062305295950155761
sS'cushy'
p13
F0.0062305295950155761
sS'manager'
p14
F0.0062305295950155761
sS'through'
p15
F0.0062305295950155761
sS'same'
p16
F0.0062305295950155761
sS'using'
p17
F0.012461059190031152
sS'go'
p18
F0.012461059190031152
sS'still'
p19
F0.0062305295950155761
sS'saved'
p20
F0.0062305295950155761
sS'yet'
p21
F0.0062305295950155761
sS'sharks'
p22
F0.0031152647975077881
sS'whose'
p23
F0.0062305295950155761
sS'thank'
p24
F0.0062305295950155761
sS'how'
p25
F0.012461059190031152
sS'somewhere'
p26
F0.0062305295950155761
sS'less'
p27
F0.0062305295950155761
sS'waiting'
p28
F0.0062305295950155761
sS'send'
p29
F0.0062305295950155761
sS'improvement'
p30
F0.0062305295950155761
sS'about'
p31
F0.012461059190031152
sS'to'
p32
F0.16199376947040497
sS'only'
p33
F0.0062305295950155761
sS'continue'
p34
F0.0062305295950155761
sS'rick'
p35
F0.0062305295950155761
sS'under'
p36
F0.012461059190031152
sS'team'
p37
F0.0062305295950155761
sS'might'
p38
F0.024922118380062305
sS'over'
p39
F0.0062305295950155761
sS'hope'
p40
F0.012461059190031152
sS'then'
p41
F0.024922118380062305
sS'possession'
p42
F0.0062305295950155761
sS'his'
p43
F0.018691588785046728
sS'lunatic'
p44
F0.0062305295950155761
sS'advantage'
p45
F0.0062305295950155761
sS'outside'
p46
F0.0062305295950155761
sS'read'
p47
F0.0062305295950155761
sS'couple'
p48
F0.0062305295950155761
sS'possibly'
p49
F0.0062305295950155761
sS'billy'
p50
F0.0031152647975077881
sS'were'
p51
F0.0062305295950155761
sS'know'
p52
F0.018691588785046728
sS'they'
p53
F0.012461059190031152
sS'half'
p54
F0.0062305295950155761
sS'not'
p55
F0.024922118380062305
sS'credentials'
p56
F0.0062305295950155761
sS'now'
p57
F0.012461059190031152
sS'enter'
p58
F0.0062305295950155761
sS'him'
p59
F0.0062305295950155761
sS'advanced'
p60
F0.018691588785046728
sS'areas'
p61
F0.0062305295950155761
sS'worlds'
p62
F0.0062305295950155761
sS'name'
p63
F0.0062305295950155761
sS'success'
p64
F0.0062305295950155761
sS'did'
p65
F0.0062305295950155761
sS'university'
p66
F0.012461059190031152
sS'hunt'
p67
F0.0062305295950155761
sS'list'
p68
F0.0062305295950155761
sS'shape'
p69
F0.0062305295950155761
sS'try'
p70
F0.012461059190031152
sS'merge'
p71
F0.0062305295950155761
sS'someone'
p72
F0.018691588785046728
sS'stuff'
p73
F0.0062305295950155761
sS'whipped'
p74
F0.0031152647975077881
sS'each'
p75
F0.0062305295950155761
sS'release'
p76
F0.0062305295950155761
sS'finishing'
p77
F0.0062305295950155761
sS'out'
p78
F0.0062305295950155761
sS'wrote'
p79
F0.018691588785046728
sS'commonwealth'
p80
F0.0062305295950155761
sS'ass'
p81
F0.0031152647975077881
sS'because'
p82
F0.012461059190031152
sS'financial'
p83
F0.0062305295950155761
sS'methods'
p84
F0.0062305295950155761
sS'people'
p85
F0.0062305295950155761
sS'do'
p86
F0.018691588785046728
sS'energy'
p87
F0.012461059190031152
sS'some'
p88
F0.012461059190031152
sS'feel'
p89
F0.0062305295950155761
sS'see'
p90
F0.0062305295950155761
sS'defense'
p91
F0.0062305295950155761
sS'are'
p92
F0.018691588785046728
sS'fail'
p93
F0.0062305295950155761
sS'mine'
p94
F0.0062305295950155761
sS'best'
p95
F0.0062305295950155761
sS'concern'
p96
F0.0062305295950155761
sS'even'
p97
F0.012461059190031152
sS'appear'
p98
F0.0062305295950155761
sS'what'
p99
F0.031152647975077882
sS'errors'
p100
F0.0062305295950155761
sS'funding'
p101
F0.0062305295950155761
sS'network'
p102
F0.012461059190031152
sS'for'
p103
F0.056074766355140186
sS'clock'
p104
F0.0062305295950155761
sS'giving'
p105
F0.0062305295950155761
sS'tried'
p106
F0.0062305295950155761
sS'since'
p107
F0.012461059190031152
sS'please'
p108
F0.012461059190031152
sS'brief'
p109
F0.0062305295950155761
sS'models'
p110
F0.043613707165109032
sS'state'
p111
F0.012461059190031152
sS'does'
p112
F0.0062305295950155761
sS'above'
p113
F0.0062305295950155761
sS'new'
p114
F0.031152647975077882
sS'adaptive'
p115
F0.012461059190031152
sS'spot'
p116
F0.0062305295950155761
sS'obligated'
p117
F0.0062305295950155761
sS'available'
p118
F0.012461059190031152
sS'be'
p119
F0.024922118380062305
sS'we'
p120
F0.0062305295950155761
sS'felt'
p121
F0.0062305295950155761
sS'recently'
p122
F0.0062305295950155761
sS'ability'
p123
F0.0062305295950155761
sS'power'
p124
F0.012461059190031152
sS'marketing'
p125
F0.0062305295950155761
sS'attention'
p126
F0.0062305295950155761
sS'deliver'
p127
F0.0062305295950155761
sS'here'
p128
F0.012461059190031152
sS'like'
p129
F0.0062305295950155761
sS'labs'
p130
F0.0062305295950155761
sS'base'
p131
F0.0062305295950155761
sS'let'
p132
F0.012461059190031152
sS'besides'
p133
F0.0062305295950155761
sS'making'
p134
F0.012461059190031152
sS'put'
p135
F0.0062305295950155761
sS'modeling'
p136
F0.0062305295950155761
sS'along'
p137
F0.0062305295950155761
sS'invented'
p138
F0.0062305295950155761
sS'remainder'
p139
F0.0062305295950155761
sS'by'
p140
F0.018691588785046728
sS'care'
p141
F0.0062305295950155761
sS'on'
p142
F0.037383177570093455
sS'enormous'
p143
F0.0062305295950155761
sS'last'
p144
F0.0062305295950155761
sS'would'
p145
F0.0062305295950155761
sS'anything'
p146
F0.0062305295950155761
sS'package'
p147
F0.0062305295950155761
sS'of'
p148
F0.13084112149532709
sS'trader'
p149
F0.0062305295950155761
sS'hes'
p150
F0.0062305295950155761
sS'graduation'
p151
F0.012461059190031152
sS'thing'
p152
F0.0062305295950155761
sS'guy'
p153
F0.012461059190031152
sS'smoke'
p154
F0.0062305295950155761
sS'leading'
p155
F0.012461059190031152
sS'studies'
p156
F0.0062305295950155761
sS'or'
p157
F0.0062305295950155761
sS'comes'
p158
F0.0062305295950155761
sS'first'
p159
F0.0062305295950155761
sS'load'
p160
F0.031152647975077882
sS'and'
p161
F0.11214953271028037
sS'forecasting'
p162
F0.024922118380062305
sS'own'
p163
F0.012461059190031152
sS'family'
p164
F0.0062305295950155761
sS'forecaster'
p165
F0.0062305295950155761
sS'lending'
p166
F0.0062305295950155761
sS'within'
p167
F0.0062305295950155761
sS'awaited'
p168
F0.0062305295950155761
sS'highly'
p169
F0.0062305295950155761
sS'set'
p170
F0.012461059190031152
sS'opportunities'
p171
F0.0062305295950155761
sS'learning'
p172
F0.031152647975077882
sS'offer'
p173
F0.0062305295950155761
sS'proportional'
p174
F0.0062305295950155761
sS'your'
p175
F0.024922118380062305
sS'millions'
p176
F0.012461059190031152
sS'has'
p177
F0.0093457943925233638
sS'from'
p178
F0.024922118380062305
sS'forwarded'
p179
F0.0062305295950155761
sS'working'
p180
F0.012461059190031152
sS'area'
p181
F0.0062305295950155761
sS'inductive'
p182
F0.024922118380062305
sS'until'
p183
F0.0062305295950155761
sS'give'
p184
F0.012461059190031152
sS'system'
p185
F0.0062305295950155761
sS'been'
p186
F0.0062305295950155761
sS'next'
p187
F0.0062305295950155761
sS'whom'
p188
F0.0062305295950155761
sS'much'
p189
F0.0062305295950155761
sS'come'
p190
F0.0062305295950155761
sS'asset'
p191
F0.0062305295950155761
sS'way'
p192
F0.012461059190031152
sS'john'
p193
F0.0062305295950155761
sS'assessment'
p194
F0.0062305295950155761
sS'final'
p195
F0.0062305295950155761
sS'more'
p196
F0.0062305295950155761
sS'engine'
p197
F0.012461059190031152
sS'project'
p198
F0.0062305295950155761
sS'himself'
p199
F0.0062305295950155761
sS'knows'
p200
F0.012461059190031152
sS'form'
p201
F0.0062305295950155761
sS'that'
p202
F0.11526479750778816
sS'something'
p203
F0.0062305295950155761
sS'oppressed'
p204
F0.0062305295950155761
sS'company'
p205
F0.0062305295950155761
sS'feared'
p206
F0.0062305295950155761
sS'training'
p207
F0.0062305295950155761
sS'else'
p208
F0.0062305295950155761
sS'flaws'
p209
F0.0062305295950155761
sS'released'
p210
F0.0062305295950155761
sS'finished'
p211
F0.0062305295950155761
sS'part'
p212
F0.0062305295950155761
sS'too'
p213
F0.0062305295950155761
sS'nut'
p214
F0.0062305295950155761
sS'probably'
p215
F0.0062305295950155761
sS'believe'
p216
F0.012461059190031152
sS'with'
p217
F0.040498442367601244
sS'than'
p218
F0.012461059190031152
sS'those'
p219
F0.012461059190031152
sS'he'
p220
F0.0062305295950155761
sS'me'
p221
F0.052959501557632398
sS'also'
p222
F0.012461059190031152
sS'sending'
p223
F0.0062305295950155761
sS'made'
p224
F0.0062305295950155761
sS'uncertain'
p225
F0.0062305295950155761
sS'scenario'
p226
F0.0062305295950155761
sS'talking'
p227
F0.0062305295950155761
sS'this'
p228
F0.099688473520249218
sS'was'
p229
F0.0062305295950155761
sS'challenge'
p230
F0.0062305295950155761
sS'work'
p231
F0.012461059190031152
sS'up'
p232
F0.012461059190031152
sS'act'
p233
F0.0062305295950155761
sS'will'
p234
F0.056074766355140186
sS'future'
p235
F0.012461059190031152
sS'can'
p236
F0.049844236760124609
sS'promising'
p237
F0.0062305295950155761
sS'situation'
p238
F0.0062305295950155761
sS'my'
p239
F0.10903426791277258
sS'could'
p240
F0.0062305295950155761
sS'theres'
p241
F0.0062305295950155761
sS'strongly'
p242
F0.0062305295950155761
sS'sort'
p243
F0.0062305295950155761
sS'months'
p244
F0.0062305295950155761
sS'provocative'
p245
F0.0062305295950155761
sS'computing'
p246
F0.012461059190031152
sS'tesla'
p247
F0.018691588785046728
sS'is'
p248
F0.056074766355140186
sS'sense'
p249
F0.0062305295950155761
sS'am'
p250
F0.068535825545171333
sS'it'
p251
F0.012461059190031152
sS'an'
p252
F0.012461059190031152
sS'really'
p253
F0.0062305295950155761
sS'as'
p254
F0.018691588785046728
sS'associates'
p255
F0.012461059190031152
sS'exist'
p256
F0.0062305295950155761
sS'at'
p257
F0.031152647975077882
sS'have'
p258
F0.056074766355140186
sS'in'
p259
F0.07476635514018691
sS'technology'
p260
F0.043613707165109032
sS'any'
p261
F0.0062305295950155761
sS'if'
p262
F0.037383177570093455
sS'sell'
p263
F0.012461059190031152
sS'lengthy'
p264
F0.0062305295950155761
sS'want'
p265
F0.0062305295950155761
sS'provide'
p266
F0.0062305295950155761
sS'verify'
p267
F0.018691588785046728
sS'make'
p268
F0.012461059190031152
sS'meteorology'
p269
F0.0062305295950155761
sS'immense'
p270
F0.0062305295950155761
sS'who'
p271
F0.012461059190031152
sS'data'
p272
F0.012461059190031152
sS'traders'
p273
F0.0062305295950155761
sS'very'
p274
F0.0062305295950155761
sS'discredit'
p275
F0.0062305295950155761
sS'other'
p276
F0.012461059190031152
sS'take'
p277
F0.0062305295950155761
sS'unleash'
p278
F0.0062305295950155761
sS'department'
p279
F0.0062305295950155761
sS'disappoint'
p280
F0.0062305295950155761
sS'you'
p281
F0.080996884735202487
sS'subject'
p282
F0.0062305295950155761
sS'thousand'
p283
F0.0062305295950155761
sS'day'
p284
F0.0031152647975077881
sS'accuracy'
p285
F0.012461059190031152
sS'club'
p286
F0.0031152647975077881
sS'fairly'
p287
F0.012461059190031152
sS'multiple'
p288
F0.0062305295950155761
sS'electric'
p289
F0.012461059190031152
sS'test'
p290
F0.0062305295950155761
sS'lend'
p291
F0.0062305295950155761
sS'may'
p292
F0.0062305295950155761
sS'knew'
p293
F0.0062305295950155761
sS'convincing'
p294
F0.0062305295950155761
sS'them'
p295
F0.0062305295950155761
sS'lab'
p296
F0.0062305295950155761
sS'forecasts'
p297
F0.0062305295950155761
sS'most'
p298
F0.018691588785046728
sS'chance'
p299
F0.0062305295950155761
sS'student'
p300
F0.012461059190031152
sS'preliminary'
p301
F0.0062305295950155761
sS'nothing'
p302
F0.0062305295950155761
sS'opportunity'
p303
F0.0062305295950155761
sS'recent'
p304
F0.0062305295950155761
sS'prove'
p305
F0.0062305295950155761
sS'intellectual'
p306
F0.0062305295950155761
sS'off'
p307
F0.0062305295950155761
sS'remember'
p308
F0.0031152647975077881
sS'algorithm'
p309
F0.0062305295950155761
sS'neural'
p310
F0.012461059190031152
sS'maybe'
p311
F0.0062305295950155761
sS'many'
p312
F0.0062305295950155761
sS'well'
p313
F0.0062305295950155761
sS'compete'
p314
F0.0062305295950155761
sS'their'
p315
F0.018691588785046728
sS'ways'
p316
F0.0062305295950155761
sS'contact'
p317
F0.0062305295950155761
sS'so'
p318
F0.012461059190031152
sS'time'
p319
F0.0062305295950155761
sS'claims'
p320
F0.012461059190031152
sS'the'
p321
F0.21806853582554517
sS'software'
p322
F0.018691588785046728
s.