(dp1
S'all'
p2
F0.011049723756906077
sS'whoever'
p3
F0.001841620626151013
sS'results'
p4
F0.001841620626151013
sS'month'
p5
F0.001841620626151013
sS'laura'
p6
F0.0055248618784530384
sS'comments'
p7
F0.001841620626151013
sS'go'
p8
F0.001841620626151013
sS'colleen'
p9
F0.011049723756906077
sS'issues'
p10
F0.001841620626151013
sS'aria'
p11
F0.001841620626151013
sS'send'
p12
F0.001841620626151013
sS'to'
p13
F0.093922651933701654
sS'include'
p14
F0.011049723756906077
sS'sent'
p15
F0.0055248618784530384
sS'ta'
p16
F0.001841620626151013
sS'me'
p17
F0.0055248618784530384
sS'fax'
p18
F0.0036832412523020259
sS'returned'
p19
F0.001841620626151013
sS'very'
p20
F0.0092081031307550652
sS'connects'
p21
F0.001841620626151013
sS'induce'
p22
F0.001841620626151013
sS'additional'
p23
F0.011049723756906077
sS'level'
p24
F0.001841620626151013
sS'list'
p25
F0.001841620626151013
sS'wednesday'
p26
F0.0036832412523020259
sS'deals'
p27
F0.001841620626151013
sS'harry'
p28
F0.001841620626151013
sS'the'
p29
F0.12154696132596685
sS'sign'
p30
F0.0036832412523020259
sS'cost'
p31
F0.0036832412523020259
sS'specs'
p32
F0.001841620626151013
sS'victor'
p33
F0.0036832412523020259
sS'what'
p34
F0.01289134438305709
sS'assistance'
p35
F0.001841620626151013
sS'near'
p36
F0.001841620626151013
sS'current'
p37
F0.001841620626151013
sS'waiting'
p38
F0.001841620626151013
sS'version'
p39
F0.0036832412523020259
sS'above'
p40
F0.001841620626151013
sS'new'
p41
F0.01289134438305709
sS'filled'
p42
F0.001841620626151013
sS'full'
p43
F0.001841620626151013
sS'transportation'
p44
F0.0036832412523020259
sS'here'
p45
F0.0036832412523020259
sS'met'
p46
F0.001841620626151013
sS'let'
p47
F0.0036832412523020259
sS'lev'
p48
F0.001841620626151013
sS'address'
p49
F0.0055248618784530384
sS'along'
p50
F0.001841620626151013
sS'box'
p51
F0.001841620626151013
sS'great'
p52
F0.001841620626151013
sS'kids'
p53
F0.0073664825046040518
sS'receive'
p54
F0.0055248618784530384
sS'my'
p55
F0.014732965009208104
sS'employees'
p56
F0.001841620626151013
sS'changed'
p57
F0.001841620626151013
sS'reports'
p58
F0.0036832412523020259
sS'leaving'
p59
F0.001841620626151013
sS'credit'
p60
F0.001841620626151013
sS'survey'
p61
F0.001841620626151013
sS'bob'
p62
F0.001841620626151013
sS'options'
p63
F0.0036832412523020259
sS'via'
p64
F0.0055248618784530384
sS'addresses'
p65
F0.001841620626151013
sS'use'
p66
F0.0036832412523020259
sS'fee'
p67
F0.0055248618784530384
sS'from'
p68
F0.0073664825046040518
sS'working'
p69
F0.0036832412523020259
sS'shack'
p70
F0.001841620626151013
sS'chi'
p71
F0.001841620626151013
sS'hospital'
p72
F0.001841620626151013
sS'visit'
p73
F0.001841620626151013
sS'two'
p74
F0.0036832412523020259
sS'next'
p75
F0.0055248618784530384
sS'type'
p76
F0.001841620626151013
sS'until'
p77
F0.0036832412523020259
sS'today'
p78
F0.001841620626151013
sS'more'
p79
F0.001841620626151013
sS'entrance'
p80
F0.001841620626151013
sS'said'
p81
F0.001841620626151013
sS'on'
p82
F0.0570902394106814
sS'clearly'
p83
F0.001841620626151013
sS'company'
p84
F0.001841620626151013
sS'yahoo'
p85
F0.0036832412523020259
sS'telephone'
p86
F0.001841620626151013
sS'interaction'
p87
F0.001841620626151013
sS'behalf'
p88
F0.001841620626151013
sS'must'
p89
F0.001841620626151013
sS'customer'
p90
F0.0055248618784530384
sS'majority'
p91
F0.001841620626151013
sS'room'
p92
F0.0036832412523020259
sS'this'
p93
F0.023941068139963169
sS'car'
p94
F0.001841620626151013
sS'work'
p95
F0.0036832412523020259
sS'del'
p96
F0.001841620626151013
sS'can'
p97
F0.0073664825046040518
sS'following'
p98
F0.0073664825046040518
sS'deb'
p99
F0.001841620626151013
sS'carmen'
p100
F0.001841620626151013
sS'gloria'
p101
F0.001841620626151013
sS'indicated'
p102
F0.001841620626151013
sS'jacqueline'
p103
F0.001841620626151013
sS'accept'
p104
F0.0073664825046040518
sS'want'
p105
F0.0036832412523020259
sS'pinto'
p106
F0.001841620626151013
sS'information'
p107
F0.0055248618784530384
sS'educational'
p108
F0.001841620626151013
sS'requirements'
p109
F0.0073664825046040518
sS'eng'
p110
F0.001841620626151013
sS'provide'
p111
F0.0036832412523020259
sS'write'
p112
F0.001841620626151013
sS'how'
p113
F0.0055248618784530384
sS'gate'
p114
F0.001841620626151013
sS'afternoon'
p115
F0.001841620626151013
sS'inputs'
p116
F0.001841620626151013
sS'buildings'
p117
F0.001841620626151013
sS'mar'
p118
F0.001841620626151013
sS'may'
p119
F0.011049723756906077
sS'after'
p120
F0.001841620626151013
sS'needs'
p121
F0.001841620626151013
sS'date'
p122
F0.0036832412523020259
sS'concannon'
p123
F0.001841620626151013
sS'short'
p124
F0.001841620626151013
sS'appreciate'
p125
F0.0036832412523020259
sS'so'
p126
F0.001841620626151013
sS'pay'
p127
F0.001841620626151013
sS'order'
p128
F0.001841620626151013
sS'tammy'
p129
F0.001841620626151013
sS'interpretation'
p130
F0.001841620626151013
sS'feedback'
p131
F0.001841620626151013
sS'enter'
p132
F0.001841620626151013
sS'move'
p133
F0.0036832412523020259
sS'soon'
p134
F0.001841620626151013
sS'years'
p135
F0.0055248618784530384
sS'enclose'
p136
F0.001841620626151013
sS'still'
p137
F0.0055248618784530384
sS'before'
p138
F0.001841620626151013
sS'group'
p139
F0.0036832412523020259
sS'thank'
p140
F0.0092081031307550652
sS'located'
p141
F0.001841620626151013
sS'writing'
p142
F0.001841620626151013
sS'better'
p143
F0.001841620626151013
sS'scot'
p144
F0.001841620626151013
sS'choose'
p145
F0.001841620626151013
sS'mail'
p146
F0.001841620626151013
sS'weeks'
p147
F0.0055248618784530384
sS'recipients'
p148
F0.0036832412523020259
sS'hunter'
p149
F0.001841620626151013
sS'records'
p150
F0.001841620626151013
sS'they'
p151
F0.0055248618784530384
sS'not'
p152
F0.01841620626151013
sS'now'
p153
F0.0036832412523020259
sS'day'
p154
F0.001841620626151013
sS'term'
p155
F0.001841620626151013
sS'document'
p156
F0.014732965009208104
sS'name'
p157
F0.0036832412523020259
sS'morris'
p158
F0.001841620626151013
sS'each'
p159
F0.0036832412523020259
sS'em'
p160
F0.001841620626151013
sS'el'
p161
F0.001841620626151013
sS'domain'
p162
F0.001841620626151013
sS'lobbies'
p163
F0.001841620626151013
sS'house'
p164
F0.001841620626151013
sS'related'
p165
F0.0073664825046040518
sS'trading'
p166
F0.001841620626151013
sS'forgot'
p167
F0.0055248618784530384
sS'our'
p168
F0.0055248618784530384
sS'dawn'
p169
F0.001841620626151013
sS'event'
p170
F0.001841620626151013
sS'sandy'
p171
F0.0036832412523020259
sS'out'
p172
F0.0036832412523020259
sS'rex'
p173
F0.001841620626151013
sS'space'
p174
F0.001841620626151013
sS'dutch'
p175
F0.001841620626151013
sS'got'
p176
F0.001841620626151013
sS'cause'
p177
F0.001841620626151013
sS'correct'
p178
F0.001841620626151013
sS'processed'
p179
F0.001841620626151013
sS'benjamin'
p180
F0.001841620626151013
sS'frank'
p181
F0.0055248618784530384
sS'molly'
p182
F0.001841620626151013
sS'dependencies'
p183
F0.0055248618784530384
sS'carl'
p184
F0.001841620626151013
sS'imagine'
p185
F0.001841620626151013
sS'card'
p186
F0.0036832412523020259
sS'care'
p187
F0.0036832412523020259
sS'ate'
p188
F0.001841620626151013
sS'retained'
p189
F0.001841620626151013
sS'could'
p190
F0.001841620626151013
sS'priorities'
p191
F0.001841620626151013
sS'turn'
p192
F0.001841620626151013
sS'signature'
p193
F0.0036832412523020259
sS'first'
p194
F0.0073664825046040518
sS'there'
p195
F0.0055248618784530384
sS'number'
p196
F0.0073664825046040518
sS'fancy'
p197
F0.001841620626151013
sS'one'
p198
F0.0055248618784530384
sS'production'
p199
F0.0036832412523020259
sS'utilized'
p200
F0.001841620626151013
sS'done'
p201
F0.001841620626151013
sS'reached'
p202
F0.001841620626151013
sS'ring'
p203
F0.0036832412523020259
sS'cris'
p204
F0.001841620626151013
sS'sheet'
p205
F0.001841620626151013
sS'service'
p206
F0.0036832412523020259
sS'start'
p207
F0.001841620626151013
sS'together'
p208
F0.001841620626151013
sS'elevator'
p209
F0.0036832412523020259
sS'draft'
p210
F0.001841620626151013
sS'listed'
p211
F0.001841620626151013
sS'tom'
p212
F0.001841620626151013
sS'john'
p213
F0.022099447513812154
sS'final'
p214
F0.0036832412523020259
sS'circulate'
p215
F0.001841620626151013
sS'that'
p216
F0.011049723756906077
sS'hum'
p217
F0.001841620626151013
sS'completed'
p218
F0.001841620626151013
sS'park'
p219
F0.001841620626151013
sS'copy'
p220
F0.0036832412523020259
sS'than'
p221
F0.0036832412523020259
sS'unfortunately'
p222
F0.001841620626151013
sS'acknowledgement'
p223
F0.0036832412523020259
sS'bed'
p224
F0.0036832412523020259
sS'project'
p225
F0.001841620626151013
sS'street'
p226
F0.001841620626151013
sS'were'
p227
F0.0092081031307550652
sS'and'
p228
F0.053406998158379376
sS'have'
p229
F0.025782688766114181
sS'need'
p230
F0.0092081031307550652
sS'orders'
p231
F0.001841620626151013
sS'sell'
p232
F0.001841620626151013
sS'form'
p233
F0.0036832412523020259
sS'pa'
p234
F0.001841620626151013
sS'click'
p235
F0.001841620626151013
sS'note'
p236
F0.001841620626151013
sS'also'
p237
F0.0055248618784530384
sS'take'
p238
F0.0036832412523020259
sS'which'
p239
F0.0055248618784530384
sS'lis'
p240
F0.001841620626151013
sS'sherry'
p241
F0.0036832412523020259
sS'added'
p242
F0.001841620626151013
sS'who'
p243
F0.0036832412523020259
sS'reach'
p244
F0.001841620626151013
sS'paid'
p245
F0.001841620626151013
sS'victoria'
p246
F0.0036832412523020259
sS'most'
p247
F0.001841620626151013
sS'regular'
p248
F0.001841620626151013
sS'letter'
p249
F0.0036832412523020259
sS'phase'
p250
F0.011049723756906077
sS'accepting'
p251
F0.001841620626151013
sS'beth'
p252
F0.0073664825046040518
sS'pages'
p253
F0.001841620626151013
sS'maria'
p254
F0.001841620626151013
sS'ka'
p255
F0.001841620626151013
sS'don'
p256
F0.001841620626151013
sS'garages'
p257
F0.001841620626151013
sS'later'
p258
F0.001841620626151013
sS'request'
p259
F0.0092081031307550652
sS'pipe'
p260
F0.001841620626151013
sS'definitely'
p261
F0.001841620626151013
sS'mailing'
p262
F0.0036832412523020259
sS'institutions'
p263
F0.0055248618784530384
sS'signatures'
p264
F0.0036832412523020259
sS'please'
p265
F0.025782688766114181
sS'troy'
p266
F0.001841620626151013
sS'spaces'
p267
F0.0036832412523020259
sS'fletcher'
p268
F0.001841620626151013
sS'corner'
p269
F0.001841620626151013
sS'find'
p270
F0.0073664825046040518
sS'access'
p271
F0.001841620626151013
sS'jay'
p272
F0.001841620626151013
sS'finalized'
p273
F0.001841620626151013
sS'should'
p274
F0.0036832412523020259
sS'only'
p275
F0.0036832412523020259
sS'going'
p276
F0.001841620626151013
sS'hope'
p277
F0.001841620626151013
sS'do'
p278
F0.0092081031307550652
sS'his'
p279
F0.001841620626151013
sS'get'
p280
F0.001841620626151013
sS'designated'
p281
F0.001841620626151013
sS'bear'
p282
F0.001841620626151013
sS'cannot'
p283
F0.001841620626151013
sS'rest'
p284
F0.001841620626151013
sS'pretending'
p285
F0.001841620626151013
sS'reply'
p286
F0.001841620626151013
sS'report'
p287
F0.016574585635359115
sS'during'
p288
F0.001841620626151013
sS'him'
p289
F0.001841620626151013
sS'regarding'
p290
F0.0036832412523020259
sS'requesting'
p291
F0.0036832412523020259
sS'roger'
p292
F0.001841620626151013
sS'she'
p293
F0.0055248618784530384
sS'contain'
p294
F0.001841620626151013
sS'including'
p295
F0.001841620626151013
sS'where'
p296
F0.001841620626151013
sS'vision'
p297
F0.001841620626151013
sS'achieved'
p298
F0.0036832412523020259
sS'testing'
p299
F0.0036832412523020259
sS'packet'
p300
F0.001841620626151013
sS'seat'
p301
F0.001841620626151013
sS'are'
p302
F0.023941068139963169
sS'parking'
p303
F0.011049723756906077
sS'subject'
p304
F0.001841620626151013
sS'tammie'
p305
F0.0036832412523020259
sS'capacity'
p306
F0.0036832412523020259
sS'currently'
p307
F0.001841620626151013
sS'circulating'
p308
F0.001841620626151013
sS'outside'
p309
F0.001841620626151013
sS'score'
p310
F0.027624309392265192
sS'it'
p311
F0.0092081031307550652
sS'checks'
p312
F0.001841620626151013
sS'bought'
p313
F0.001841620626151013
sS'available'
p314
F0.0036832412523020259
sS'we'
p315
F0.023941068139963169
sS'opening'
p316
F0.001841620626151013
sS'however'
p317
F0.001841620626151013
sS'joe'
p318
F0.001841620626151013
sS'come'
p319
F0.0055248618784530384
sS'kitchen'
p320
F0.0055248618784530384
sS'received'
p321
F0.001841620626151013
sS'dates'
p322
F0.001841620626151013
sS'last'
p323
F0.001841620626151013
sS'many'
p324
F0.0036832412523020259
sS'ill'
p325
F0.0055248618784530384
sS'brad'
p326
F0.0073664825046040518
sS'requests'
p327
F0.0036832412523020259
sS'groups'
p328
F0.001841620626151013
sS'bell'
p329
F0.001841620626151013
sS'satisfaction'
p330
F0.001841620626151013
sS'basis'
p331
F0.0036832412523020259
sS'monthly'
p332
F0.001841620626151013
sS'copies'
p333
F0.001841620626151013
sS'been'
p334
F0.001841620626151013
sS'mark'
p335
F0.0092081031307550652
sS'subsidy'
p336
F0.001841620626151013
sS'much'
p337
F0.001841620626151013
sS'pe'
p338
F0.001841620626151013
sS'meeting'
p339
F0.0073664825046040518
sS'wants'
p340
F0.001841620626151013
sS'mike'
p341
F0.0055248618784530384
sS'both'
p342
F0.001841620626151013
sS'gas'
p343
F0.0036832412523020259
sS'offers'
p344
F0.001841620626151013
sS'understand'
p345
F0.001841620626151013
sS'representative'
p346
F0.0036832412523020259
sS'child'
p347
F0.0036832412523020259
sS'present'
p348
F0.001841620626151013
sS'paying'
p349
F0.0036832412523020259
sS'look'
p350
F0.001841620626151013
sS'these'
p351
F0.0036832412523020259
sS'enrollment'
p352
F0.0055248618784530384
sS'bill'
p353
F0.001841620626151013
sS'cash'
p354
F0.001841620626151013
sS'will'
p355
F0.038674033149171269
sS'ail'
p356
F0.001841620626151013
sS'while'
p357
F0.001841620626151013
sS'expiration'
p358
F0.001841620626151013
sS'robin'
p359
F0.001841620626151013
sS'veronica'
p360
F0.0036832412523020259
sS'is'
p361
F0.023941068139963169
sS'site'
p362
F0.001841620626151013
sS'arrangements'
p363
F0.001841620626151013
sS'in'
p364
F0.036832412523020261
sS'if'
p365
F0.01841620626151013
sS'pat'
p366
F0.001841620626151013
sS'doctor'
p367
F0.001841620626151013
sS'suggest'
p368
F0.0055248618784530384
sS'same'
p369
F0.001841620626151013
sS'any'
p370
F0.0073664825046040518
sS'highlighted'
p371
F0.001841620626151013
sS'units'
p372
F0.001841620626151013
sS'ruth'
p373
F0.001841620626151013
sS'pam'
p374
F0.001841620626151013
sS'week'
p375
F0.011049723756906077
sS'used'
p376
F0.001841620626151013
sS'fuss'
p377
F0.001841620626151013
sS'reporting'
p378
F0.0036832412523020259
sS'hand'
p379
F0.001841620626151013
sS'director'
p380
F0.001841620626151013
sS'stairwell'
p381
F0.001841620626151013
sS'recent'
p382
F0.001841620626151013
sS'tracking'
p383
F0.001841620626151013
sS'off'
p384
F0.0073664825046040518
sS'center'
p385
F0.016574585635359115
sS'older'
p386
F0.001841620626151013
sS'floor'
p387
F0.001841620626151013
sS'person'
p388
F0.0036832412523020259
sS'contact'
p389
F0.001841620626151013
sS'entry'
p390
F0.001841620626151013
sS'jean'
p391
F0.001841620626151013
sS'spend'
p392
F0.001841620626151013
sS'left'
p393
F0.0036832412523020259
sS'summer'
p394
F0.001841620626151013
sS'just'
p395
F0.0073664825046040518
sS'less'
p396
F0.001841620626151013
sS'being'
p397
F0.0036832412523020259
sS'money'
p398
F0.001841620626151013
sS'obtain'
p399
F0.001841620626151013
sS'storey'
p400
F0.0092081031307550652
sS'inception'
p401
F0.0055248618784530384
sS'financially'
p402
F0.001841620626151013
sS'thanks'
p403
F0.0092081031307550652
sS'questions'
p404
F0.011049723756906077
sS'previous'
p405
F0.001841620626151013
sS'web'
p406
F0.001841620626151013
sS'stairways'
p407
F0.001841620626151013
sS'application'
p408
F0.0055248618784530384
sS'drew'
p409
F0.001841620626151013
sS'add'
p410
F0.001841620626151013
sS'other'
p411
F0.001841620626151013
sS'excited'
p412
F0.001841620626151013
sS'scheduled'
p413
F0.001841620626151013
sS'march'
p414
F0.0055248618784530384
sS'around'
p415
F0.0036832412523020259
sS'appreciated'
p416
F0.001841620626151013
sS'format'
p417
F0.001841620626151013
sS'early'
p418
F0.001841620626151013
sS'five'
p419
F0.001841620626151013
sS'know'
p420
F0.0055248618784530384
sS'birth'
p421
F0.001841620626151013
sS'desk'
p422
F0.0036832412523020259
sS'recipient'
p423
F0.001841620626151013
sS'developers'
p424
F0.001841620626151013
sS'necessary'
p425
F0.001841620626151013
sS'future'
p426
F0.001841620626151013
sS'communications'
p427
F0.0073664825046040518
sS'martin'
p428
F0.001841620626151013
sS'served'
p429
F0.001841620626151013
sS'because'
p430
F0.0036832412523020259
sS'old'
p431
F0.0036832412523020259
sS'methods'
p432
F0.001841620626151013
sS'deal'
p433
F0.0036832412523020259
sS'people'
p434
F0.001841620626151013
sS'some'
p435
F0.0036832412523020259
sS'shes'
p436
F0.001841620626151013
sS'curious'
p437
F0.001841620626151013
sS'peter'
p438
F0.001841620626151013
sS'for'
p439
F0.049723756906077346
sS'garage'
p440
F0.01289134438305709
sS'per'
p441
F0.001841620626151013
sS'asking'
p442
F0.001841620626151013
sS'exit'
p443
F0.0036832412523020259
sS'anna'
p444
F0.001841620626151013
sS'be'
p445
F0.044198895027624308
sS'business'
p446
F0.001841620626151013
sS'clay'
p447
F0.001841620626151013
sS'tuition'
p448
F0.0036832412523020259
sS'although'
p449
F0.001841620626151013
sS'become'
p450
F0.001841620626151013
sS'lottery'
p451
F0.0036832412523020259
sS'carol'
p452
F0.001841620626151013
sS'by'
p453
F0.016574585635359115
sS'faith'
p454
F0.001841620626151013
sS'about'
p455
F0.001841620626151013
sS'would'
p456
F0.0092081031307550652
sS'of'
p457
F0.027624309392265192
sS'oe'
p458
F0.001841620626151013
sS'teddy'
p459
F0.001841620626151013
sS'visa'
p460
F0.001841620626151013
sS'greatly'
p461
F0.001841620626151013
sS'chow'
p462
F0.001841620626151013
sS'or'
p463
F0.016574585635359115
sS'op'
p464
F0.001841620626151013
sS'consulting'
p465
F0.001841620626151013
sS'own'
p466
F0.0036832412523020259
sS'statements'
p467
F0.001841620626151013
sS'within'
p468
F0.001841620626151013
sS'three'
p469
F0.001841620626151013
sS'services'
p470
F0.001841620626151013
sS'determine'
p471
F0.001841620626151013
sS'registration'
p472
F0.001841620626151013
sS'your'
p473
F0.042357274401473299
sS'van'
p474
F0.001841620626151013
sS'forwarded'
p475
F0.0073664825046040518
sS'her'
p476
F0.001841620626151013
sS'initial'
p477
F0.0036832412523020259
sS'approximate'
p478
F0.001841620626151013
sS'chard'
p479
F0.001841620626151013
sS'stuck'
p480
F0.001841620626151013
sS'joseph'
p481
F0.001841620626151013
sS'forward'
p482
F0.001841620626151013
sS'parkers'
p483
F0.001841620626151013
sS'was'
p484
F0.0036832412523020259
sS'building'
p485
F0.001841620626151013
sS'north'
p486
F0.001841620626151013
sS'complete'
p487
F0.0036832412523020259
sS'offering'
p488
F0.001841620626151013
sS'offer'
p489
F0.0055248618784530384
sS'but'
p490
F0.0036832412523020259
sS'payable'
p491
F0.001841620626151013
sS'link'
p492
F0.001841620626151013
sS'with'
p493
F0.01841620626151013
sS'he'
p494
F0.001841620626151013
sS'pull'
p495
F0.001841620626151013
sS'made'
p496
F0.001841620626151013
sS'applying'
p497
F0.001841620626151013
sS'embedded'
p498
F0.001841620626151013
sS'rage'
p499
F0.001841620626151013
sS'whether'
p500
F0.001841620626151013
sS'official'
p501
F0.0036832412523020259
sS'attached'
p502
F0.0036832412523020259
sS'up'
p503
F0.001841620626151013
sS'us'
p504
F0.001841620626151013
sS'below'
p505
F0.001841620626151013
sS'daddy'
p506
F0.001841620626151013
sS'agree'
p507
F0.001841620626151013
sS'medication'
p508
F0.001841620626151013
sS'jenny'
p509
F0.001841620626151013
sS'am'
p510
F0.011049723756906077
sS'an'
p511
F0.011049723756906077
sS'as'
p512
F0.011049723756906077
sS'at'
p513
F0.022099447513812154
sS'home'
p514
F0.001841620626151013
sS'ay'
p515
F0.001841620626151013
sS'moves'
p516
F0.001841620626151013
sS'jesse'
p517
F0.001841620626151013
sS'again'
p518
F0.0055248618784530384
sS'heather'
p519
F0.001841620626151013
sS'no'
p520
F0.001841620626151013
sS'na'
p521
F0.001841620626151013
sS'when'
p522
F0.0036832412523020259
sS'nick'
p523
F0.001841620626151013
sS'interested'
p524
F0.001841620626151013
sS'special'
p525
F0.001841620626151013
sS'test'
p526
F0.0055248618784530384
sS'you'
p527
F0.053406998158379376
sS'really'
p528
F0.001841620626151013
sS'contacting'
p529
F0.001841620626151013
sS'lance'
p530
F0.001841620626151013
sS'faxes'
p531
F0.001841620626151013
sS'scores'
p532
F0.0092081031307550652
sS'rolling'
p533
F0.001841620626151013
sS'weekend'
p534
F0.001841620626151013
sS'ago'
p535
F0.001841620626151013
sS'pedestrians'
p536
F0.001841620626151013
sS'required'
p537
F0.001841620626151013
sS'daily'
p538
F0.001841620626151013
sS'portion'
p539
F0.001841620626151013
sS'status'
p540
F0.001841620626151013
sS'time'
p541
F0.0073664825046040518
sS'push'
p542
F0.001841620626151013
sS'stroller'
p543
F0.001841620626151013
sS'once'
p544
F0.001841620626151013
s.