(dp1
S'and'
p2
F0.022505699180288111
sS'that'
p3
F0.0091914439540185279
sS'this'
p4
F0.0099189988844157733
sS'mean_word_length'
p5
F4.8888888888888893
sS'sentence_standard_deviation'
p6
F38.616961576546792
sS'however'
p7
F0.0001212591550662075
sS'but'
p8
F0.0030072270456419459
sS'very'
p9
F0.0015036135228209729
sS'must'
p10
F0.00036377746519862249
sS'type_token_ratio'
p11
F0.8411269846567071
sS'if'
p12
F0.0075908231071445892
sS'might'
p13
F0.00029102197215889801
sS'mean_sentence_length'
p14
F30.276004402861862
sS'more'
p15
F0.0020371538051122862
s.