(dp1
S'and'
p2
F0.0040160642570281121
sS'that'
p3
F0.0040160642570281121
sS'very'
p4
F0.002008032128514056
sS'mean_word_length'
p5
F4.333333333333333
sS'however'
p6
F0
sS'but'
p7
F0.002008032128514056
sS'this'
p8
F0.012048192771084338
sS'must'
p9
F0
sS'type_token_ratio'
p10
F0.83447103857726457
sS'if'
p11
F0.006024096385542169
sS'might'
p12
F0
sS'more'
p13
F0.002008032128514056
s.