(dp1
S'and'
p2
F0.0040160642570281121
sS'that'
p3
F0.0040160642570281121
sS'very'
p4
F0.002008032128514056
sS'mean_word_length'
p5
F4.333333333333333
sS'sentence_standard_deviation'
p6
F39.305827309529079
sS'however'
p7
F0
sS'but'
p8
F0.002008032128514056
sS'this'
p9
F0.012048192771084338
sS'must'
p10
F0
sS'type_token_ratio'
p11
F0.83447103857726457
sS'if'
p12
F0.006024096385542169
sS'might'
p13
F0
sS'mean_sentence_length'
p14
F48.025641025641029
sS'more'
p15
F0.002008032128514056
s.