(dp1
S'limited'
p2
F0.0049751243781094526
sS'all'
p3
F0.012437810945273632
sS'dollar'
p4
F0.0024875621890547263
sS'month'
p5
F0.0049751243781094526
sS'go'
p6
F0.0024875621890547263
sS'follow'
p7
F0.0024875621890547263
sS'oldest'
p8
F0.0024875621890547263
sS'calculate'
p9
F0.0024875621890547263
sS'vikings'
p10
F0.0049751243781094526
sS'tariff'
p11
F0.0049751243781094526
sS'send'
p12
F0.0049751243781094526
sS'to'
p13
F0.13184079601990051
sS'charge'
p14
F0.0024875621890547263
sS'include'
p15
F0.0024875621890547263
sS'sent'
p16
F0.0099502487562189053
sS'me'
p17
F0.014925373134328358
sS'very'
p18
F0.0024875621890547263
sS'choice'
p19
F0.0049751243781094526
sS'timely'
p20
F0.0024875621890547263
sS'entire'
p21
F0.0024875621890547263
sS'leave'
p22
F0.0024875621890547263
sS'convenience'
p23
F0.0024875621890547263
sS'rack'
p24
F0.0099502487562189053
sS'talked'
p25
F0.0024875621890547263
sS'says'
p26
F0.0024875621890547263
sS'rate'
p27
F0.012437810945273632
sS'what'
p28
F0.0024875621890547263
sS'above'
p29
F0.0024875621890547263
sS'new'
p30
F0.007462686567164179
sS'public'
p31
F0.0024875621890547263
sS'filled'
p32
F0.0024875621890547263
sS'told'
p33
F0.007462686567164179
sS'here'
p34
F0.0024875621890547263
sS'let'
p35
F0.0049751243781094526
sS'address'
p36
F0.0024875621890547263
sS'appears'
p37
F0.0099502487562189053
sS'change'
p38
F0.0024875621890547263
sS'sending'
p39
F0.0024875621890547263
sS'receive'
p40
F0.0024875621890547263
sS'changed'
p41
F0.0049751243781094526
sS'amount'
p42
F0.0099502487562189053
sS'changes'
p43
F0.0049751243781094526
sS'win'
p44
F0.0024875621890547263
sS'patriots'
p45
F0.0024875621890547263
sS'total'
p46
F0.0024875621890547263
sS'market'
p47
F0.0049751243781094526
sS'from'
p48
F0.014925373134328358
sS'spoke'
p49
F0.0024875621890547263
sS'consumption'
p50
F0.0049751243781094526
sS'next'
p51
F0.0024875621890547263
sS'chargers'
p52
F0.0024875621890547263
sS'call'
p53
F0.0024875621890547263
sS'tell'
p54
F0.0024875621890547263
sS'more'
p55
F0.0049751243781094526
sS'sort'
p56
F0.0049751243781094526
sS'company'
p57
F0.0049751243781094526
sS'about'
p58
F0.007462686567164179
sS'award'
p59
F0.0024875621890547263
sS'it'
p60
F0.019900497512437811
sS'melba'
p61
F0.0049751243781094526
sS'fuel'
p62
F0.007462686567164179
sS'rivalry'
p63
F0.0024875621890547263
sS'must'
p64
F0.0049751243781094526
sS'customer'
p65
F0.0099502487562189053
sS'rook'
p66
F0.0024875621890547263
sS'this'
p67
F0.024875621890547265
sS'work'
p68
F0.0049751243781094526
sS'can'
p69
F0.012437810945273632
sS'following'
p70
F0.0049751243781094526
sS'my'
p71
F0.012437810945273632
sS'example'
p72
F0.0024875621890547263
sS'control'
p73
F0.0049751243781094526
sS'give'
p74
F0.0024875621890547263
sS'accept'
p75
F0.0024875621890547263
sS'heard'
p76
F0.0049751243781094526
sS'reserves'
p77
F0.0024875621890547263
sS'something'
p78
F0.0049751243781094526
sS'information'
p79
F0.0024875621890547263
sS'needs'
p80
F0.0024875621890547263
sS'contracts'
p81
F0.0049751243781094526
sS'attachment'
p82
F0.0024875621890547263
sS'commencing'
p83
F0.0024875621890547263
sS'description'
p84
F0.0049751243781094526
sS'attend'
p85
F0.0024875621890547263
sS'may'
p86
F0.0024875621890547263
sS'natural'
p87
F0.0024875621890547263
sS'commodity'
p88
F0.0099502487562189053
sS'appreciate'
p89
F0.0024875621890547263
sS'green'
p90
F0.0099502487562189053
sS'restriction'
p91
F0.0049751243781094526
sS'executed'
p92
F0.0024875621890547263
sS'over'
p93
F0.0024875621890547263
sS'soon'
p94
F0.0049751243781094526
sS'years'
p95
F0.0049751243781094526
sS'swain'
p96
F0.0024875621890547263
sS'through'
p97
F0.0049751243781094526
sS'still'
p98
F0.0049751243781094526
sS'before'
p99
F0.0024875621890547263
sS'thank'
p100
F0.007462686567164179
sS'how'
p101
F0.0024875621890547263
sS'forms'
p102
F0.0024875621890547263
sS'offers'
p103
F0.014925373134328358
sS'main'
p104
F0.0024875621890547263
sS'northwest'
p105
F0.0049751243781094526
sS'them'
p106
F0.0024875621890547263
sS'good'
p107
F0.0024875621890547263
sS'records'
p108
F0.0024875621890547263
sS'they'
p109
F0.0049751243781094526
sS'not'
p110
F0.017412935323383085
sS'now'
p111
F0.0024875621890547263
sS'day'
p112
F0.0024875621890547263
sS'nor'
p113
F0.0024875621890547263
sS'term'
p114
F0.0024875621890547263
sS'verifying'
p115
F0.0024875621890547263
sS'fully'
p116
F0.0024875621890547263
sS'reasonably'
p117
F0.0049751243781094526
sS'reasonable'
p118
F0.0049751243781094526
sS'each'
p119
F0.017412935323383085
sS'receipt'
p120
F0.0049751243781094526
sS'goose'
p121
F0.02736318407960199
sS'trading'
p122
F0.0049751243781094526
sS'year'
p123
F0.012437810945273632
sS'our'
p124
F0.012437810945273632
sS'beyond'
p125
F0.0024875621890547263
sS'out'
p126
F0.012437810945273632
sS'space'
p127
F0.0024875621890547263
sS're'
p128
F0.007462686567164179
sS'participants'
p129
F0.0024875621890547263
sS'print'
p130
F0.0024875621890547263
sS'frank'
p131
F0.0049751243781094526
sS'base'
p132
F0.0024875621890547263
sS'california'
p133
F0.0024875621890547263
sS'publication'
p134
F0.0024875621890547263
sS'language'
p135
F0.0024875621890547263
sS'selections'
p136
F0.0024875621890547263
sS'could'
p137
F0.0024875621890547263
sS'place'
p138
F0.0024875621890547263
sS'signature'
p139
F0.0024875621890547263
sS'corrections'
p140
F0.0024875621890547263
sS'south'
p141
F0.022388059701492536
sS'first'
p142
F0.007462686567164179
sS'already'
p143
F0.0049751243781094526
sS'features'
p144
F0.0024875621890547263
sS'one'
p145
F0.0024875621890547263
sS'open'
p146
F0.019900497512437811
sS'necessarily'
p147
F0.0024875621890547263
sS'sheet'
p148
F0.007462686567164179
sS'guest'
p149
F0.0024875621890547263
sS'service'
p150
F0.029850746268656716
sS'bears'
p151
F0.0049751243781094526
sS'top'
p152
F0.0024875621890547263
sS'their'
p153
F0.0024875621890547263
sS'rates'
p154
F0.007462686567164179
sS'tom'
p155
F0.0024875621890547263
sS'percentage'
p156
F0.0024875621890547263
sS'final'
p157
F0.0024875621890547263
sS'that'
p158
F0.022388059701492536
sS'season'
p159
F0.0099502487562189053
sS'completed'
p160
F0.0024875621890547263
sS'copy'
p161
F0.007462686567164179
sS'ben'
p162
F0.007462686567164179
sS'summary'
p163
F0.0049751243781094526
sS'matter'
p164
F0.0024875621890547263
sS'were'
p165
F0.0024875621890547263
sS'providing'
p166
F0.0024875621890547263
sS'result'
p167
F0.0024875621890547263
sS'and'
p168
F0.037313432835820892
sS'tabs'
p169
F0.0024875621890547263
sS'locations'
p170
F0.0049751243781094526
sS'tonight'
p171
F0.0024875621890547263
sS'have'
p172
F0.019900497512437811
sS'need'
p173
F0.0049751243781094526
sS'any'
p174
F0.0099502487562189053
sS'vulnerable'
p175
F0.0024875621890547263
sS'ray'
p176
F0.0024875621890547263
sS'able'
p177
F0.0024875621890547263
sS'contact'
p178
F0.0024875621890547263
sS'note'
p179
F0.0049751243781094526
sS'also'
p180
F0.012437810945273632
sS'costs'
p181
F0.0024875621890547263
sS'which'
p182
F0.007462686567164179
sS'so'
p183
F0.007462686567164179
sS'play'
p184
F0.0024875621890547263
sS'sure'
p185
F0.0024875621890547263
sS'unless'
p186
F0.0024875621890547263
sS'price'
p187
F0.014925373134328358
sS'printed'
p188
F0.0024875621890547263
sS'sheets'
p189
F0.007462686567164179
sS'services'
p190
F0.0099502487562189053
sS'extremely'
p191
F0.0024875621890547263
sS'approved'
p192
F0.0024875621890547263
sS'don'
p193
F0.0024875621890547263
sS'pipe'
p194
F0.0049751243781094526
sS'charged'
p195
F0.0024875621890547263
sS'fact'
p196
F0.0024875621890547263
sS'quantity'
p197
F0.0099502487562189053
sS'playoffs'
p198
F0.0024875621890547263
sS'agreed'
p199
F0.0024875621890547263
sS'bring'
p200
F0.0024875621890547263
sS'opal'
p201
F0.0024875621890547263
sS'find'
p202
F0.0049751243781094526
sS'based'
p203
F0.0049751243781094526
sS'should'
p204
F0.007462686567164179
sS'only'
p205
F0.0024875621890547263
sS'going'
p206
F0.0024875621890547263
sS'employee'
p207
F0.0024875621890547263
sS'do'
p208
F0.007462686567164179
sS'get'
p209
F0.014925373134328358
sS'beat'
p210
F0.0049751243781094526
sS'hopefully'
p211
F0.0024875621890547263
sS'cardinals'
p212
F0.0024875621890547263
sS'during'
p213
F0.0024875621890547263
sS'regarding'
p214
F0.0024875621890547263
sS'resource'
p215
F0.0024875621890547263
sS'calling'
p216
F0.0024875621890547263
sS'she'
p217
F0.0024875621890547263
sS'withdrawal'
p218
F0.0099502487562189053
sS'including'
p219
F0.0024875621890547263
sS'river'
p220
F0.0099502487562189053
sS'where'
p221
F0.0024875621890547263
sS'set'
p222
F0.0049751243781094526
sS'human'
p223
F0.0024875621890547263
sS'fair'
p224
F0.0024875621890547263
sS'up'
p225
F0.0049751243781094526
sS'see'
p226
F0.0024875621890547263
sS'are'
p227
F0.029850746268656716
sS'close'
p228
F0.0024875621890547263
sS'ark'
p229
F0.0024875621890547263
sS'subject'
p230
F0.024875621890547265
sS'dexter'
p231
F0.0024875621890547263
sS'said'
p232
F0.0024875621890547263
sS'capacity'
p233
F0.0049751243781094526
sS'review'
p234
F0.0049751243781094526
sS'please'
p235
F0.029850746268656716
sS'state'
p236
F0.0024875621890547263
sS'between'
p237
F0.0024875621890547263
sS'conditions'
p238
F0.0024875621890547263
sS'we'
p239
F0.019900497512437811
sS'terms'
p240
F0.007462686567164179
sS'sold'
p241
F0.0024875621890547263
sS'sole'
p242
F0.0024875621890547263
sS'approval'
p243
F0.0024875621890547263
sS'improve'
p244
F0.0024875621890547263
sS'received'
p245
F0.0024875621890547263
sS'toward'
p246
F0.0024875621890547263
sS'ill'
p247
F0.0049751243781094526
sS'according'
p248
F0.0024875621890547263
sS'agree'
p249
F0.0024875621890547263
sS'brad'
p250
F0.0024875621890547263
sS'asked'
p251
F0.0024875621890547263
sS'patty'
p252
F0.0024875621890547263
sS'load'
p253
F0.0024875621890547263
sS'point'
p254
F0.0099502487562189053
sS'period'
p255
F0.017412935323383085
sS'confirm'
p256
F0.0024875621890547263
sS'described'
p257
F0.0024875621890547263
sS'monthly'
p258
F0.0024875621890547263
sS'acceptance'
p259
F0.0049751243781094526
sS'copies'
p260
F0.0024875621890547263
sS'been'
p261
F0.0024875621890547263
sS'commission'
p262
F0.0024875621890547263
sS'expected'
p263
F0.0024875621890547263
sS'firm'
p264
F0.0024875621890547263
sS'gas'
p265
F0.03482587064676617
sS'else'
p266
F0.0024875621890547263
sS'demand'
p267
F0.007462686567164179
sS'packers'
p268
F0.029850746268656716
sS'case'
p269
F0.0024875621890547263
sS'myself'
p270
F0.0024875621890547263
sS'therefor'
p271
F0.0024875621890547263
sS'bill'
p272
F0.0024875621890547263
sS'value'
p273
F0.0024875621890547263
sS'will'
p274
F0.024875621890547265
sS'wild'
p275
F0.02736318407960199
sS'trader'
p276
F0.007462686567164179
sS'resolved'
p277
F0.0024875621890547263
sS'is'
p278
F0.03482587064676617
sS'site'
p279
F0.0024875621890547263
sS'owes'
p280
F0.0024875621890547263
sS'in'
p281
F0.037313432835820892
sS'if'
p282
F0.017412935323383085
sS'confirmed'
p283
F0.0024875621890547263
sS'raiders'
p284
F0.0049751243781094526
sS'check'
p285
F0.0024875621890547263
sS'inventory'
p286
F0.0024875621890547263
sS'party'
p287
F0.0049751243781094526
sS'sat'
p288
F0.0024875621890547263
sS'week'
p289
F0.0049751243781094526
sS'used'
p290
F0.0049751243781094526
sS'negotiate'
p291
F0.0024875621890547263
sS'hand'
p292
F0.0024875621890547263
sS'transaction'
p293
F0.0049751243781094526
sS'charges'
p294
F0.0099502487562189053
sS'thought'
p295
F0.0024875621890547263
sS'practices'
p296
F0.0024875621890547263
sS'sets'
p297
F0.0024875621890547263
sS'the'
p298
F0.19402985074626866
sS'preference'
p299
F0.0024875621890547263
sS'looked'
p300
F0.0024875621890547263
sS'just'
p301
F0.007462686567164179
sS'storage'
p302
F0.037313432835820892
sS'thanks'
p303
F0.0099502487562189053
sS'questions'
p304
F0.0049751243781094526
sS'web'
p305
F0.0024875621890547263
sS'alternate'
p306
F0.0024875621890547263
sS'has'
p307
F0.007462686567164179
sS'scheduled'
p308
F0.0024875621890547263
sS'customers'
p309
F0.0024875621890547263
sS'march'
p310
F0.019900497512437811
sS'possible'
p311
F0.0024875621890547263
sS'early'
p312
F0.0024875621890547263
sS'know'
p313
F0.007462686567164179
sS'schedules'
p314
F0.0024875621890547263
sS'password'
p315
F0.0024875621890547263
sS'follows'
p316
F0.0024875621890547263
sS'manual'
p317
F0.0024875621890547263
sS'footballs'
p318
F0.0024875621890547263
sS'either'
p319
F0.0024875621890547263
sS'exceed'
p320
F0.0024875621890547263
sS'right'
p321
F0.0024875621890547263
sS'deal'
p322
F0.007462686567164179
sS'some'
p323
F0.0024875621890547263
sS'invoice'
p324
F0.0099502487562189053
sS'home'
p325
F0.0024875621890547263
sS'brent'
p326
F0.0024875621890547263
sS'provided'
p327
F0.0024875621890547263
sS'for'
p328
F0.082089552238805971
sS'bottom'
p329
F0.0024875621890547263
sS'refer'
p330
F0.0049751243781094526
sS'be'
p331
F0.032338308457711441
sS'business'
p332
F0.0024875621890547263
sS'agreement'
p333
F0.0049751243781094526
sS'update'
p334
F0.0024875621890547263
sS'by'
p335
F0.032338308457711441
sS'on'
p336
F0.05721393034825871
sS'pipeline'
p337
F0.0049751243781094526
sS'actual'
p338
F0.0024875621890547263
sS'anything'
p339
F0.0024875621890547263
sS'package'
p340
F0.0024875621890547263
sS'of'
p341
F0.089552238805970144
sS'addition'
p342
F0.0024875621890547263
sS'plus'
p343
F0.0024875621890547263
sS'or'
p344
F0.0099502487562189053
sS'plan'
p345
F0.0049751243781094526
sS'seeing'
p346
F0.0024875621890547263
sS'significant'
p347
F0.0024875621890547263
sS'into'
p348
F0.0024875621890547263
sS'down'
p349
F0.0024875621890547263
sS'your'
p350
F0.014925373134328358
sS'negotiable'
p351
F0.0024875621890547263
sS'forwarded'
p352
F0.0099502487562189053
sS'support'
p353
F0.0099502487562189053
sS'there'
p354
F0.007462686567164179
sS'long'
p355
F0.0024875621890547263
sS'joseph'
p356
F0.0024875621890547263
sS'authorized'
p357
F0.0024875621890547263
sS'was'
p358
F0.017412935323383085
sS'head'
p359
F0.0049751243781094526
sS'hard'
p360
F0.0024875621890547263
sS'north'
p361
F0.0024875621890547263
sS'offer'
p362
F0.032338308457711441
sS'but'
p363
F0.0099502487562189053
sS'volume'
p364
F0.007462686567164179
sS'injection'
p365
F0.014925373134328358
sS'highest'
p366
F0.0024875621890547263
sS'with'
p367
F0.019900497512437811
sS'he'
p368
F0.0024875621890547263
sS'attached'
p369
F0.012437810945273632
sS'maximum'
p370
F0.0099502487562189053
sS'until'
p371
F0.0024875621890547263
sS'record'
p372
F0.0024875621890547263
sS'below'
p373
F0.0024875621890547263
sS'problem'
p374
F0.0024875621890547263
sS'called'
p375
F0.0024875621890547263
sS'am'
p376
F0.007462686567164179
sS'an'
p377
F0.007462686567164179
sS'as'
p378
F0.039800995024875621
sS'at'
p379
F0.024875621890547265
sS'file'
p380
F0.012437810945273632
sS'floating'
p381
F0.0024875621890547263
sS'trip'
p382
F0.0024875621890547263
sS'again'
p383
F0.0024875621890547263
sS'excel'
p384
F0.0024875621890547263
sS'other'
p385
F0.0024875621890547263
sS'details'
p386
F0.0024875621890547263
sS'you'
p387
F0.04228855721393035
sS'acceptable'
p388
F0.0024875621890547263
sS'conclude'
p389
F0.0024875621890547263
sS'star'
p390
F0.0024875621890547263
sS'problems'
p391
F0.0024875621890547263
sS'utilities'
p392
F0.0024875621890547263
sS'town'
p393
F0.0024875621890547263
sS'meaning'
p394
F0.0024875621890547263
sS'important'
p395
F0.0024875621890547263
sS'intent'
p396
F0.0024875621890547263
sS'variable'
p397
F0.0049751243781094526
sS'priced'
p398
F0.0024875621890547263
sS'wife'
p399
F0.0049751243781094526
sS'required'
p400
F0.0099502487562189053
sS'daily'
p401
F0.014925373134328358
sS'volumes'
p402
F0.0024875621890547263
sS'far'
p403
F0.0024875621890547263
s.