(dp1
S'and'
p2
F0.013137557959814529
sS'that'
p3
F0.0077279752704791345
sS'this'
p4
F0.006955177743431221
sS'mean_word_length'
p5
F3.7894736842105261
sS'however'
p6
F0.00077279752704791343
sS'but'
p7
F0.00077279752704791343
sS'very'
p8
F0.00077279752704791343
sS'must'
p9
F0.00077279752704791343
sS'type_token_ratio'
p10
F0.9023224398150832
sS'if'
p11
F0.00077279752704791343
sS'might'
p12
F0
sS'more'
p13
F0.0015455950540958269
s.