(dp1
S'and'
p2
F0.016391126183411049
sS'that'
p3
F0.0057934152889642506
sS'this'
p4
F0.0059347181008902079
sS'mean_word_length'
p5
F5.9662921348314608
sS'sentence_standard_deviation'
p6
F60.27159519271769
sS'however'
p7
F0
sS'but'
p8
F0.0015543309311855306
sS'very'
p9
F0.00028260562385191464
sS'must'
p10
F0
sS'type_token_ratio'
p11
F0.70740928701987671
sS'if'
p12
F0.0045216899816306342
sS'might'
p13
F0.00070651405962978667
sS'mean_sentence_length'
p14
F37.592857142857142
sS'more'
p15
F0.00028260562385191464
s.