(dp1
S'and'
p2
F0.016769212208951622
sS'that'
p3
F0.0082639642900229227
sS'very'
p4
F0.0010254554228495596
sS'mean_word_length'
p5
F4
sS'however'
p6
F0.00066352997949089155
sS'but'
p7
F0.0042827844130775726
sS'this'
p8
F0.0076607552177584753
sS'more'
p9
F0.0007841717939437809
sS'if'
p10
F0.0045843889492097958
sS'might'
p11
F0.00024128362890577873
sS'must'
p12
F0.00024128362890577873
s.