(dp1
S'and'
p2
F0.015167930660888408
sS'that'
p3
F0.010834236186348862
sS'this'
p4
F0.011917659804983749
sS'mean_word_length'
p5
F3.8888888888888888
sS'sentence_standard_deviation'
p6
F39.914879807691953
sS'however'
p7
F0
sS'but'
p8
F0.0010834236186348862
sS'very'
p9
F0.0021668472372697724
sS'type_token_ratio'
p10
F0.90360214672115624
sS'more'
p11
F0
sS'must'
p12
F0.0021668472372697724
sS'might'
p13
F0
sS'mean_sentence_length'
p14
F38.414414414414416
sS'if'
p15
F0.0097508125677139759
s.