(dp1
S'directed'
p2
F0.0010834236186348862
sS'all'
p3
F0.0054171180931744311
sS'mom'
p4
F0.0010834236186348862
sS'just'
p5
F0.0010834236186348862
sS'switched'
p6
F0.0021668472372697724
sS'diesel'
p7
F0.0010834236186348862
sS'move'
p8
F0.0010834236186348862
sS'soon'
p9
F0.0021668472372697724
sS'years'
p10
F0.0010834236186348862
sS'partnered'
p11
F0.0010834236186348862
sS'bring'
p12
F0.0010834236186348862
sS'through'
p13
F0.0032502708559046588
sS'thanks'
p14
F0.014084507042253521
sS'questions'
p15
F0.0021668472372697724
sS'go'
p16
F0.0010834236186348862
sS'yep'
p17
F0.0010834236186348862
sS'yes'
p18
F0.0010834236186348862
sS'yet'
p19
F0.0010834236186348862
sS'web'
p20
F0.0010834236186348862
sS'death'
p21
F0.0021668472372697724
sS'system'
p22
F0.0010834236186348862
sS'hunting'
p23
F0.0010834236186348862
sS'how'
p24
F0.0010834236186348862
sS'thinking'
p25
F0.0010834236186348862
sS'explain'
p26
F0.0010834236186348862
sS'hope'
p27
F0.0032502708559046588
sS'seems'
p28
F0.0010834236186348862
sS'lake'
p29
F0.0010834236186348862
sS'send'
p30
F0.0010834236186348862
sS'should'
p31
F0.0021668472372697724
sS'late'
p32
F0.0010834236186348862
sS'to'
p33
F0.029252437703141929
sS'add'
p34
F0.0010834236186348862
sS'spread'
p35
F0.0010834236186348862
sS'choose'
p36
F0.0021668472372697724
sS'tiff'
p37
F0.0010834236186348862
sS'fuel'
p38
F0.0010834236186348862
sS'enthusiasm'
p39
F0.0010834236186348862
sS'sorry'
p40
F0.0021668472372697724
sS'must'
p41
F0.0021668472372697724
sS'occur'
p42
F0.0010834236186348862
sS'excited'
p43
F0.0010834236186348862
sS'hates'
p44
F0.0010834236186348862
sS'gave'
p45
F0.0010834236186348862
sS'dad'
p46
F0.0010834236186348862
sS'do'
p47
F0.0043336944745395447
sS'them'
p48
F0.0010834236186348862
sS'his'
p49
F0.0010834236186348862
sS'around'
p50
F0.0032502708559046588
sS'get'
p51
F0.0021668472372697724
sS'read'
p52
F0.0021668472372697724
sS'safe'
p53
F0.0021668472372697724
sS'invitation'
p54
F0.0010834236186348862
sS'early'
p55
F0.0010834236186348862
sS'me'
p56
F0.013001083423618635
sS'game'
p57
F0.0010834236186348862
sS'were'
p58
F0.0021668472372697724
sS'know'
p59
F0.0032502708559046588
sS'they'
p60
F0.0010834236186348862
sS'instead'
p61
F0.0010834236186348862
sS'not'
p62
F0.011917659804983749
sS'during'
p63
F0.0010834236186348862
sS'now'
p64
F0.0032502708559046588
sS'killed'
p65
F0.0010834236186348862
sS'look'
p66
F0.0021668472372697724
sS'school'
p67
F0.0010834236186348862
sS'gets'
p68
F0.0010834236186348862
sS'like'
p69
F0.0010834236186348862
sS'explorer'
p70
F0.0010834236186348862
sS'did'
p71
F0.0043336944745395447
sS'fully'
p72
F0.0010834236186348862
sS'anytime'
p73
F0.0010834236186348862
sS'hunt'
p74
F0.0010834236186348862
sS'arrows'
p75
F0.0010834236186348862
sS'try'
p76
F0.0010834236186348862
sS'these'
p77
F0.0010834236186348862
sS'good'
p78
F0.0032502708559046588
sS'brush'
p79
F0.0010834236186348862
sS'she'
p80
F0.0010834236186348862
sS'each'
p81
F0.0010834236186348862
sS'employees'
p82
F0.0010834236186348862
sS'went'
p83
F0.0010834236186348862
sS'told'
p84
F0.0010834236186348862
sS'page'
p85
F0.0010834236186348862
sS'looks'
p86
F0.0010834236186348862
sS'available'
p87
F0.0021668472372697724
sS'talked'
p88
F0.0032502708559046588
sS'old'
p89
F0.0021668472372697724
sS'version'
p90
F0.0010834236186348862
sS'deal'
p91
F0.0010834236186348862
sS'understand'
p92
F0.0010834236186348862
sS'mechanism'
p93
F0.0010834236186348862
sS'some'
p94
F0.0010834236186348862
sS'back'
p95
F0.0010834236186348862
sS'phone'
p96
F0.0010834236186348862
sS'see'
p97
F0.0010834236186348862
sS'oil'
p98
F0.0010834236186348862
sS'trading'
p99
F0.0021668472372697724
sS'are'
p100
F0.0065005417118093175
sS'our'
p101
F0.0010834236186348862
sS'click'
p102
F0.0010834236186348862
sS'after'
p103
F0.0021668472372697724
sS'out'
p104
F0.0065005417118093175
sS'capability'
p105
F0.0010834236186348862
sS'what'
p106
F0.0054171180931744311
sS'interview'
p107
F0.0010834236186348862
sS'both'
p108
F0.0010834236186348862
sS'for'
p109
F0.016251354279523293
sS'shares'
p110
F0.0021668472372697724
sS'longhorns'
p111
F0.0010834236186348862
sS'please'
p112
F0.0086673889490790895
sS'per'
p113
F0.0010834236186348862
sS'find'
p114
F0.0032502708559046588
sS'access'
p115
F0.0021668472372697724
sS'outside'
p116
F0.0010834236186348862
sS'breakout'
p117
F0.0010834236186348862
sS'content'
p118
F0.0010834236186348862
sS'reviewers'
p119
F0.0010834236186348862
sS'burke'
p120
F0.0010834236186348862
sS'can'
p121
F0.0075839653304442039
sS'cost'
p122
F0.0010834236186348862
sS'be'
p123
F0.0097508125677139759
sS'we'
p124
F0.0021668472372697724
sS'knew'
p125
F0.0010834236186348862
sS'any'
p126
F0.0032502708559046588
sS'tiffany'
p127
F0.0010834236186348862
sS'never'
p128
F0.0021668472372697724
sS'subject'
p129
F0.0032502708559046588
sS'here'
p130
F0.0010834236186348862
sS'update'
p131
F0.0010834236186348862
sS'test'
p132
F0.0010834236186348862
sS'let'
p133
F0.0021668472372697724
sS'wear'
p134
F0.0010834236186348862
sS'stamps'
p135
F0.0010834236186348862
sS'article'
p136
F0.0032502708559046588
sS'come'
p137
F0.0010834236186348862
sS'by'
p138
F0.0065005417118093175
sS'change'
p139
F0.0010834236186348862
sS'log'
p140
F0.0010834236186348862
sS'on'
p141
F0.0097508125677139759
sS'about'
p142
F0.0043336944745395447
sS'kids'
p143
F0.0021668472372697724
sS'last'
p144
F0.0010834236186348862
sS'her'
p145
F0.0010834236186348862
sS'anything'
p146
F0.0010834236186348862
sS'of'
p147
F0.0075839653304442039
sS'until'
p148
F0.0010834236186348862
sS'privacy'
p149
F0.0010834236186348862
sS'days'
p150
F0.0010834236186348862
sS'against'
p151
F0.0010834236186348862
sS'dinner'
p152
F0.0010834236186348862
sS'launched'
p153
F0.0010834236186348862
sS'brad'
p154
F0.022751895991332611
sS'usually'
p155
F0.0010834236186348862
sS'browser'
p156
F0.0010834236186348862
sS'settled'
p157
F0.0010834236186348862
sS'or'
p158
F0.0043336944745395447
sS'pep'
p159
F0.0010834236186348862
sS'outlook'
p160
F0.0010834236186348862
sS'love'
p161
F0.0010834236186348862
sS'point'
p162
F0.0010834236186348862
sS'feel'
p163
F0.0021668472372697724
sS'had'
p164
F0.0010834236186348862
sS'into'
p165
F0.0021668472372697724
sS'splitting'
p166
F0.0010834236186348862
sS'one'
p167
F0.0021668472372697724
sS'down'
p168
F0.0010834236186348862
sS'shells'
p169
F0.0010834236186348862
sS'brunette'
p170
F0.0010834236186348862
sS'taught'
p171
F0.0010834236186348862
sS'names'
p172
F0.0010834236186348862
sS'another'
p173
F0.0010834236186348862
sS'message'
p174
F0.0010834236186348862
sS'quickly'
p175
F0.0010834236186348862
sS'your'
p176
F0.0086673889490790895
sS'market'
p177
F0.0010834236186348862
sS'utility'
p178
F0.0010834236186348862
sS'amigo'
p179
F0.0010834236186348862
sS'from'
p180
F0.0065005417118093175
sS'forwarded'
p181
F0.0021668472372697724
sS'would'
p182
F0.0043336944745395447
sS'basis'
p183
F0.0021668472372697724
sS'weekend'
p184
F0.0021668472372697724
sS'there'
p185
F0.0010834236186348862
sS'rex'
p186
F0.0032502708559046588
sS'hey'
p187
F0.0010834236186348862
sS'been'
p188
F0.0010834236186348862
sS'noticed'
p189
F0.0010834236186348862
sS'attack'
p190
F0.0010834236186348862
sS'much'
p191
F0.0010834236186348862
sS'call'
p192
F0.0075839653304442039
sS'too'
p193
F0.0010834236186348862
sS'way'
p194
F0.0010834236186348862
sS'tom'
p195
F0.0010834236186348862
sS'was'
p196
F0.0054171180931744311
sS'chip'
p197
F0.0010834236186348862
sS'happy'
p198
F0.0010834236186348862
sS'wants'
p199
F0.0010834236186348862
sS'mike'
p200
F0.0010834236186348862
sS'only'
p201
F0.0010834236186348862
sS'him'
p202
F0.0021668472372697724
sS'that'
p203
F0.010834236186348862
sS'fly'
p204
F0.0010834236186348862
sS'gas'
p205
F0.0010834236186348862
sS'great'
p206
F0.0043336944745395447
sS'but'
p207
F0.0010834236186348862
sS'it'
p208
F0.0043336944745395447
sS'volume'
p209
F0.0032502708559046588
sS'offers'
p210
F0.0021668472372697724
sS'lets'
p211
F0.0010834236186348862
sS'hear'
p212
F0.0021668472372697724
sS'bull'
p213
F0.0010834236186348862
sS'overdose'
p214
F0.0021668472372697724
sS'tearing'
p215
F0.0010834236186348862
sS'with'
p216
F0.0054171180931744311
sS'he'
p217
F0.0075839653304442039
sS'info'
p218
F0.0021668472372697724
sS'keeping'
p219
F0.0010834236186348862
sS'unfortunately'
p220
F0.0010834236186348862
sS'this'
p221
F0.011917659804983749
sS'meeting'
p222
F0.0021668472372697724
sS'setup'
p223
F0.0010834236186348862
sS'work'
p224
F0.0010834236186348862
sS'up'
p225
F0.0010834236186348862
sS'us'
p226
F0.0010834236186348862
sS'tell'
p227
F0.0021668472372697724
sS'will'
p228
F0.013001083423618635
sS'offended'
p229
F0.0010834236186348862
sS'while'
p230
F0.0010834236186348862
sS'individual'
p231
F0.0010834236186348862
sS'sent'
p232
F0.0021668472372697724
sS'mature'
p233
F0.0010834236186348862
sS'determining'
p234
F0.0010834236186348862
sS'following'
p235
F0.0010834236186348862
sS'meet'
p236
F0.0010834236186348862
sS'southwest'
p237
F0.0010834236186348862
sS'my'
p238
F0.0021668472372697724
sS'robin'
p239
F0.0010834236186348862
sS'bet'
p240
F0.0021668472372697724
sS'pricing'
p241
F0.0010834236186348862
sS'and'
p242
F0.015167930660888408
sS'comments'
p243
F0.0010834236186348862
sS'want'
p244
F0.0010834236186348862
sS'give'
p245
F0.0010834236186348862
sS'fill'
p246
F0.0010834236186348862
sS'is'
p247
F0.013001083423618635
sS'am'
p248
F0.0043336944745395447
sS'customers'
p249
F0.0010834236186348862
sS'an'
p250
F0.0021668472372697724
sS'states'
p251
F0.0010834236186348862
sS'really'
p252
F0.0010834236186348862
sS'as'
p253
F0.0086673889490790895
sS'sometime'
p254
F0.0010834236186348862
sS'at'
p255
F0.0065005417118093175
sS'have'
p256
F0.014084507042253521
sS'in'
p257
F0.0086673889490790895
sS'need'
p258
F0.0010834236186348862
sS'take'
p259
F0.0010834236186348862
sS'trip'
p260
F0.0021668472372697724
sS'if'
p261
F0.0097508125677139759
sS'hickey'
p262
F0.0010834236186348862
sS'sit'
p263
F0.0010834236186348862
sS'suggest'
p264
F0.0010834236186348862
sS'make'
p265
F0.0010834236186348862
sS'comfort'
p266
F0.0010834236186348862
sS'able'
p267
F0.0021668472372697724
sS'same'
p268
F0.0010834236186348862
sS'check'
p269
F0.0010834236186348862
sS'note'
p270
F0.0010834236186348862
sS'very'
p271
F0.0021668472372697724
sS'other'
p272
F0.0021668472372697724
sS'mention'
p273
F0.0010834236186348862
sS'answer'
p274
F0.0010834236186348862
sS'gate'
p275
F0.0010834236186348862
sS'you'
p276
F0.028169014084507043
sS'sat'
p277
F0.0021668472372697724
sS'traded'
p278
F0.0010834236186348862
sS'day'
p279
F0.0021668472372697724
sS'lance'
p280
F0.0010834236186348862
sS'sure'
p281
F0.0032502708559046588
sS'unless'
p282
F0.0010834236186348862
sS'tried'
p283
F0.0010834236186348862
sS'may'
p284
F0.0010834236186348862
sS'who'
p285
F0.0032502708559046588
sS'utilities'
p286
F0.0010834236186348862
sS'took'
p287
F0.0021668472372697724
sS'leave'
p288
F0.0010834236186348862
sS'fax'
p289
F0.0021668472372697724
sS'birthday'
p290
F0.0010834236186348862
sS'portal'
p291
F0.0054171180931744311
sS'lunch'
p292
F0.0010834236186348862
sS'coming'
p293
F0.0010834236186348862
sS'evaluations'
p294
F0.0010834236186348862
sS'guys'
p295
F0.0021668472372697724
sS'why'
p296
F0.0010834236186348862
sS'man'
p297
F0.0021668472372697724
sS'united'
p298
F0.0010834236186348862
sS'barbe'
p299
F0.0010834236186348862
sS'wife'
p300
F0.0010834236186348862
sS'home'
p301
F0.0032502708559046588
sS'maybe'
p302
F0.0010834236186348862
sS'well'
p303
F0.0021668472372697724
sS'dog'
p304
F0.0010834236186348862
sS'daily'
p305
F0.0010834236186348862
sS'mids'
p306
F0.0010834236186348862
sS'thought'
p307
F0.0010834236186348862
sS'owls'
p308
F0.0010834236186348862
sS'competitors'
p309
F0.0010834236186348862
sS'contact'
p310
F0.0010834236186348862
sS'so'
p311
F0.0010834236186348862
sS'nelson'
p312
F0.0010834236186348862
sS'time'
p313
F0.0010834236186348862
sS'north'
p314
F0.0010834236186348862
sS'lives'
p315
F0.0010834236186348862
sS'the'
p316
F0.045503791982665222
sS'original'
p317
F0.0010834236186348862
sS'talk'
p318
F0.0010834236186348862
s.