(dp1
S'and'
p2
F0.017876313746648536
sS'that'
p3
F0.0084288993982503564
sS'this'
p4
F0.0093648320551429493
sS'mean_word_length'
p5
F3.6666666666666665
sS'however'
p6
F0.00031014239022519272
sS'but'
p7
F0.0024132381251250204
sS'very'
p8
F0.00046429600430161988
sS'must'
p9
F0.00026976882463374755
sS'type_token_ratio'
p10
F0.69208273466415249
sS'if'
p11
F0.0059183976832913997
sS'might'
p12
F0.00045879051808460467
sS'more'
p13
F0.0010111743018584687
s.