(dp1
S'and'
p2
F0.014598540145985401
sS'that'
p3
F0.0025547445255474453
sS'very'
p4
F0.0016423357664233577
sS'mean_word_length'
p5
F3.8333333333333335
sS'however'
p6
F0.00072992700729927003
sS'but'
p7
F0.0020072992700729928
sS'this'
p8
F0.0056569343065693434
sS'type_token_ratio'
p9
F0.89179935967557755
sS'more'
p10
F0.0014598540145985401
sS'if'
p11
F0.0032846715328467154
sS'might'
p12
F0.00018248175182481751
sS'must'
p13
F0.00091240875912408756
s.