(dp1
S'and'
p2
F0.02
sS'that'
p3
F0
sS'this'
p4
F0
sS'mean_word_length'
p5
F4.2999999999999998
sS'however'
p6
F0
sS'but'
p7
F0
sS'very'
p8
F0
sS'more'
p9
F0
sS'if'
p10
F0
sS'might'
p11
F0
sS'must'
p12
F0
s.