(dp1
S'and'
p2
F0.02
sS'that'
p3
F0
sS'this'
p4
F0
sS'mean_word_length'
p5
F4.2999999999999998
sS'sentence_standard_deviation'
p6
F36.986484017813858
sS'however'
p7
F0
sS'but'
p8
F0
sS'very'
p9
F0
sS'must'
p10
F0
sS'type_token_ratio'
p11
F0.94791666666666663
sS'if'
p12
F0
sS'might'
p13
F0
sS'mean_sentence_length'
p14
F40.333333333333336
sS'more'
p15
F0
s.