(dp1
S'and'
p2
F0.02
sS'el'
p3
F0.040000000000000001
sS'just'
p4
F0.02
sS'give'
p5
F0.02
sS'able'
p6
F0.02
sS'marked'
p7
F0.02
sS'as'
p8
F0.02
sS'thanks'
p9
F0.040000000000000001
sS'questions'
p10
F0.02
sS'sounds'
p11
F0.02
sS'any'
p12
F0.02
sS'from'
p13
F0.02
sS'would'
p14
F0.02
sS'when'
p15
F0.02
sS'him'
p16
F0.02
sS'to'
p17
F0.080000000000000002
sS'you'
p18
F0.02
sS'pan'
p19
F0.02
sS'them'
p20
F0.02
sS'filet'
p21
F0.02
sS'like'
p22
F0.02
sS'plan'
p23
F0.02
sS'not'
p24
F0.02
sS'grace'
p25
F0.040000000000000001
sS'he'
p26
F0.02
sS'seared'
p27
F0.02
sS'for'
p28
F0.02
sS'the'
p29
F0.040000000000000001
sS'my'
p30
F0.02
s.