(dp1
S'and'
p2
F0.034115138592750532
sS'that'
p3
F0.0021321961620469083
sS'this'
p4
F0.01279317697228145
sS'mean_word_length'
p5
F4.1818181818181817
sS'sentence_standard_deviation'
p6
F26.948667458050057
sS'however'
p7
F0
sS'but'
p8
F0
sS'very'
p9
F0.0021321961620469083
sS'type_token_ratio'
p10
F0.77093726379440675
sS'more'
p11
F0
sS'if'
p12
F0.0021321961620469083
sS'might'
p13
F0
sS'mean_sentence_length'
p14
F31.896551724137932
sS'must'
p15
F0.0021321961620469083
s.