(dp1
S'and'
p2
F0.034115138592750532
sS'that'
p3
F0.0021321961620469083
sS'this'
p4
F0.01279317697228145
sS'mean_word_length'
p5
F4.1818181818181817
sS'however'
p6
F0
sS'but'
p7
F0
sS'very'
p8
F0.0021321961620469083
sS'type_token_ratio'
p9
F0.77093726379440675
sS'more'
p10
F0
sS'if'
p11
F0.0021321961620469083
sS'might'
p12
F0
sS'must'
p13
F0.0021321961620469083
s.