(dp1
S'and'
p2
F0.019589837771655953
sS'that'
p3
F0.011631466176920723
sS'this'
p4
F0.0073461891643709825
sS'mean_word_length'
p5
F4.4150943396226419
sS'sentence_standard_deviation'
p6
F47.748962885414102
sS'however'
p7
F0
sS'but'
p8
F0.0079583715947352304
sS'very'
p9
F0.0015304560759106215
sS'must'
p10
F0.0012243648607284971
sS'type_token_ratio'
p11
F0.81815719489630356
sS'if'
p12
F0.0058157330884603614
sS'might'
p13
F0.00030609121518212427
sS'mean_sentence_length'
p14
F30.160714285714285
sS'more'
p15
F0.0012243648607284971
s.