(dp1
S'and'
p2
F0.024062933826931976
sS'that'
p3
F0.01064322073114299
sS'this'
p4
F0.011105969458583989
sS'mean_word_length'
p5
F4.1726804123711343
sS'however'
p6
F0.0009254974548819991
sS'but'
p7
F0.0027764923646459972
sS'very'
p8
F0
sS'type_token_ratio'
p9
F0.71304134984107093
sS'more'
p10
F0
sS'must'
p11
F0.00046274872744099955
sS'might'
p12
F0
sS'if'
p13
F0.0087922258213789916
s.