(dp1
S'and'
p2
F0.014474024295683639
sS'that'
p3
F0.016541742052209873
sS'this'
p4
F0.0031015766347893513
sS'mean_word_length'
p5
F4.25
sS'however'
p6
F0
sS'but'
p7
F0.0062031532695787026
sS'very'
p8
F0.00025846471956577927
sS'if'
p9
F0.00051692943913155855
sS'more'
p10
F0
sS'might'
p11
F0
sS'must'
p12
F0
s.