(dp1
S'and'
p2
F0.014474024295683639
sS'that'
p3
F0.016541742052209873
sS'this'
p4
F0.0031015766347893513
sS'mean_word_length'
p5
F4.25
sS'sentence_standard_deviation'
p6
F46.300176908625097
sS'however'
p7
F0
sS'but'
p8
F0.0062031532695787026
sS'very'
p9
F0.00025846471956577927
sS'must'
p10
F0
sS'type_token_ratio'
p11
F0.68061369122978088
sS'more'
p12
F0
sS'might'
p13
F0
sS'mean_sentence_length'
p14
F32.915730337078649
sS'if'
p15
F0.00051692943913155855
s.