(dp1
S'all'
p2
F0.0022727272727272726
sS'matron'
p3
F0.00037878787878787879
sS'grateful'
p4
F0.00037878787878787879
sS'go'
p5
F0.00075757575757575758
sS'chair'
p6
F0.0015151515151515152
sS'row'
p7
F0.0015151515151515152
sS'certainly'
p8
F0.00037878787878787879
sS'replacements'
p9
F0.00037878787878787879
sS'eligible'
p10
F0.00037878787878787879
sS'paris'
p11
F0.0011363636363636363
sS'to'
p12
F0.033333333333333333
sS'finally'
p13
F0.00075757575757575758
sS'program'
p14
F0.0015151515151515152
sS'dressing'
p15
F0.0022727272727272726
sS'sorry'
p16
F0.00037878787878787879
sS'include'
p17
F0.00075757575757575758
sS'resources'
p18
F0.00075757575757575758
sS'me'
p19
F0.0068181818181818179
sS'very'
p20
F0.0026515151515151517
sS'every'
p21
F0.00037878787878787879
sS'cook'
p22
F0.00037878787878787879
sS'drinking'
p23
F0.00037878787878787879
sS'difference'
p24
F0.00037878787878787879
sS'bringing'
p25
F0.0011363636363636363
sS'tickets'
p26
F0.0034090909090909089
sS'alma'
p27
F0.00037878787878787879
sS'did'
p28
F0.00075757575757575758
sS'companies'
p29
F0.00037878787878787879
sS'try'
p30
F0.0015151515151515152
sS'settle'
p31
F0.00037878787878787879
sS'notifying'
p32
F0.00075757575757575758
sS'quick'
p33
F0.00075757575757575758
sS'bill'
p34
F0.00075757575757575758
sS'weddings'
p35
F0.00037878787878787879
sS'estimates'
p36
F0.00037878787878787879
sS'request'
p37
F0.00037878787878787879
sS'cash'
p38
F0.00037878787878787879
sS'likely'
p39
F0.00037878787878787879
sS'air'
p40
F0.00075757575757575758
sS'perry'
p41
F0.00037878787878787879
sS'even'
p42
F0.0011363636363636363
sS'what'
p43
F0.0030303030303030303
sS'cell'
p44
F0.0015151515151515152
sS'reply'
p45
F0.00075757575757575758
sS'lee'
p46
F0.00037878787878787879
sS'here'
p47
F0.00075757575757575758
sS'let'
p48
F0.0015151515151515152
sS'address'
p49
F0.00037878787878787879
sS'along'
p50
F0.00037878787878787879
sS'change'
p51
F0.00037878787878787879
sS'dining'
p52
F0.00037878787878787879
sS'great'
p53
F0.00037878787878787879
sS'daughter'
p54
F0.00037878787878787879
sS'receive'
p55
F0.00037878787878787879
sS'shift'
p56
F0.00037878787878787879
sS'employees'
p57
F0.00037878787878787879
sS'current'
p58
F0.00037878787878787879
sS'leaving'
p59
F0.00075757575757575758
sS'amount'
p60
F0.00037878787878787879
sS'pick'
p61
F0.00037878787878787879
sS'action'
p62
F0.00037878787878787879
sS'options'
p63
F0.00037878787878787879
sS'via'
p64
F0.00037878787878787879
sS'love'
p65
F0.00075757575757575758
sS'family'
p66
F0.0015151515151515152
sS'extra'
p67
F0.00037878787878787879
sS'prefer'
p68
F0.00037878787878787879
sS'feelings'
p69
F0.00037878787878787879
sS'brought'
p70
F0.00037878787878787879
sS'armoire'
p71
F0.00075757575757575758
sS'from'
p72
F0.0026515151515151517
sS'spoke'
p73
F0.00037878787878787879
sS'would'
p74
F0.0045454545454545452
sS'visit'
p75
F0.00037878787878787879
sS'two'
p76
F0.0015151515151515152
sS'next'
p77
F0.0022727272727272726
sS'live'
p78
F0.00075757575757575758
sS'call'
p79
F0.0030303030303030303
sS'communications'
p80
F0.0049242424242424239
sS'thru'
p81
F0.00037878787878787879
sS'until'
p82
F0.00075757575757575758
sS'more'
p83
F0.0011363636363636363
sS'started'
p84
F0.00037878787878787879
sS'company'
p85
F0.00037878787878787879
sS'under'
p86
F0.0015151515151515152
sS'stone'
p87
F0.0015151515151515152
sS'hurt'
p88
F0.00037878787878787879
sS'phone'
p89
F0.00037878787878787879
sS'agent'
p90
F0.0015151515151515152
sS'tying'
p91
F0.00037878787878787879
sS'glad'
p92
F0.0011363636363636363
sS'town'
p93
F0.0011363636363636363
sS'account'
p94
F0.00037878787878787879
sS'room'
p95
F0.00037878787878787879
sS'this'
p96
F0.007575757575757576
sS'car'
p97
F0.00037878787878787879
sS'ride'
p98
F0.00037878787878787879
sS'work'
p99
F0.0030303030303030303
sS'offended'
p100
F0.00075757575757575758
sS'can'
p101
F0.0034090909090909089
sS'arrive'
p102
F0.0011363636363636363
sS'my'
p103
F0.001893939393939394
sS'beautiful'
p104
F0.00037878787878787879
sS'give'
p105
F0.0011363636363636363
sS'tax'
p106
F0.00037878787878787879
sS'fuck'
p107
F0.0015151515151515152
sS'accept'
p108
F0.001893939393939394
sS'pieces'
p109
F0.00037878787878787879
sS'high'
p110
F0.0011363636363636363
sS'numbers'
p111
F0.00075757575757575758
sS'want'
p112
F0.0034090909090909089
sS'information'
p113
F0.00075757575757575758
sS'rather'
p114
F0.00037878787878787879
sS'cole'
p115
F0.00037878787878787879
sS'far'
p116
F0.00075757575757575758
sS'earnings'
p117
F0.001893939393939394
sS'instead'
p118
F0.00037878787878787879
sS'mar'
p119
F0.00037878787878787879
sS'plans'
p120
F0.00037878787878787879
sS'attend'
p121
F0.00037878787878787879
sS'may'
p122
F0.00037878787878787879
sS'after'
p123
F0.00037878787878787879
sS'collection'
p124
F0.0011363636363636363
sS'coming'
p125
F0.0015151515151515152
sS'date'
p126
F0.00037878787878787879
sS'guys'
p127
F0.00037878787878787879
sS'response'
p128
F0.00037878787878787879
sS'man'
p129
F0.00075757575757575758
sS'natural'
p130
F0.00075757575757575758
sS'remember'
p131
F0.00037878787878787879
sS'maybe'
p132
F0.00037878787878787879
sS'anytime'
p133
F0.00075757575757575758
sS'provide'
p134
F0.00037878787878787879
sS'so'
p135
F0.003787878787878788
sS'things'
p136
F0.0015151515151515152
sS'order'
p137
F0.00075757575757575758
sS'talk'
p138
F0.0022727272727272726
sS'wine'
p139
F0.00037878787878787879
sS'help'
p140
F0.0011363636363636363
sS'tropics'
p141
F0.00037878787878787879
sS'over'
p142
F0.001893939393939394
sS'move'
p143
F0.00037878787878787879
sS'soon'
p144
F0.00037878787878787879
sS'years'
p145
F0.0015151515151515152
sS'held'
p146
F0.00037878787878787879
sS'through'
p147
F0.00075757575757575758
sS'looks'
p148
F0.00037878787878787879
sS'innovative'
p149
F0.00037878787878787879
sS'mentioned'
p150
F0.00037878787878787879
sS'cold'
p151
F0.00037878787878787879
sS'still'
p152
F0.00075757575757575758
sS'ticket'
p153
F0.00037878787878787879
sS'before'
p154
F0.00075757575757575758
sS'style'
p155
F0.00037878787878787879
sS'thank'
p156
F0.00037878787878787879
sS'how'
p157
F0.00037878787878787879
sS'expectations'
p158
F0.00037878787878787879
sS'actually'
p159
F0.00037878787878787879
sS'better'
p160
F0.0011363636363636363
sS'estimating'
p161
F0.00075757575757575758
sS'mail'
p162
F0.00037878787878787879
sS'weeks'
p163
F0.00037878787878787879
sS'bye'
p164
F0.00037878787878787879
sS'might'
p165
F0.00037878787878787879
sS'easier'
p166
F0.00037878787878787879
sS'texas'
p167
F0.00037878787878787879
sS'dad'
p168
F0.00037878787878787879
sS'then'
p169
F0.0011363636363636363
sS'them'
p170
F0.0022727272727272726
sS'good'
p171
F0.00037878787878787879
sS'return'
p172
F0.001893939393939394
sS'food'
p173
F0.00037878787878787879
sS'mention'
p174
F0.00037878787878787879
sS'skipper'
p175
F0.00037878787878787879
sS'they'
p176
F0.001893939393939394
sS'front'
p177
F0.00037878787878787879
sS'now'
p178
F0.00075757575757575758
sS'realize'
p179
F0.00037878787878787879
sS'easily'
p180
F0.00037878787878787879
sS'term'
p181
F0.00075757575757575758
sS'gets'
p182
F0.00037878787878787879
sS'name'
p183
F0.00037878787878787879
sS'directories'
p184
F0.00075757575757575758
sS'drop'
p185
F0.00037878787878787879
sS'chuck'
p186
F0.00075757575757575758
sS'found'
p187
F0.00037878787878787879
sS'side'
p188
F0.00075757575757575758
sS'bond'
p189
F0.00037878787878787879
sS'everyone'
p190
F0.00037878787878787879
sS'doing'
p191
F0.0011363636363636363
sS'energy'
p192
F0.00037878787878787879
sS'hard'
p193
F0.00075757575757575758
sS'trading'
p194
F0.00037878787878787879
sS'year'
p195
F0.0022727272727272726
sS'our'
p196
F0.003787878787878788
sS'girl'
p197
F0.00037878787878787879
sS'teams'
p198
F0.00037878787878787879
sS'special'
p199
F0.00037878787878787879
sS'really'
p200
F0.00075757575757575758
sS'leave'
p201
F0.00037878787878787879
sS'matt'
p202
F0.00037878787878787879
sS'flower'
p203
F0.00037878787878787879
sS'looking'
p204
F0.001893939393939394
sS'got'
p205
F0.00075757575757575758
sS'free'
p206
F0.001893939393939394
sS'quite'
p207
F0.00037878787878787879
sS'reason'
p208
F0.00075757575757575758
sS'base'
p209
F0.0022727272727272726
sS'grandma'
p210
F0.0015151515151515152
sS'ask'
p211
F0.00075757575757575758
sS'wanted'
p212
F0.0011363636363636363
sS'card'
p213
F0.00037878787878787879
sS'pairs'
p214
F0.00075757575757575758
sS'could'
p215
F0.0011363636363636363
sS'days'
p216
F0.0022727272727272726
sS'keep'
p217
F0.00037878787878787879
sS'invitation'
p218
F0.00075757575757575758
sS'think'
p219
F0.0030303030303030303
sS'first'
p220
F0.00075757575757575758
sS'already'
p221
F0.0011363636363636363
sS'feel'
p222
F0.0011363636363636363
sS'number'
p223
F0.00037878787878787879
sS'one'
p224
F0.0015151515151515152
sS'talked'
p225
F0.00037878787878787879
sS'done'
p226
F0.00037878787878787879
sS'submit'
p227
F0.00037878787878787879
sS'carry'
p228
F0.00037878787878787879
sS'open'
p229
F0.0011363636363636363
sS'city'
p230
F0.00037878787878787879
sS'guess'
p231
F0.00037878787878787879
sS'ordering'
p232
F0.00037878787878787879
sS'data'
p233
F0.00037878787878787879
sS'top'
p234
F0.001893939393939394
sS'their'
p235
F0.00075757575757575758
sS'draft'
p236
F0.00037878787878787879
sS'moisture'
p237
F0.00037878787878787879
sS'tom'
p238
F0.00037878787878787879
sS'john'
p239
F0.00037878787878787879
sS'store'
p240
F0.00037878787878787879
sS'that'
p241
F0.005681818181818182
sS'because'
p242
F0.0022727272727272726
sS'sign'
p243
F0.00037878787878787879
sS'see'
p244
F0.0011363636363636363
sS'bed'
p245
F0.001893939393939394
sS'project'
p246
F0.00037878787878787879
sS'future'
p247
F0.00037878787878787879
sS'were'
p248
F0.001893939393939394
sS'feeling'
p249
F0.00037878787878787879
sS'prospect'
p250
F0.00037878787878787879
sS'comfortable'
p251
F0.00037878787878787879
sS'tonight'
p252
F0.00037878787878787879
sS'talking'
p253
F0.00037878787878787879
sS'say'
p254
F0.00037878787878787879
sS'have'
p255
F0.0087121212121212127
sS'need'
p256
F0.00075757575757575758
sS'seem'
p257
F0.00037878787878787879
sS'saw'
p258
F0.00037878787878787879
sS'any'
p259
F0.0022727272727272726
sS'sell'
p260
F0.00075757575757575758
sS'depending'
p261
F0.00075757575757575758
sS'able'
p262
F0.0011363636363636363
sS'purchasing'
p263
F0.00037878787878787879
sS'note'
p264
F0.00037878787878787879
sS'also'
p265
F0.0030303030303030303
sS'chest'
p266
F0.0041666666666666666
sS'which'
p267
F0.00075757575757575758
sS'poster'
p268
F0.0011363636363636363
sS'sherry'
p269
F0.00037878787878787879
sS'subject'
p270
F0.001893939393939394
sS'sure'
p271
F0.00037878787878787879
sS'normal'
p272
F0.0011363636363636363
sS'quote'
p273
F0.00037878787878787879
sS'price'
p274
F0.00037878787878787879
sS'knew'
p275
F0.00037878787878787879
sS'reach'
p276
F0.00075757575757575758
sS'rehearsal'
p277
F0.0011363636363636363
sS'most'
p278
F0.0011363636363636363
sS'plan'
p279
F0.00075757575757575758
sS'model'
p280
F0.00037878787878787879
sS'don'
p281
F0.00037878787878787879
sS'especially'
p282
F0.00037878787878787879
sS'metal'
p283
F0.00075757575757575758
sS'sale'
p284
F0.00075757575757575758
sS'looked'
p285
F0.00037878787878787879
sS'definitely'
p286
F0.00037878787878787879
sS'came'
p287
F0.00037878787878787879
sS'summer'
p288
F0.00037878787878787879
sS'sent'
p289
F0.00037878787878787879
sS'ending'
p290
F0.00037878787878787879
sS'pops'
p291
F0.00037878787878787879
sS'planning'
p292
F0.00075757575757575758
sS'participate'
p293
F0.0011363636363636363
sS'fine'
p294
F0.00037878787878787879
sS'access'
p295
F0.00037878787878787879
sS'busy'
p296
F0.00037878787878787879
sS'based'
p297
F0.00075757575757575758
sS'gulf'
p298
F0.00037878787878787879
sS'winner'
p299
F0.00075757575757575758
sS'should'
p300
F0.0022727272727272726
sS'only'
p301
F0.0022727272727272726
sS'going'
p302
F0.0026515151515151517
sS'consent'
p303
F0.00037878787878787879
sS'employee'
p304
F0.00037878787878787879
sS'hope'
p305
F0.00037878787878787879
sS'do'
p306
F0.0015151515151515152
sS'uncles'
p307
F0.00037878787878787879
sS'get'
p308
F0.0022727272727272726
sS'stop'
p309
F0.00037878787878787879
sS'cheaper'
p310
F0.00037878787878787879
sS'feels'
p311
F0.00037878787878787879
sS'new'
p312
F0.0022727272727272726
sS'him'
p313
F0.00037878787878787879
sS'regarding'
p314
F0.00037878787878787879
sS'worried'
p315
F0.00075757575757575758
sS'roger'
p316
F0.00037878787878787879
sS'she'
p317
F0.005681818181818182
sS'where'
p318
F0.0011363636363636363
sS'husband'
p319
F0.00037878787878787879
sS'respond'
p320
F0.00075757575757575758
sS'human'
p321
F0.00037878787878787879
sS'depends'
p322
F0.00037878787878787879
sS'decided'
p323
F0.00037878787878787879
sS'are'
p324
F0.012878787878787878
sS'disturbing'
p325
F0.00037878787878787879
sS'best'
p326
F0.00037878787878787879
sS'concern'
p327
F0.00037878787878787879
sS'said'
p328
F0.0015151515151515152
sS'draws'
p329
F0.00037878787878787879
sS'away'
p330
F0.00037878787878787879
sS'please'
p331
F0.0060606060606060606
sS'commitments'
p332
F0.00037878787878787879
sS'forecast'
p333
F0.00075757575757575758
sS'grandmother'
p334
F0.00037878787878787879
sS'score'
p335
F0.00037878787878787879
sS'between'
p336
F0.00037878787878787879
sS'probably'
p337
F0.00037878787878787879
sS'conditions'
p338
F0.001893939393939394
sS'available'
p339
F0.00037878787878787879
sS'we'
p340
F0.011742424242424242
sS'terms'
p341
F0.0022727272727272726
sS'extend'
p342
F0.00037878787878787879
sS'missing'
p343
F0.00037878787878787879
sS'points'
p344
F0.001893939393939394
sS'however'
p345
F0.0011363636363636363
sS'mailbox'
p346
F0.00037878787878787879
sS'jo'
p347
F0.00037878787878787879
sS'come'
p348
F0.0011363636363636363
sS'both'
p349
F0.001893939393939394
sS'brown'
p350
F0.00037878787878787879
sS'restaurant'
p351
F0.00075757575757575758
sS'many'
p352
F0.00037878787878787879
sS'ill'
p353
F0.00075757575757575758
sS'participating'
p354
F0.00037878787878787879
sS'else'
p355
F0.00037878787878787879
sS'planned'
p356
F0.00075757575757575758
sS'brad'
p357
F0.00037878787878787879
sS'canopy'
p358
F0.00075757575757575758
sS'whole'
p359
F0.00037878787878787879
sS'asked'
p360
F0.00075757575757575758
sS'comes'
p361
F0.00037878787878787879
sS'otherwise'
p362
F0.00037878787878787879
sS'and'
p363
F0.032954545454545452
sS'point'
p364
F0.00075757575757575758
sS'seems'
p365
F0.00037878787878787879
sS'pop'
p366
F0.00037878787878787879
sS'table'
p367
F0.0011363636363636363
sS'bench'
p368
F0.00037878787878787879
sS'late'
p369
F0.00037878787878787879
sS'described'
p370
F0.00037878787878787879
sS'raise'
p371
F0.00037878787878787879
sS'second'
p372
F0.0011363636363636363
sS'three'
p373
F0.0011363636363636363
sS'been'
p374
F0.00075757575757575758
sS'quickly'
p375
F0.00037878787878787879
sS'tropical'
p376
F0.00075757575757575758
sS'much'
p377
F0.00037878787878787879
sS'extravagant'
p378
F0.00037878787878787879
sS'expected'
p379
F0.00037878787878787879
sS'mike'
p380
F0.0015151515151515152
sS'received'
p381
F0.00075757575757575758
sS'gas'
p382
F0.0011363636363636363
sS'priced'
p383
F0.00037878787878787879
sS'decline'
p384
F0.00075757575757575758
sS'prices'
p385
F0.001893939393939394
sS'those'
p386
F0.00037878787878787879
sS'pilot'
p387
F0.005681818181818182
sS'case'
p388
F0.00037878787878787879
sS'look'
p389
F0.001893939393939394
sS'these'
p390
F0.00037878787878787879
sS'tip'
p391
F0.00037878787878787879
sS'budget'
p392
F0.00037878787878787879
sS'choices'
p393
F0.00037878787878787879
sS'will'
p394
F0.0090909090909090905
sS'while'
p395
F0.00075757575757575758
sS'bachelors'
p396
F0.00075757575757575758
sS'invited'
p397
F0.00037878787878787879
sS'at'
p398
F0.0071969696969696973
sS'correspondence'
p399
F0.00037878787878787879
sS'is'
p400
F0.011363636363636364
sS'it'
p401
F0.0071969696969696973
sS'cant'
p402
F0.00037878787878787879
sS'someone'
p403
F0.00037878787878787879
sS'in'
p404
F0.011742424242424242
sS'ava'
p405
F0.00037878787878787879
sS'worry'
p406
F0.00037878787878787879
sS'if'
p407
F0.010606060606060607
sS'participant'
p408
F0.00075757575757575758
sS'pay'
p409
F0.0011363636363636363
sS'make'
p410
F0.00075757575757575758
sS'connection'
p411
F0.00075757575757575758
sS'member'
p412
F0.00037878787878787879
sS'when'
p413
F0.001893939393939394
sS'inquiry'
p414
F0.00037878787878787879
sS'several'
p415
F0.00075757575757575758
sS'bid'
p416
F0.0026515151515151517
sS'week'
p417
F0.00075757575757575758
sS'finish'
p418
F0.00037878787878787879
sS'yesterday'
p419
F0.00037878787878787879
sS'rain'
p420
F0.00037878787878787879
sS'changing'
p421
F0.00037878787878787879
sS'requests'
p422
F0.00037878787878787879
sS'lunch'
p423
F0.00037878787878787879
sS'shotgun'
p424
F0.00037878787878787879
sS'tentative'
p425
F0.00037878787878787879
sS'well'
p426
F0.00075757575757575758
sS'honor'
p427
F0.00037878787878787879
sS'thought'
p428
F0.00037878787878787879
sS'person'
p429
F0.00075757575757575758
sS'materials'
p430
F0.00037878787878787879
sS'mother'
p431
F0.00037878787878787879
sS'the'
p432
F0.03446969696969697
sS'stating'
p433
F0.00075757575757575758
sS'left'
p434
F0.00037878787878787879
sS'gates'
p435
F0.00037878787878787879
sS'mom'
p436
F0.00037878787878787879
sS'just'
p437
F0.0022727272727272726
sS'less'
p438
F0.00037878787878787879
sS'money'
p439
F0.00037878787878787879
sS'not'
p440
F0.0034090909090909089
sS'thanks'
p441
F0.001893939393939394
sS'questions'
p442
F0.00075757575757575758
sS'seats'
p443
F0.00075757575757575758
sS'weekly'
p444
F0.00037878787878787879
sS'blow'
p445
F0.00037878787878787879
sS'web'
p446
F0.0011363636363636363
sS'tight'
p447
F0.00037878787878787879
sS'had'
p448
F0.0026515151515151517
sS'day'
p449
F0.00037878787878787879
sS'parents'
p450
F0.00075757575757575758
sS'furniture'
p451
F0.0015151515151515152
sS'excited'
p452
F0.00075757575757575758
sS'careers'
p453
F0.00037878787878787879
sS'around'
p454
F0.0011363636363636363
sS'read'
p455
F0.00037878787878787879
sS'big'
p456
F0.00037878787878787879
sS'couple'
p457
F0.00075757575757575758
sS'crushed'
p458
F0.00037878787878787879
sS'early'
p459
F0.00037878787878787879
sS'know'
p460
F0.0053030303030303034
sS'detract'
p461
F0.00037878787878787879
sS'vanity'
p462
F0.0011363636363636363
sS'like'
p463
F0.0015151515151515152
sS'inviting'
p464
F0.00037878787878787879
sS'chairs'
p465
F0.00037878787878787879
sS'marlin'
p466
F0.00037878787878787879
sS'remind'
p467
F0.00037878787878787879
sS'either'
p468
F0.00037878787878787879
sS'martin'
p469
F0.003787878787878788
sS'sleigh'
p470
F0.00075757575757575758
sS'accessible'
p471
F0.00037878787878787879
sS'right'
p472
F0.0030303030303030303
sS'people'
p473
F0.0011363636363636363
sS'some'
p474
F0.0022727272727272726
sS'back'
p475
F0.00037878787878787879
sS'growth'
p476
F0.00037878787878787879
sS'pricing'
p477
F0.00037878787878787879
sS'mirror'
p478
F0.00037878787878787879
sS'dear'
p479
F0.00037878787878787879
sS'ourselves'
p480
F0.00037878787878787879
sS'for'
p481
F0.012500000000000001
sS'bottom'
p482
F0.00037878787878787879
sS'appreciative'
p483
F0.00037878787878787879
sS'be'
p484
F0.00946969696969697
sS'who'
p485
F0.0030303030303030303
sS'eating'
p486
F0.00037878787878787879
sS'schedule'
p487
F0.00037878787878787879
sS'agreement'
p488
F0.0022727272727272726
sS'includes'
p489
F0.00037878787878787879
sS'by'
p490
F0.0030303030303030303
sS'hearing'
p491
F0.00037878787878787879
sS'on'
p492
F0.0083333333333333332
sS'about'
p493
F0.0060606060606060606
sS'cautious'
p494
F0.00037878787878787879
sS'anything'
p495
F0.00037878787878787879
sS'getting'
p496
F0.00075757575757575758
sS'of'
p497
F0.010227272727272727
sS'dinner'
p498
F0.0011363636363636363
sS'afternoon'
p499
F0.0011363636363636363
sS'alec'
p500
F0.0026515151515151517
sS'or'
p501
F0.0071969696969696973
sS'amber'
p502
F0.00037878787878787879
sS'into'
p503
F0.00037878787878787879
sS'down'
p504
F0.00075757575757575758
sS'weather'
p505
F0.00037878787878787879
sS'determine'
p506
F0.00037878787878787879
sS'strip'
p507
F0.00037878787878787879
sS'mark'
p508
F0.001893939393939394
sS'your'
p509
F0.0064393939393939392
sS'hitting'
p510
F0.00037878787878787879
sS'computer'
p511
F0.0011363636363636363
sS'additional'
p512
F0.00037878787878787879
sS'her'
p513
F0.0022727272727272726
sS'weekend'
p514
F0.0022727272727272726
sS'support'
p515
F0.00037878787878787879
sS'there'
p516
F0.0030303030303030303
sS'approximate'
p517
F0.00037878787878787879
sS'long'
p518
F0.0011363636363636363
sS'why'
p519
F0.00075757575757575758
sS'start'
p520
F0.00037878787878787879
sS'low'
p521
F0.00037878787878787879
sS'way'
p522
F0.00075757575757575758
sS'forward'
p523
F0.00075757575757575758
sS'was'
p524
F0.0026515151515151517
sS'lowest'
p525
F0.00037878787878787879
sS'ago'
p526
F0.001893939393939394
sS'complete'
p527
F0.00037878787878787879
sS'funds'
p528
F0.00037878787878787879
sS'but'
p529
F0.0049242424242424239
sS'delivery'
p530
F0.00075757575757575758
sS'hi'
p531
F0.00037878787878787879
sS'line'
p532
F0.00037878787878787879
sS'highest'
p533
F0.00037878787878787879
sS'with'
p534
F0.0064393939393939392
sS'buying'
p535
F0.00075757575757575758
sS'he'
p536
F0.001893939393939394
sS'info'
p537
F0.00037878787878787879
sS'whether'
p538
F0.00037878787878787879
sS'bids'
p539
F0.00037878787878787879
sS'up'
p540
F0.0015151515151515152
sS'us'
p541
F0.0015151515151515152
sS'tell'
p542
F0.00037878787878787879
sS'below'
p543
F0.00075757575757575758
sS'site'
p544
F0.00037878787878787879
sS'called'
p545
F0.00037878787878787879
sS'election'
p546
F0.00037878787878787879
sS'replying'
p547
F0.00037878787878787879
sS'adults'
p548
F0.00037878787878787879
sS'certain'
p549
F0.00037878787878787879
sS'penny'
p550
F0.00037878787878787879
sS'am'
p551
F0.0053030303030303034
sS'an'
p552
F0.0015151515151515152
sS'fly'
p553
F0.00037878787878787879
sS'as'
p554
F0.0034090909090909089
sS'promised'
p555
F0.00037878787878787879
sS'aunts'
p556
F0.00037878787878787879
sS'no'
p557
F0.00075757575757575758
sS'image'
p558
F0.00037878787878787879
sS'percent'
p559
F0.00037878787878787879
sS'til'
p560
F0.00037878787878787879
sS'flood'
p561
F0.00037878787878787879
sS'interested'
p562
F0.0041666666666666666
sS'details'
p563
F0.00037878787878787879
sS'department'
p564
F0.00037878787878787879
sS'granite'
p565
F0.00037878787878787879
sS'you'
p566
F0.023863636363636365
sS'deviation'
p567
F0.0011363636363636363
sS'hey'
p568
F0.00037878787878787879
sS'class'
p569
F0.00037878787878787879
sS'welcome'
p570
F0.00037878787878787879
sS'forgot'
p571
F0.00037878787878787879
sS'stay'
p572
F0.00037878787878787879
sS'chance'
p573
F0.00037878787878787879
sS'important'
p574
F0.00037878787878787879
sS'toasts'
p575
F0.00037878787878787879
sS'prudent'
p576
F0.00037878787878787879
sS'friends'
p577
F0.00075757575757575758
sS'desert'
p578
F0.00037878787878787879
sS'building'
p579
F0.00037878787878787879
sS'required'
p580
F0.00037878787878787879
sS'beds'
p581
F0.00037878787878787879
sS'extras'
p582
F0.00037878787878787879
sS'time'
p583
F0.0026515151515151517
sS'starting'
p584
F0.00037878787878787879
sS'having'
p585
F0.00075757575757575758
s.