(dp1
S'and'
p2
F0.020042949176807445
sS'that'
p3
F0.0050107372942018611
sS'very'
p4
F0.0014316392269148174
sS'mean_word_length'
p5
F4.818965517241379
sS'sentence_standard_deviation'
p6
F38.948695293320206
sS'however'
p7
F0.0007158196134574087
sS'but'
p8
F0.0021474588403722263
sS'this'
p9
F0.013600572655690766
sS'must'
p10
F0
sS'type_token_ratio'
p11
F0.74308090707695107
sS'more'
p12
F0.0007158196134574087
sS'might'
p13
F0
sS'mean_sentence_length'
p14
F32.382352941176471
sS'if'
p15
F0.011453113815318539
s.