(dp1
S'limited'
p2
F0.0025000000000000001
sS'all'
p3
F0.022499999999999999
sS'copy'
p4
F0.0025000000000000001
sS'per'
p5
F0.0050000000000000001
sS'go'
p6
F0.0025000000000000001
sS'disk'
p7
F0.0025000000000000001
sS'buddy'
p8
F0.0025000000000000001
sS'graph'
p9
F0.0074999999999999997
sS'send'
p10
F0.0050000000000000001
sS'to'
p11
F0.077499999999999999
sS'under'
p12
F0.0025000000000000001
sS'sent'
p13
F0.0025000000000000001
sS'very'
p14
F0.0050000000000000001
sS'dell'
p15
F0.0025000000000000001
sS'every'
p16
F0.0025000000000000001
sS'gearbox'
p17
F0.0050000000000000001
sS'did'
p18
F0.0025000000000000001
sS'notes'
p19
F0.0050000000000000001
sS'leave'
p20
F0.0025000000000000001
sS'informative'
p21
F0.0025000000000000001
sS'estimates'
p22
F0.0025000000000000001
sS'further'
p23
F0.0025000000000000001
sS'estimated'
p24
F0.0025000000000000001
sS'machines'
p25
F0.0050000000000000001
sS'index'
p26
F0.0074999999999999997
sS'what'
p27
F0.01
sS'appear'
p28
F0.0025000000000000001
sS'current'
p29
F0.0074999999999999997
sS'version'
p30
F0.0074999999999999997
sS'goes'
p31
F0.0025000000000000001
sS'new'
p32
F0.0050000000000000001
sS'method'
p33
F0.0050000000000000001
sS'can'
p34
F0.022499999999999999
sS'here'
p35
F0.014999999999999999
sS'hours'
p36
F0.0025000000000000001
sS'desired'
p37
F0.0025000000000000001
sS'let'
p38
F0.02
sS'wait'
p39
F0.0025000000000000001
sS'box'
p40
F0.0025000000000000001
sS'technical'
p41
F0.0025000000000000001
sS'reports'
p42
F0.0050000000000000001
sS'useful'
p43
F0.0025000000000000001
sS'extra'
p44
F0.0025000000000000001
sS'seven'
p45
F0.0025000000000000001
sS'counts'
p46
F0.0025000000000000001
sS'total'
p47
F0.0074999999999999997
sS'sky'
p48
F0.0050000000000000001
sS'use'
p49
F0.012500000000000001
sS'from'
p50
F0.02
sS'proceed'
p51
F0.0025000000000000001
sS'working'
p52
F0.0025000000000000001
sS'two'
p53
F0.0025000000000000001
sS'next'
p54
F0.0025000000000000001
sS'taken'
p55
F0.0025000000000000001
sS'until'
p56
F0.0025000000000000001
sS'today'
p57
F0.0025000000000000001
sS'more'
p58
F0.0025000000000000001
sS'acceptable'
p59
F0.0025000000000000001
sS'site'
p60
F0.012500000000000001
sS'me'
p61
F0.025000000000000001
sS'high'
p62
F0.0050000000000000001
sS'this'
p63
F0.047500000000000001
sS'work'
p64
F0.0074999999999999997
sS'values'
p65
F0.0050000000000000001
sS'temperatures'
p66
F0.0025000000000000001
sS'install'
p67
F0.01
sS'following'
p68
F0.0025000000000000001
sS'my'
p69
F0.0025000000000000001
sS'example'
p70
F0.0025000000000000001
sS'refine'
p71
F0.0025000000000000001
sS'process'
p72
F0.0025000000000000001
sS'in'
p73
F0.0275
sS'sample'
p74
F0.0050000000000000001
sS'heard'
p75
F0.0025000000000000001
sS'numbers'
p76
F0.0025000000000000001
sS'want'
p77
F0.0025000000000000001
sS'allowed'
p78
F0.0050000000000000001
sS'phrase'
p79
F0.0025000000000000001
sS'totaled'
p80
F0.0025000000000000001
sS'information'
p81
F0.017500000000000002
sS'recovery'
p82
F0.0050000000000000001
sS'provide'
p83
F0.0050000000000000001
sS'clarification'
p84
F0.0025000000000000001
sS'machine'
p85
F0.01
sS'faults'
p86
F0.012500000000000001
sS'if'
p87
F0.040000000000000001
sS'mar'
p88
F0.0050000000000000001
sS'intended'
p89
F0.0050000000000000001
sS'may'
p90
F0.029999999999999999
sS'earlier'
p91
F0.0025000000000000001
sS'containing'
p92
F0.0025000000000000001
sS'designed'
p93
F0.0025000000000000001
sS'data'
p94
F0.032500000000000001
sS'types'
p95
F0.0025000000000000001
sS'short'
p96
F0.0025000000000000001
sS'maybe'
p97
F0.0025000000000000001
sS'so'
p98
F0.01
sS'wind'
p99
F0.0025000000000000001
sS'exclusive'
p100
F0.0025000000000000001
sS'help'
p101
F0.0025000000000000001
sS'over'
p102
F0.0074999999999999997
sS'soon'
p103
F0.0025000000000000001
sS'installed'
p104
F0.0025000000000000001
sS'produced'
p105
F0.0025000000000000001
sS'through'
p106
F0.0050000000000000001
sS'pitch'
p107
F0.0025000000000000001
sS'turbine'
p108
F0.029999999999999999
sS'still'
p109
F0.0050000000000000001
sS'before'
p110
F0.0050000000000000001
sS'group'
p111
F0.0025000000000000001
sS'monitor'
p112
F0.0025000000000000001
sS'till'
p113
F0.0025000000000000001
sS'susceptible'
p114
F0.0025000000000000001
sS'better'
p115
F0.0025000000000000001
sS'production'
p116
F0.0050000000000000001
sS'systems'
p117
F0.0025000000000000001
sS'texas'
p118
F0.0050000000000000001
sS'then'
p119
F0.0050000000000000001
sS'them'
p120
F0.0050000000000000001
sS'good'
p121
F0.0025000000000000001
sS'records'
p122
F0.012500000000000001
sS'they'
p123
F0.0050000000000000001
sS'not'
p124
F0.035000000000000003
sS'sorted'
p125
F0.0025000000000000001
sS'always'
p126
F0.0025000000000000001
sS'wend'
p127
F0.0025000000000000001
sS'filling'
p128
F0.0025000000000000001
sS'each'
p129
F0.0025000000000000001
sS'found'
p130
F0.0025000000000000001
sS'mean'
p131
F0.0050000000000000001
sS'subset'
p132
F0.0025000000000000001
sS'energy'
p133
F0.017500000000000002
sS'frequency'
p134
F0.0025000000000000001
sS'event'
p135
F0.0025000000000000001
sS'out'
p136
F0.0025000000000000001
sS'by'
p137
F0.022499999999999999
sS'network'
p138
F0.0025000000000000001
sS'since'
p139
F0.0074999999999999997
sS'shows'
p140
F0.0025000000000000001
sS'voltages'
p141
F0.0025000000000000001
sS'curtailment'
p142
F0.0025000000000000001
sS'acrobat'
p143
F0.0025000000000000001
sS'curtailed'
p144
F0.0050000000000000001
sS'additional'
p145
F0.0074999999999999997
sS'created'
p146
F0.0025000000000000001
sS'starts'
p147
F0.0025000000000000001
sS'messages'
p148
F0.0050000000000000001
sS'times'
p149
F0.0050000000000000001
sS'think'
p150
F0.0025000000000000001
sS'south'
p151
F0.0025000000000000001
sS'purpose'
p152
F0.0025000000000000001
sS'number'
p153
F0.0074999999999999997
sS'owned'
p154
F0.0025000000000000001
sS'one'
p155
F0.0025000000000000001
sS'done'
p156
F0.0025000000000000001
sS'owner'
p157
F0.0025000000000000001
sS'message'
p158
F0.01
sS'little'
p159
F0.0025000000000000001
sS'temperature'
p160
F0.0050000000000000001
sS'strict'
p161
F0.0025000000000000001
sS'top'
p162
F0.0025000000000000001
sS'system'
p163
F0.0025000000000000001
sS'approximately'
p164
F0.0025000000000000001
sS'their'
p165
F0.0025000000000000001
sS'storm'
p166
F0.0025000000000000001
sS'tom'
p167
F0.02
sS'that'
p168
F0.017500000000000002
sS'believe'
p169
F0.0025000000000000001
sS'than'
p170
F0.0025000000000000001
sS'accordance'
p171
F0.0025000000000000001
sS'recording'
p172
F0.0025000000000000001
sS'were'
p173
F0.012500000000000001
sS'providing'
p174
F0.0025000000000000001
sS'result'
p175
F0.0025000000000000001
sS'and'
p176
F0.070000000000000007
sS'syncing'
p177
F0.0025000000000000001
sS'have'
p178
F0.047500000000000001
sS'need'
p179
F0.014999999999999999
sS'seem'
p180
F0.0025000000000000001
sS'any'
p181
F0.0050000000000000001
sS'rotor'
p182
F0.0050000000000000001
sS'note'
p183
F0.0025000000000000001
sS'also'
p184
F0.012500000000000001
sS'take'
p185
F0.0050000000000000001
sS'which'
p186
F0.0050000000000000001
sS'formulas'
p187
F0.0025000000000000001
sS'established'
p188
F0.0050000000000000001
sS'phase'
p189
F0.0025000000000000001
sS'especially'
p190
F0.0025000000000000001
sS'windows'
p191
F0.0050000000000000001
sS'request'
p192
F0.0025000000000000001
sS'graphs'
p193
F0.02
sS'fact'
p194
F0.0025000000000000001
sS'show'
p195
F0.0025000000000000001
sS'lotus'
p196
F0.0025000000000000001
sS'formatted'
p197
F0.0025000000000000001
sS'bring'
p198
F0.0025000000000000001
sS'planning'
p199
F0.0025000000000000001
sS'find'
p200
F0.0025000000000000001
sS'highest'
p201
F0.0025000000000000001
sS'only'
p202
F0.0074999999999999997
sS'employed'
p203
F0.0025000000000000001
sS'hope'
p204
F0.0050000000000000001
sS'do'
p205
F0.012500000000000001
sS'above'
p206
F0.0025000000000000001
sS'get'
p207
F0.0074999999999999997
sS'report'
p208
F0.01
sS'procedures'
p209
F0.0025000000000000001
sS'regarding'
p210
F0.0025000000000000001
sS'bar'
p211
F0.0025000000000000001
sS'summary'
p212
F0.0025000000000000001
sS'shots'
p213
F0.0025000000000000001
sS'including'
p214
F0.0025000000000000001
sS'fixed'
p215
F0.0025000000000000001
sS'where'
p216
F0.0074999999999999997
sS'thanks'
p217
F0.0050000000000000001
sS'set'
p218
F0.0025000000000000001
sS'configured'
p219
F0.0025000000000000001
sS'maximum'
p220
F0.0025000000000000001
sS'see'
p221
F0.0025000000000000001
sS'are'
p222
F0.047500000000000001
sS'best'
p223
F0.0025000000000000001
sS'subject'
p224
F0.01
sS'phases'
p225
F0.0025000000000000001
sS'please'
p226
F0.014999999999999999
sS'sites'
p227
F0.012500000000000001
sS'between'
p228
F0.0050000000000000001
sS'probably'
p229
F0.0025000000000000001
sS'we'
p230
F0.022499999999999999
sS'however'
p231
F0.0025000000000000001
sS'joe'
p232
F0.0025000000000000001
sS'come'
p233
F0.0025000000000000001
sS'both'
p234
F0.0050000000000000001
sS'reported'
p235
F0.0025000000000000001
sS'fault'
p236
F0.0050000000000000001
sS'ill'
p237
F0.0025000000000000001
sS'personal'
p238
F0.0025000000000000001
sS'games'
p239
F0.0025000000000000001
sS'estimation'
p240
F0.0025000000000000001
sS'otherwise'
p241
F0.0025000000000000001
sS'load'
p242
F0.0025000000000000001
sS'had'
p243
F0.0050000000000000001
sS'loaded'
p244
F0.0025000000000000001
sS'due'
p245
F0.0050000000000000001
sS'been'
p246
F0.0074999999999999997
sS'mark'
p247
F0.082500000000000004
sS'attaching'
p248
F0.0025000000000000001
sS'much'
p249
F0.0025000000000000001
sS'extreme'
p250
F0.0025000000000000001
sS'those'
p251
F0.0050000000000000001
sS'these'
p252
F0.014999999999999999
sS'will'
p253
F0.025000000000000001
sS'formatting'
p254
F0.0025000000000000001
sS'policies'
p255
F0.0025000000000000001
sS'many'
p256
F0.0050000000000000001
sS'guide'
p257
F0.0025000000000000001
sS'procedure'
p258
F0.0025000000000000001
sS'generate'
p259
F0.0025000000000000001
sS'is'
p260
F0.067500000000000004
sS'it'
p261
F0.017500000000000002
sS'player'
p262
F0.0025000000000000001
sS'ambient'
p263
F0.0025000000000000001
sS'currents'
p264
F0.0025000000000000001
sS'comments'
p265
F0.0050000000000000001
sS'different'
p266
F0.0025000000000000001
sS'same'
p267
F0.0050000000000000001
sS'used'
p268
F0.0074999999999999997
sS'user'
p269
F0.0025000000000000001
sS'well'
p270
F0.0050000000000000001
sS'sets'
p271
F0.0025000000000000001
sS'the'
p272
F0.2175
sS'just'
p273
F0.0025000000000000001
sS'less'
p274
F0.0025000000000000001
sS'voltage'
p275
F0.0025000000000000001
sS'questions'
p276
F0.014999999999999999
sS'speed'
p277
F0.0050000000000000001
sS'yet'
p278
F0.0050000000000000001
sS'web'
p279
F0.0025000000000000001
sS'generator'
p280
F0.014999999999999999
sS'equipment'
p281
F0.0025000000000000001
sS'logged'
p282
F0.0025000000000000001
sS'lake'
p283
F0.0050000000000000001
sS'spinner'
p284
F0.0025000000000000001
sS'lets'
p285
F0.0025000000000000001
sS'easy'
p286
F0.0025000000000000001
sS'has'
p287
F0.02
sS'remaining'
p288
F0.0025000000000000001
sS'real'
p289
F0.0025000000000000001
sS'format'
p290
F0.0025000000000000001
sS'read'
p291
F0.0025000000000000001
sS'couple'
p292
F0.0025000000000000001
sS'sums'
p293
F0.0025000000000000001
sS'possible'
p294
F0.0050000000000000001
sS'possibly'
p295
F0.0050000000000000001
sS'know'
p296
F0.01
sS'using'
p297
F0.0074999999999999997
sS'bit'
p298
F0.0025000000000000001
sS'like'
p299
F0.0074999999999999997
sS'lost'
p300
F0.0025000000000000001
sS'manual'
p301
F0.0050000000000000001
sS'collect'
p302
F0.0025000000000000001
sS'continue'
p303
F0.0074999999999999997
sS'become'
p304
F0.0025000000000000001
sS'security'
p305
F0.0074999999999999997
sS'poor'
p306
F0.0025000000000000001
sS'methods'
p307
F0.0025000000000000001
sS'sequence'
p308
F0.0025000000000000001
sS'some'
p309
F0.0025000000000000001
sS'back'
p310
F0.0025000000000000001
sS'palm'
p311
F0.0025000000000000001
sS'examples'
p312
F0.0025000000000000001
sS'duration'
p313
F0.0025000000000000001
sS'home'
p314
F0.0025000000000000001
sS'for'
p315
F0.072499999999999995
sS'bottom'
p316
F0.0025000000000000001
sS'recorded'
p317
F0.0050000000000000001
sS'legal'
p318
F0.0025000000000000001
sS'totals'
p319
F0.0050000000000000001
sS'does'
p320
F0.0050000000000000001
sS'be'
p321
F0.02
sS'run'
p322
F0.0025000000000000001
sS'power'
p323
F0.0025000000000000001
sS'continuing'
p324
F0.0025000000000000001
sS'output'
p325
F0.0025000000000000001
sS'plots'
p326
F0.0025000000000000001
sS'post'
p327
F0.0025000000000000001
sS'prepared'
p328
F0.0025000000000000001
sS'readability'
p329
F0.0025000000000000001
sS'stage'
p330
F0.0025000000000000001
sS'on'
p331
F0.037499999999999999
sS'about'
p332
F0.01
sS'actual'
p333
F0.0050000000000000001
sS'would'
p334
F0.0050000000000000001
sS'anything'
p335
F0.0025000000000000001
sS'of'
p336
F0.0625
sS'months'
p337
F0.0025000000000000001
sS'range'
p338
F0.0025000000000000001
sS'slightly'
p339
F0.0025000000000000001
sS'or'
p340
F0.02
sS'automatically'
p341
F0.0025000000000000001
sS'software'
p342
F0.01
sS'outlook'
p343
F0.0050000000000000001
sS'facility'
p344
F0.0025000000000000001
sS'charts'
p345
F0.0025000000000000001
sS'down'
p346
F0.0025000000000000001
sS'your'
p347
F0.017500000000000002
sS'forwarded'
p348
F0.0050000000000000001
sS'transfer'
p349
F0.0050000000000000001
sS'there'
p350
F0.01
sS'question'
p351
F0.0025000000000000001
sS'specifically'
p352
F0.0025000000000000001
sS'start'
p353
F0.0050000000000000001
sS'authorized'
p354
F0.0025000000000000001
sS'was'
p355
F0.022499999999999999
sS'files'
p356
F0.0025000000000000001
sS'but'
p357
F0.0074999999999999997
sS'properly'
p358
F0.0025000000000000001
sS'automated'
p359
F0.0025000000000000001
sS'infos'
p360
F0.0025000000000000001
sS'removed'
p361
F0.0025000000000000001
sS'with'
p362
F0.0275
sS'reset'
p363
F0.0025000000000000001
sS'pull'
p364
F0.0025000000000000001
sS'attached'
p365
F0.0074999999999999997
sS'up'
p366
F0.0050000000000000001
sS'distribution'
p367
F0.0050000000000000001
sS'gone'
p368
F0.0025000000000000001
sS'expedition'
p369
F0.0074999999999999997
sS'turbines'
p370
F0.0050000000000000001
sS'am'
p371
F0.01
sS'passwords'
p372
F0.0025000000000000001
sS'an'
p373
F0.0050000000000000001
sS'as'
p374
F0.037499999999999999
sS'at'
p375
F0.01
sS'file'
p376
F0.0025000000000000001
sS'recalculated'
p377
F0.0025000000000000001
sS'distributions'
p378
F0.0025000000000000001
sS'check'
p379
F0.0025000000000000001
sS'again'
p380
F0.0025000000000000001
sS'no'
p381
F0.0050000000000000001
sS'when'
p382
F0.0074999999999999997
sS'other'
p383
F0.0050000000000000001
sS'you'
p384
F0.042500000000000003
sS'deviation'
p385
F0.0025000000000000001
sS'users'
p386
F0.01
sS'problems'
p387
F0.0025000000000000001
sS'includes'
p388
F0.0025000000000000001
sS'additionally'
p389
F0.0025000000000000001
sS'fisher'
p390
F0.0025000000000000001
sS'weekend'
p391
F0.0025000000000000001
sS'desert'
p392
F0.0050000000000000001
sS'longer'
p393
F0.0025000000000000001
sS'assume'
p394
F0.0025000000000000001
sS'columns'
p395
F0.0025000000000000001
sS'holes'
p396
F0.0025000000000000001
sS'extras'
p397
F0.0025000000000000001
sS'time'
p398
F0.0050000000000000001
sS'directory'
p399
F0.0025000000000000001
sS'requires'
p400
F0.0025000000000000001
sS'hello'
p401
F0.0025000000000000001
s.