(dp1
S'limited'
p2
F0.0020242914979757085
sS'all'
p3
F0.020242914979757085
sS'results'
p4
F0.0020242914979757085
sS'month'
p5
F0.004048582995951417
sS'legal'
p6
F0.0020242914979757085
sS'go'
p7
F0.0020242914979757085
sS'mill'
p8
F0.004048582995951417
sS'disk'
p9
F0.0020242914979757085
sS'calculate'
p10
F0.0020242914979757085
sS'graph'
p11
F0.0080971659919028341
sS'send'
p12
F0.004048582995951417
sS'to'
p13
F0.099190283400809723
sS'program'
p14
F0.0020242914979757085
sS'under'
p15
F0.0020242914979757085
sS'sent'
p16
F0.0020242914979757085
sS'very'
p17
F0.0060728744939271256
sS'dell'
p18
F0.0020242914979757085
sS'every'
p19
F0.004048582995951417
sS'gearbox'
p20
F0.004048582995951417
sS'minute'
p21
F0.0020242914979757085
sS'entire'
p22
F0.0020242914979757085
sS'did'
p23
F0.004048582995951417
sS'notes'
p24
F0.004048582995951417
sS'wait'
p25
F0.004048582995951417
sS'leave'
p26
F0.0020242914979757085
sS'says'
p27
F0.0020242914979757085
sS'estimates'
p28
F0.0020242914979757085
sS'further'
p29
F0.0020242914979757085
sS'estimated'
p30
F0.0020242914979757085
sS'machines'
p31
F0.004048582995951417
sS'index'
p32
F0.01417004048582996
sS'what'
p33
F0.010121457489878543
sS'appear'
p34
F0.0020242914979757085
sS'availability'
p35
F0.004048582995951417
sS'current'
p36
F0.0060728744939271256
sS'version'
p37
F0.0060728744939271256
sS'above'
p38
F0.0020242914979757085
sS'new'
p39
F0.0060728744939271256
sS'net'
p40
F0.0020242914979757085
sS'method'
p41
F0.004048582995951417
sS'temperatures'
p42
F0.0020242914979757085
sS'here'
p43
F0.012145748987854251
sS'hours'
p44
F0.0080971659919028341
sS'desired'
p45
F0.0020242914979757085
sS'pause'
p46
F0.0020242914979757085
sS'let'
p47
F0.018218623481781375
sS'buddy'
p48
F0.0020242914979757085
sS'box'
p49
F0.0020242914979757085
sS'technical'
p50
F0.0020242914979757085
sS'reports'
p51
F0.004048582995951417
sS'amount'
p52
F0.0020242914979757085
sS'resulting'
p53
F0.0020242914979757085
sS'changes'
p54
F0.0020242914979757085
sS'lowers'
p55
F0.0020242914979757085
sS'useful'
p56
F0.0020242914979757085
sS'extra'
p57
F0.0020242914979757085
sS'seven'
p58
F0.0020242914979757085
sS'counts'
p59
F0.0020242914979757085
sS'total'
p60
F0.0080971659919028341
sS'use'
p61
F0.010121457489878543
sS'from'
p62
F0.020242914979757085
sS'proceed'
p63
F0.0020242914979757085
sS'working'
p64
F0.0020242914979757085
sS'two'
p65
F0.004048582995951417
sS'readability'
p66
F0.0020242914979757085
sS'therefore'
p67
F0.0020242914979757085
sS'taken'
p68
F0.0020242914979757085
sS'until'
p69
F0.004048582995951417
sS'today'
p70
F0.0020242914979757085
sS'more'
p71
F0.004048582995951417
sS'started'
p72
F0.004048582995951417
sS'acceptable'
p73
F0.0020242914979757085
sS'corrected'
p74
F0.0020242914979757085
sS'it'
p75
F0.020242914979757085
sS'me'
p76
F0.022267206477732792
sS'sample'
p77
F0.004048582995951417
sS'this'
p78
F0.046558704453441298
sS'work'
p79
F0.010121457489878543
sS'deficiencies'
p80
F0.0020242914979757085
sS'values'
p81
F0.004048582995951417
sS'columns'
p82
F0.0020242914979757085
sS'install'
p83
F0.0080971659919028341
sS'following'
p84
F0.0020242914979757085
sS'my'
p85
F0.0020242914979757085
sS'example'
p86
F0.004048582995951417
sS'refine'
p87
F0.0020242914979757085
sS'process'
p88
F0.0020242914979757085
sS'in'
p89
F0.034412955465587043
sS'high'
p90
F0.004048582995951417
sS'heard'
p91
F0.0020242914979757085
sS'numbers'
p92
F0.0020242914979757085
sS'want'
p93
F0.0020242914979757085
sS'allowed'
p94
F0.004048582995951417
sS'phrase'
p95
F0.0020242914979757085
sS'times'
p96
F0.004048582995951417
sS'totaled'
p97
F0.0020242914979757085
sS'information'
p98
F0.01417004048582996
sS'recovery'
p99
F0.010121457489878543
sS'provide'
p100
F0.004048582995951417
sS'verify'
p101
F0.0020242914979757085
sS'clarification'
p102
F0.0020242914979757085
sS'machine'
p103
F0.0080971659919028341
sS'faults'
p104
F0.012145748987854251
sS'methodology'
p105
F0.0020242914979757085
sS'mar'
p106
F0.0060728744939271256
sS'intended'
p107
F0.004048582995951417
sS'may'
p108
F0.030364372469635626
sS'earlier'
p109
F0.0020242914979757085
sS'containing'
p110
F0.0020242914979757085
sS'produce'
p111
F0.0020242914979757085
sS'designed'
p112
F0.0020242914979757085
sS'data'
p113
F0.034412955465587043
sS'types'
p114
F0.004048582995951417
sS'short'
p115
F0.0020242914979757085
sS'remember'
p116
F0.0020242914979757085
sS'maybe'
p117
F0.0020242914979757085
sS'chapman'
p118
F0.0020242914979757085
sS'their'
p119
F0.0020242914979757085
sS'so'
p120
F0.010121457489878543
sS'wind'
p121
F0.0020242914979757085
sS'exclusive'
p122
F0.0020242914979757085
sS'help'
p123
F0.0020242914979757085
sS'over'
p124
F0.0060728744939271256
sS'logged'
p125
F0.0020242914979757085
sS'soon'
p126
F0.0020242914979757085
sS'installed'
p127
F0.0020242914979757085
sS'produced'
p128
F0.0020242914979757085
sS'through'
p129
F0.0080971659919028341
sS'pitch'
p130
F0.004048582995951417
sS'mentioned'
p131
F0.0020242914979757085
sS'turbine'
p132
F0.052631578947368418
sS'still'
p133
F0.004048582995951417
sS'before'
p134
F0.010121457489878543
sS'group'
p135
F0.0020242914979757085
sS'monitor'
p136
F0.0020242914979757085
sS'till'
p137
F0.0020242914979757085
sS'personal'
p138
F0.0020242914979757085
sS'better'
p139
F0.004048582995951417
sS'production'
p140
F0.004048582995951417
sS'systems'
p141
F0.0020242914979757085
sS'decreased'
p142
F0.0020242914979757085
sS'texas'
p143
F0.004048582995951417
sS'then'
p144
F0.0080971659919028341
sS'them'
p145
F0.004048582995951417
sS'good'
p146
F0.0020242914979757085
sS'records'
p147
F0.010121457489878543
sS'they'
p148
F0.0060728744939271256
sS'half'
p149
F0.0020242914979757085
sS'not'
p150
F0.034412955465587043
sS'sorted'
p151
F0.0020242914979757085
sS'bigger'
p152
F0.0020242914979757085
sS'always'
p153
F0.0020242914979757085
sS'wend'
p154
F0.0020242914979757085
sS'drop'
p155
F0.0060728744939271256
sS'filling'
p156
F0.0020242914979757085
sS'mode'
p157
F0.0080971659919028341
sS'each'
p158
F0.0060728744939271256
sS'found'
p159
F0.0020242914979757085
sS'mean'
p160
F0.004048582995951417
sS'subset'
p161
F0.0020242914979757085
sS'energy'
p162
F0.022267206477732792
sS'revised'
p163
F0.0020242914979757085
sS'used'
p164
F0.0080971659919028341
sS'frequency'
p165
F0.0020242914979757085
sS'our'
p166
F0.004048582995951417
sS'event'
p167
F0.0020242914979757085
sS'out'
p168
F0.0020242914979757085
sS'network'
p169
F0.0020242914979757085
sS'defend'
p170
F0.004048582995951417
sS'since'
p171
F0.0060728744939271256
sS're'
p172
F0.0020242914979757085
sS'shows'
p173
F0.0020242914979757085
sS'after'
p174
F0.004048582995951417
sS'voltages'
p175
F0.0020242914979757085
sS'curtailment'
p176
F0.010121457489878543
sS'acrobat'
p177
F0.0020242914979757085
sS'curtailed'
p178
F0.018218623481781375
sS'additional'
p179
F0.0060728744939271256
sS'created'
p180
F0.0020242914979757085
sS'starts'
p181
F0.0020242914979757085
sS'messages'
p182
F0.0080971659919028341
sS'keep'
p183
F0.0020242914979757085
sS'creates'
p184
F0.0020242914979757085
sS'expecting'
p185
F0.004048582995951417
sS'think'
p186
F0.0020242914979757085
sS'south'
p187
F0.0020242914979757085
sS'first'
p188
F0.0020242914979757085
sS'number'
p189
F0.0080971659919028341
sS'owned'
p190
F0.0020242914979757085
sS'one'
p191
F0.0080971659919028341
sS'done'
p192
F0.0020242914979757085
sS'owner'
p193
F0.0020242914979757085
sS'message'
p194
F0.020242914979757085
sS'little'
p195
F0.0020242914979757085
sS'temperature'
p196
F0.004048582995951417
sS'service'
p197
F0.004048582995951417
sS'strict'
p198
F0.0020242914979757085
sS'top'
p199
F0.0020242914979757085
sS'system'
p200
F0.004048582995951417
sS'approximately'
p201
F0.0020242914979757085
sS'needed'
p202
F0.004048582995951417
sS'storm'
p203
F0.0020242914979757085
sS'tom'
p204
F0.022267206477732792
sS'that'
p205
F0.038461538461538464
sS'explanation'
p206
F0.0020242914979757085
sS'released'
p207
F0.0020242914979757085
sS'copy'
p208
F0.0020242914979757085
sS'than'
p209
F0.004048582995951417
sS'showed'
p210
F0.0020242914979757085
sS'accordance'
p211
F0.0020242914979757085
sS'recording'
p212
F0.0020242914979757085
sS'states'
p213
F0.0020242914979757085
sS'individual'
p214
F0.0020242914979757085
sS'were'
p215
F0.020242914979757085
sS'providing'
p216
F0.0020242914979757085
sS'result'
p217
F0.004048582995951417
sS'and'
p218
F0.078947368421052627
sS'syncing'
p219
F0.0020242914979757085
sS'talking'
p220
F0.004048582995951417
sS'have'
p221
F0.050607287449392711
sS'need'
p222
F0.012145748987854251
sS'seem'
p223
F0.0020242914979757085
sS'any'
p224
F0.0080971659919028341
sS'rotor'
p225
F0.004048582995951417
sS'able'
p226
F0.0020242914979757085
sS'note'
p227
F0.0020242914979757085
sS'also'
p228
F0.010121457489878543
sS'issuing'
p229
F0.0020242914979757085
sS'take'
p230
F0.004048582995951417
sS'which'
p231
F0.004048582995951417
sS'completed'
p232
F0.0020242914979757085
sS'formulas'
p233
F0.0020242914979757085
sS'unless'
p234
F0.0020242914979757085
sS'established'
p235
F0.012145748987854251
sS'pausing'
p236
F0.004048582995951417
sS'phase'
p237
F0.0020242914979757085
sS'why'
p238
F0.0020242914979757085
sS'especially'
p239
F0.0020242914979757085
sS'windows'
p240
F0.004048582995951417
sS'average'
p241
F0.004048582995951417
sS'request'
p242
F0.0060728744939271256
sS'graphs'
p243
F0.018218623481781375
sS'properly'
p244
F0.0020242914979757085
sS'fact'
p245
F0.0020242914979757085
sS'show'
p246
F0.0020242914979757085
sS'lotus'
p247
F0.0020242914979757085
sS'formatted'
p248
F0.0020242914979757085
sS'bring'
p249
F0.0020242914979757085
sS'planning'
p250
F0.0020242914979757085
sS'find'
p251
F0.0020242914979757085
sS'impact'
p252
F0.0020242914979757085
sS'removed'
p253
F0.0020242914979757085
sS'should'
p254
F0.0020242914979757085
sS'only'
p255
F0.012145748987854251
sS'summarizing'
p256
F0.0020242914979757085
sS'employed'
p257
F0.0020242914979757085
sS'local'
p258
F0.0020242914979757085
sS'hope'
p259
F0.0060728744939271256
sS'do'
p260
F0.012145748987854251
sS'goes'
p261
F0.0020242914979757085
sS'get'
p262
F0.0060728744939271256
sS'report'
p263
F0.016194331983805668
sS'procedures'
p264
F0.0020242914979757085
sS'regarding'
p265
F0.0020242914979757085
sS'bar'
p266
F0.0020242914979757085
sS'summary'
p267
F0.004048582995951417
sS'shots'
p268
F0.0020242914979757085
sS'including'
p269
F0.0020242914979757085
sS'fixed'
p270
F0.0020242914979757085
sS'where'
p271
F0.0080971659919028341
sS'thanks'
p272
F0.0060728744939271256
sS'set'
p273
F0.0020242914979757085
sS'configured'
p274
F0.0020242914979757085
sS'up'
p275
F0.004048582995951417
sS'see'
p276
F0.004048582995951417
sS'computer'
p277
F0.004048582995951417
sS'are'
p278
F0.050607287449392711
sS'best'
p279
F0.0020242914979757085
sS'subject'
p280
F0.018218623481781375
sS'phases'
p281
F0.0020242914979757085
sS'user'
p282
F0.0020242914979757085
sS'currently'
p283
F0.0020242914979757085
sS'please'
p284
F0.012145748987854251
sS'sites'
p285
F0.012145748987854251
sS'between'
p286
F0.012145748987854251
sS'probably'
p287
F0.0020242914979757085
sS'we'
p288
F0.026315789473684209
sS'however'
p289
F0.004048582995951417
sS'joe'
p290
F0.010121457489878543
sS'come'
p291
F0.0020242914979757085
sS'suggested'
p292
F0.0020242914979757085
sS'both'
p293
F0.004048582995951417
sS'commands'
p294
F0.0020242914979757085
sS'reported'
p295
F0.0020242914979757085
sS'fault'
p296
F0.0060728744939271256
sS'ill'
p297
F0.0020242914979757085
sS'susceptible'
p298
F0.0020242914979757085
sS'games'
p299
F0.0020242914979757085
sS'estimation'
p300
F0.0020242914979757085
sS'otherwise'
p301
F0.0020242914979757085
sS'load'
p302
F0.0020242914979757085
sS'can'
p303
F0.020242914979757085
sS'had'
p304
F0.0080971659919028341
sS'loaded'
p305
F0.0020242914979757085
sS'basis'
p306
F0.0020242914979757085
sS'addition'
p307
F0.0020242914979757085
sS'decent'
p308
F0.0020242914979757085
sS'due'
p309
F0.010121457489878543
sS'been'
p310
F0.0080971659919028341
sS'mark'
p311
F0.097165991902834009
sS'attaching'
p312
F0.0020242914979757085
sS'much'
p313
F0.0020242914979757085
sS'expected'
p314
F0.0020242914979757085
sS'extreme'
p315
F0.0020242914979757085
sS'availabilities'
p316
F0.0020242914979757085
sS'those'
p317
F0.004048582995951417
sS'these'
p318
F0.012145748987854251
sS'will'
p319
F0.024291497975708502
sS'formatting'
p320
F0.0020242914979757085
sS'policies'
p321
F0.0020242914979757085
sS'many'
p322
F0.004048582995951417
sS'guide'
p323
F0.0020242914979757085
sS'procedure'
p324
F0.0020242914979757085
sS'exclude'
p325
F0.0020242914979757085
sS'generate'
p326
F0.0020242914979757085
sS'is'
p327
F0.0708502024291498
sS'site'
p328
F0.016194331983805668
sS'player'
p329
F0.0020242914979757085
sS'ambient'
p330
F0.0020242914979757085
sS'ready'
p331
F0.0020242914979757085
sS'currents'
p332
F0.0020242914979757085
sS'if'
p333
F0.04048582995951417
sS'different'
p334
F0.0020242914979757085
sS'same'
p335
F0.004048582995951417
sS'compiling'
p336
F0.0020242914979757085
sS'several'
p337
F0.0020242914979757085
sS'passwords'
p338
F0.0020242914979757085
sS'purpose'
p339
F0.0020242914979757085
sS'well'
p340
F0.0060728744939271256
sS'command'
p341
F0.0020242914979757085
sS'sets'
p342
F0.0020242914979757085
sS'the'
p343
F0.26315789473684209
sS'just'
p344
F0.004048582995951417
sS'less'
p345
F0.0020242914979757085
sS'mistaken'
p346
F0.0020242914979757085
sS'voltage'
p347
F0.0020242914979757085
sS'questions'
p348
F0.012145748987854251
sS'speed'
p349
F0.004048582995951417
sS'yet'
p350
F0.004048582995951417
sS'web'
p351
F0.0020242914979757085
sS'generator'
p352
F0.012145748987854251
sS'equipment'
p353
F0.0020242914979757085
sS'sky'
p354
F0.004048582995951417
sS'lake'
p355
F0.004048582995951417
sS'spinner'
p356
F0.0020242914979757085
sS'lets'
p357
F0.0020242914979757085
sS'easy'
p358
F0.0020242914979757085
sS'has'
p359
F0.018218623481781375
sS'remaining'
p360
F0.0020242914979757085
sS'real'
p361
F0.0020242914979757085
sS'format'
p362
F0.0020242914979757085
sS'read'
p363
F0.0020242914979757085
sS'big'
p364
F0.0020242914979757085
sS'couple'
p365
F0.004048582995951417
sS'sums'
p366
F0.0020242914979757085
sS'possible'
p367
F0.004048582995951417
sS'possibly'
p368
F0.004048582995951417
sS'know'
p369
F0.012145748987854251
sS'using'
p370
F0.0060728744939271256
sS'bit'
p371
F0.0020242914979757085
sS'modifications'
p372
F0.0020242914979757085
sS'like'
p373
F0.0060728744939271256
sS'lost'
p374
F0.004048582995951417
sS'manual'
p375
F0.004048582995951417
sS'collect'
p376
F0.0020242914979757085
sS'continue'
p377
F0.0060728744939271256
sS'output'
p378
F0.0060728744939271256
sS'security'
p379
F0.0060728744939271256
sS'poor'
p380
F0.004048582995951417
sS'right'
p381
F0.0020242914979757085
sS'methods'
p382
F0.004048582995951417
sS'sequence'
p383
F0.004048582995951417
sS'some'
p384
F0.0060728744939271256
sS'back'
p385
F0.0020242914979757085
sS'palm'
p386
F0.0020242914979757085
sS'examples'
p387
F0.0020242914979757085
sS'duration'
p388
F0.0020242914979757085
sS'home'
p389
F0.0020242914979757085
sS'for'
p390
F0.080971659919028341
sS'informative'
p391
F0.0020242914979757085
sS'though'
p392
F0.0020242914979757085
sS'recorded'
p393
F0.0080971659919028341
sS'comments'
p394
F0.004048582995951417
sS'totals'
p395
F0.004048582995951417
sS'does'
p396
F0.0060728744939271256
sS'be'
p397
F0.030364372469635626
sS'noise'
p398
F0.0020242914979757085
sS'run'
p399
F0.0060728744939271256
sS'power'
p400
F0.0020242914979757085
sS'dropped'
p401
F0.0080971659919028341
sS'continuing'
p402
F0.0020242914979757085
sS'become'
p403
F0.004048582995951417
sS'plots'
p404
F0.0020242914979757085
sS'post'
p405
F0.0020242914979757085
sS'prepared'
p406
F0.0020242914979757085
sS'by'
p407
F0.03643724696356275
sS'stage'
p408
F0.0020242914979757085
sS'on'
p409
F0.044534412955465584
sS'about'
p410
F0.020242914979757085
sS'actual'
p411
F0.004048582995951417
sS'would'
p412
F0.01417004048582996
sS'anything'
p413
F0.004048582995951417
sS'of'
p414
F0.064777327935222673
sS'months'
p415
F0.0020242914979757085
sS'range'
p416
F0.0020242914979757085
sS'underway'
p417
F0.0020242914979757085
sS'slightly'
p418
F0.0020242914979757085
sS'or'
p419
F0.020242914979757085
sS'automatically'
p420
F0.0020242914979757085
sS'software'
p421
F0.0080971659919028341
sS'outlook'
p422
F0.004048582995951417
sS'facility'
p423
F0.0020242914979757085
sS'within'
p424
F0.0020242914979757085
sS'charts'
p425
F0.0020242914979757085
sS'down'
p426
F0.0020242914979757085
sS'next'
p427
F0.004048582995951417
sS'your'
p428
F0.01417004048582996
sS'per'
p429
F0.0080971659919028341
sS'forwarded'
p430
F0.010121457489878543
sS'waits'
p431
F0.0020242914979757085
sS'transfer'
p432
F0.004048582995951417
sS'there'
p433
F0.012145748987854251
sS'question'
p434
F0.0080971659919028341
sS'specifically'
p435
F0.0020242914979757085
sS'start'
p436
F0.004048582995951417
sS'authorized'
p437
F0.0020242914979757085
sS'way'
p438
F0.0020242914979757085
sS'somerset'
p439
F0.0020242914979757085
sS'was'
p440
F0.038461538461538464
sS'files'
p441
F0.004048582995951417
sS'believe'
p442
F0.0020242914979757085
sS'but'
p443
F0.0080971659919028341
sS'hi'
p444
F0.0020242914979757085
sS'automated'
p445
F0.0020242914979757085
sS'infos'
p446
F0.0020242914979757085
sS'highest'
p447
F0.0020242914979757085
sS'with'
p448
F0.028340080971659919
sS'he'
p449
F0.004048582995951417
sS'reset'
p450
F0.0020242914979757085
sS'pull'
p451
F0.0020242914979757085
sS'made'
p452
F0.0020242914979757085
sS'attached'
p453
F0.010121457489878543
sS'maximum'
p454
F0.0020242914979757085
sS'convince'
p455
F0.0020242914979757085
sS'distribution'
p456
F0.004048582995951417
sS'similar'
p457
F0.0020242914979757085
sS'gone'
p458
F0.0020242914979757085
sS'expedition'
p459
F0.0060728744939271256
sS'holes'
p460
F0.0020242914979757085
sS'am'
p461
F0.018218623481781375
sS'an'
p462
F0.004048582995951417
sS'as'
p463
F0.03643724696356275
sS'at'
p464
F0.020242914979757085
sS'file'
p465
F0.004048582995951417
sS'recalculated'
p466
F0.0020242914979757085
sS'distributions'
p467
F0.0020242914979757085
sS'check'
p468
F0.0020242914979757085
sS'again'
p469
F0.0020242914979757085
sS'no'
p470
F0.010121457489878543
sS'when'
p471
F0.010121457489878543
sS'virtual'
p472
F0.0080971659919028341
sS'other'
p473
F0.0080971659919028341
sS'you'
p474
F0.038461538461538464
sS'deviation'
p475
F0.0020242914979757085
sS'users'
p476
F0.0080971659919028341
sS'problems'
p477
F0.0020242914979757085
sS'includes'
p478
F0.0020242914979757085
sS'walker'
p479
F0.0020242914979757085
sS'log'
p480
F0.0020242914979757085
sS'additionally'
p481
F0.0020242914979757085
sS'fisher'
p482
F0.004048582995951417
sS'weekend'
p483
F0.0020242914979757085
sS'desert'
p484
F0.004048582995951417
sS'longer'
p485
F0.0020242914979757085
sS'assume'
p486
F0.004048582995951417
sS'requires'
p487
F0.004048582995951417
sS'bottom'
p488
F0.0020242914979757085
sS'turbines'
p489
F0.016194331983805668
sS'having'
p490
F0.0020242914979757085
sS'extras'
p491
F0.0020242914979757085
sS'time'
p492
F0.010121457489878543
sS'directory'
p493
F0.0020242914979757085
sS'starting'
p494
F0.0020242914979757085
sS'hello'
p495
F0.0020242914979757085
s.