(dp1
S'and'
p2
F0.012690355329949238
sS'that'
p3
F0.012690355329949238
sS'this'
p4
F0.01015228426395939
sS'mean_word_length'
p5
F3.9764705882352942
sS'sentence_standard_deviation'
p6
F29.405764093757472
sS'however'
p7
F0
sS'but'
p8
F0.01015228426395939
sS'very'
p9
F0
sS'must'
p10
F0
sS'type_token_ratio'
p11
F0.78737764336503835
sS'more'
p12
F0.005076142131979695
sS'might'
p13
F0
sS'mean_sentence_length'
p14
F30.647058823529413
sS'if'
p15
F0.0076142131979695434
s.