(dp1
S'all'
p2
F0.0025380710659898475
sS'ceases'
p3
F0.0025380710659898475
sS'show'
p4
F0.0025380710659898475
sS'sent'
p5
F0.0025380710659898475
sS'month'
p6
F0.0025380710659898475
sS'intervals'
p7
F0.0025380710659898475
sS'looks'
p8
F0.005076142131979695
sS'mentioned'
p9
F0.0025380710659898475
sS'group'
p10
F0.0025380710659898475
sS'just'
p11
F0.0025380710659898475
sS'gulf'
p12
F0.0025380710659898475
sS'how'
p13
F0.0025380710659898475
sS'segments'
p14
F0.0025380710659898475
sS'had'
p15
F0.0025380710659898475
sS'should'
p16
F0.0025380710659898475
sS'to'
p17
F0.02030456852791878
sS'only'
p18
F0.005076142131979695
sS'program'
p19
F0.0025380710659898475
sS'location'
p20
F0.0025380710659898475
sS'has'
p21
F0.0025380710659898475
sS'texas'
p22
F0.005076142131979695
sS'me'
p23
F0.0025380710659898475
sS'get'
p24
F0.0025380710659898475
sS'contracts'
p25
F0.01015228426395939
sS'workout'
p26
F0.0076142131979695434
sS'possible'
p27
F0.0025380710659898475
sS'ones'
p28
F0.0025380710659898475
sS'know'
p29
F0.005076142131979695
sS'they'
p30
F0.0025380710659898475
sS'new'
p31
F0.005076142131979695
sS'not'
p32
F0.01015228426395939
sS'like'
p33
F0.0025380710659898475
sS'transmission'
p34
F0.0025380710659898475
sS'conditions'
p35
F0.0025380710659898475
sS'whether'
p36
F0.0025380710659898475
sS'settle'
p37
F0.0025380710659898475
sS'each'
p38
F0.0025380710659898475
sS'noted'
p39
F0.0025380710659898475
sS'wrote'
p40
F0.0025380710659898475
sS'view'
p41
F0.0025380710659898475
sS'set'
p42
F0.0025380710659898475
sS'programmed'
p43
F0.0025380710659898475
sS'used'
p44
F0.0025380710659898475
sS'up'
p45
F0.005076142131979695
sS'been'
p46
F0.0025380710659898475
sS'trading'
p47
F0.0025380710659898475
sS'are'
p48
F0.017766497461928935
sS'year'
p49
F0.0025380710659898475
sS'proper'
p50
F0.0025380710659898475
sS'our'
p51
F0.0025380710659898475
sS'out'
p52
F0.0025380710659898475
sS'even'
p53
F0.0025380710659898475
sS'what'
p54
F0.015228426395939087
sS'for'
p55
F0.012690355329949238
sS'please'
p56
F0.005076142131979695
sS'does'
p57
F0.0076142131979695434
sS'hill'
p58
F0.0025380710659898475
sS'treadmill'
p59
F0.0025380710659898475
sS'got'
p60
F0.0025380710659898475
sS'net'
p61
F0.005076142131979695
sS'ever'
p62
F0.0025380710659898475
sS'shows'
p63
F0.005076142131979695
sS'locate'
p64
F0.0025380710659898475
sS'be'
p65
F0.0076142131979695434
sS'we'
p66
F0.0025380710659898475
sS'earlier'
p67
F0.005076142131979695
sS'run'
p68
F0.005076142131979695
sS'gathered'
p69
F0.0025380710659898475
sS'here'
p70
F0.0076142131979695434
sS'paper'
p71
F0.0025380710659898475
sS'reason'
p72
F0.0025380710659898475
sS'joe'
p73
F0.005076142131979695
sS'wanted'
p74
F0.01015228426395939
sS'by'
p75
F0.0025380710659898475
sS'on'
p76
F0.0076142131979695434
sS'about'
p77
F0.0025380710659898475
sS'central'
p78
F0.0025380710659898475
sS'of'
p79
F0.012690355329949238
sS'could'
p80
F0.01015228426395939
sS'la'
p81
F0.0076142131979695434
sS'contract'
p82
F0.012690355329949238
sS'amount'
p83
F0.0025380710659898475
sS'products'
p84
F0.005076142131979695
sS'or'
p85
F0.005076142131979695
sS'south'
p86
F0.0025380710659898475
sS'first'
p87
F0.005076142131979695
sS'supply'
p88
F0.0025380710659898475
sS'sincerely'
p89
F0.0025380710659898475
sS'appropriate'
p90
F0.0025380710659898475
sS'cent'
p91
F0.0025380710659898475
sS'accountability'
p92
F0.0025380710659898475
sS'open'
p93
F0.0025380710659898475
sS'east'
p94
F0.0025380710659898475
sS'from'
p95
F0.005076142131979695
sS'service'
p96
F0.0025380710659898475
sS'there'
p97
F0.0025380710659898475
sS'fast'
p98
F0.0025380710659898475
sS'appears'
p99
F0.0025380710659898475
sS'stuck'
p100
F0.0025380710659898475
sS'going'
p101
F0.0025380710659898475
sS'call'
p102
F0.0025380710659898475
sS'tom'
p103
F0.012690355329949238
sS'forward'
p104
F0.0025380710659898475
sS'more'
p105
F0.005076142131979695
sS'that'
p106
F0.012690355329949238
sS'some'
p107
F0.0025380710659898475
sS'but'
p108
F0.01015228426395939
sS'locations'
p109
F0.0025380710659898475
sS'prices'
p110
F0.0025380710659898475
sS'with'
p111
F0.005076142131979695
sS'info'
p112
F0.0076142131979695434
sS'distance'
p113
F0.0025380710659898475
sS'keeping'
p114
F0.0025380710659898475
sS'made'
p115
F0.0025380710659898475
sS'hour'
p116
F0.0025380710659898475
sS'this'
p117
F0.01015228426395939
sS'maximum'
p118
F0.0025380710659898475
sS'us'
p119
F0.0025380710659898475
sS'will'
p120
F0.0025380710659898475
sS'can'
p121
F0.005076142131979695
sS'my'
p122
F0.005076142131979695
sS'display'
p123
F0.005076142131979695
sS'and'
p124
F0.012690355329949238
sS'gathering'
p125
F0.0025380710659898475
sS'have'
p126
F0.012690355329949238
sS'defined'
p127
F0.0025380710659898475
sS'minutes'
p128
F0.0025380710659898475
sS'is'
p129
F0.025380710659898477
sS'received'
p130
F0.0025380710659898475
sS'am'
p131
F0.0025380710659898475
sS'it'
p132
F0.0076142131979695434
sS'an'
p133
F0.005076142131979695
sS'say'
p134
F0.0025380710659898475
sS'exist'
p135
F0.0025380710659898475
sS'at'
p136
F0.0025380710659898475
sS'want'
p137
F0.0025380710659898475
sS'in'
p138
F0.015228426395939087
sS'need'
p139
F0.0076142131979695434
sS'any'
p140
F0.0025380710659898475
sS'as'
p141
F0.005076142131979695
sS'if'
p142
F0.0076142131979695434
sS'no'
p143
F0.0025380710659898475
sS'excel'
p144
F0.0025380710659898475
sS'parks'
p145
F0.005076142131979695
sS'id'
p146
F0.0076142131979695434
sS'machine'
p147
F0.005076142131979695
sS'also'
p148
F0.0076142131979695434
sS'attachment'
p149
F0.0025380710659898475
sS'you'
p150
F0.005076142131979695
sS'several'
p151
F0.0025380710659898475
sS'offshore'
p152
F0.0076142131979695434
sS'literature'
p153
F0.0025380710659898475
sS'price'
p154
F0.005076142131979695
sS'who'
p155
F0.0025380710659898475
sS'thanks'
p156
F0.0025380710659898475
sS'desks'
p157
F0.0025380710659898475
sS'preset'
p158
F0.0076142131979695434
sS'user'
p159
F0.0025380710659898475
sS'advertisement'
p160
F0.0025380710659898475
sS'segment'
p161
F0.0025380710659898475
sS'programs'
p162
F0.005076142131979695
sS'interval'
p163
F0.0025380710659898475
sS'looked'
p164
F0.0025380710659898475
sS'so'
p165
F0.005076142131979695
sS'time'
p166
F0.005076142131979695
sS'the'
p167
F0.073604060913705582
s.