(dp1
S'and'
p2
F0.016673528200905723
sS'that'
p3
F0.0076677645121449155
sS'this'
p4
F0.0081309180732811858
sS'mean_word_length'
p5
F4.7999999999999998
sS'however'
p6
F0.00030876904075751338
sS'but'
p7
F0.0022643062988884316
sS'very'
p8
F0.00061753808151502677
sS'if'
p9
F0.0057122272540139976
sS'must'
p10
F5.1461506792918897e-05
sS'might'
p11
F0.00061753808151502677
sS'more'
p12
F0.00097776862906545896
s.